
encl.so:     file format elf64-x86-64

SYMBOL TABLE:
00000000000002a8 l    d  .interp	0000000000000000 .interp
00000000000002c4 l    d  .note.gnu.build-id	0000000000000000 .note.gnu.build-id
00000000000002e8 l    d  .gnu.hash	0000000000000000 .gnu.hash
00000000000003a8 l    d  .dynsym	0000000000000000 .dynsym
0000000000000618 l    d  .dynstr	0000000000000000 .dynstr
0000000000000760 l    d  .rela.dyn	0000000000000000 .rela.dyn
0000000000001000 l    d  .plt	0000000000000000 .plt
0000000000001010 l    d  .plt.got	0000000000000000 .plt.got
0000000000001020 l    d  .text	0000000000000000 .text
00000000000083d0 l    d  .nipx	0000000000000000 .nipx
0000000000009000 l    d  .rodata	0000000000000000 .rodata
00000000000090c0 l    d  .niprod	0000000000000000 .niprod
0000000000009980 l    d  .eh_frame_hdr	0000000000000000 .eh_frame_hdr
0000000000009de0 l    d  .eh_frame	0000000000000000 .eh_frame
000000000000cdc0 l    d  .fini_array	0000000000000000 .fini_array
000000000000cde0 l    d  .data.rel.ro	0000000000000000 .data.rel.ro
000000000000ce70 l    d  .dynamic	0000000000000000 .dynamic
000000000000cfb0 l    d  .got	0000000000000000 .got
000000000000d000 l    d  .data	0000000000000000 .data
000000000000e0a0 l    d  .nipd	0000000000000000 .nipd
000000000000e0c0 l    d  .bss	0000000000000000 .bss
0000000000000000 l    d  .comment	0000000000000000 .comment
0000000000000000 l    d  .note.sgxmeta	0000000000000000 .note.sgxmeta
0000000000000000 l    d  .debug_aranges	0000000000000000 .debug_aranges
0000000000000000 l    d  .debug_info	0000000000000000 .debug_info
0000000000000000 l    d  .debug_abbrev	0000000000000000 .debug_abbrev
0000000000000000 l    d  .debug_line	0000000000000000 .debug_line
0000000000000000 l    d  .debug_str	0000000000000000 .debug_str
0000000000000000 l    d  .debug_loc	0000000000000000 .debug_loc
0000000000000000 l    df *ABS*	0000000000000000 encl.c
0000000000000000 l    df *ABS*	0000000000000000 trts.cpp
0000000000000000 l    df *ABS*	0000000000000000 se_string_init.c
0000000000000000 l    df *ABS*	0000000000000000 init_tcrypto_lib.cpp
0000000000000000 l    df *ABS*	0000000000000000 sgx_create_report.cpp
000000000000e540 l     O .bss	00000000000001b0 _ZZ15sgx_self_reportE7_report
0000000000000000 l    df *ABS*	0000000000000000 encl_t.c
0000000000001087 l     F .text	0000000000000033 sgx_ecall_get_a_adrs
00000000000010ba l     F .text	0000000000000032 sgx_ecall_inc_secret_maccess
00000000000010ec l     F .text	0000000000000032 sgx_ecall_inc_secret
0000000000000000 l    df *ABS*	0000000000000000 init_enclave.cpp
0000000000000000 l    df *ABS*	0000000000000000 init_optimized_lib.cpp
0000000000000000 l    df *ABS*	0000000000000000 trts_add_trim.cpp
00000000000015f0 l     F .text	00000000000000da _ZL19sgx_accept_backwardmmm
00000000000016d0 l     F .text	000000000000011c _ZL25check_dynamic_entry_rangePvmtmP24dynamic_flags_attributes.part.0
00000000000017f0 l     F .text	0000000000000247 _ZL19check_dynamic_rangePvmPmP24dynamic_flags_attributes
0000000000000000 l    df *ABS*	0000000000000000 trts_ecall.cpp
0000000000002230 l     F .text	00000000000000c7 _ZL11do_save_tcsPv
000000000000e0c8 l     O .bss	0000000000000008 _ZL12g_tcs_cookie
000000000000e0d0 l     O .bss	0000000000000008 _ZL10g_tcs_node
0000000000002300 l     F .text	00000000000000db _ZL18add_static_threadsPVK9_layout_tS1_m
00000000000023e0 l     F .text	0000000000000191 _ZL10trts_ecalljPv
000000000000e002 l     O .data	0000000000000001 _ZL16g_is_first_ecall
000000000000e0c4 l     O .bss	0000000000000004 _ZL10g_ife_lock
0000000000002580 l     F .text	0000000000000005 _Z30_random_stack_noinline_wrapperI9_status_tJjPvEJRiRS1_EET_PFS4_DpT0_EDpOT1_.isra.0.constprop.3
0000000000000000 l    df *ABS*	0000000000000000 trts_emodpr.cpp
0000000000000000 l    df *ABS*	0000000000000000 trts_nsp.cpp
0000000000000000 l    df *ABS*	0000000000000000 trts_ocall.cpp
0000000000000000 l    df *ABS*	0000000000000000 trts_trim.cpp
0000000000000000 l    df *ABS*	0000000000000000 trts_util.cpp
0000000000000000 l    df *ABS*	0000000000000000 trts_veh.cpp
000000000000e0e0 l     O .bss	0000000000000004 _ZL14g_handler_lock
000000000000e0e8 l     O .bss	0000000000000008 _ZL12g_first_node
000000000000e0d8 l     O .bss	0000000000000008 _ZL12g_veh_cookie
0000000000000000 l    df *ABS*	0000000000000000 trts_version.cpp
0000000000000000 l    df *ABS*	0000000000000000 trts_xsave.cpp
0000000000000000 l    df *ABS*	0000000000000000 xsave_gnu.S
0000000000000000 l    df *ABS*	0000000000000000 elf_parser.c
0000000000003820 l     F .text	0000000000000254 do_relocs
0000000000000000 l    df *ABS*	0000000000000000 global_init.c
000000000000e0f0 l     O .bss	0000000000000008 g_exit_function_cookie
000000000000e0f8 l     O .bss	0000000000000004 g_exit_function_lock
000000000000e100 l     O .bss	0000000000000008 g_exit_function
0000000000000000 l    df *ABS*	0000000000000000 metadata_sec.S
0000000000000000 l    df *ABS*	0000000000000000 tls_support.c
0000000000000000 l    df *ABS*	0000000000000000 trts_pic.S
0000000000000000 l    df *ABS*	0000000000000000 stack_chk.c
0000000000000000 l    df *ABS*	0000000000000000 malloc.c
0000000000004450 l     F .text	00000000000000e5 init_mparams
000000000000e510 l     O .bss	0000000000000004 malloc_global_mutex
000000000000e4e0 l     O .bss	0000000000000030 mparams
000000000000e120 l     O .bss	00000000000003a8 _gm_
0000000000004540 l     F .text	000000000000074c dispose_chunk
0000000000000000 l    df *ABS*	0000000000000000 memcpy.c
0000000000000000 l    df *ABS*	0000000000000000 memset.c
0000000000000000 l    df *ABS*	0000000000000000 memset_s.c
000000000000e038 l     O .data	0000000000000008 __memset_vp
0000000000000000 l    df *ABS*	0000000000000000 sbrk.c
000000000000ce50 l     O .data.rel.ro	0000000000000008 heap_base
000000000000ce48 l     O .data.rel.ro	0000000000000008 heap_size
000000000000ce38 l     O .data.rel.ro	0000000000000008 heap_min_size
000000000000ce40 l     O .data.rel.ro	0000000000000004 is_edmm_supported
000000000000e518 l     O .bss	0000000000000008 heap_used.2396
0000000000000000 l    df *ABS*	0000000000000000 spinlock.c
0000000000000000 l    df *ABS*	0000000000000000 tstdc_version.cpp
0000000000000000 l    df *ABS*	0000000000000000 _setjmp.S
0000000000007ea0 l       .text	0000000000000000 .crash
0000000000000000 l    df *ABS*	0000000000000000 sgx_rsrv_mem_init.cpp
0000000000000000 l    df *ABS*	0000000000000000 errno.c
0000000000000000 l    df *ABS*	0000000000000000 tcrypto_version.cpp
0000000000000000 l    df *ABS*	0000000000000000 sgx_common_init_ipp.cpp
0000000000000000 l    df *ABS*	0000000000000000 tservice_version.cpp
0000000000000000 l    df *ABS*	0000000000000000 
0000000000004420 l     F .text	0000000000000009 __stack_chk_fail_local
0000000000008a0b l     F .nipx	0000000000000000 get_stack_guard
0000000000008790 l     F .nipx	0000000000000017 sgx_is_enclave_crashed
0000000000003120 l     F .text	0000000000000044 feature_supported
0000000000007020 l     F .text	0000000000000065 dlcalloc
0000000000007da0 l     F .text	0000000000000003 sgx_init_string_lib
0000000000008cc7 l     F .nipx	0000000000000000 do_ereport
0000000000001040 l     F .text	000000000000000f tcrypto_access_version_dummy1
00000000000089a8 l     F .nipx	0000000000000000 __x86_indirect_thunk_rbp
0000000000008200 l     F .text	0000000000000184 sgx_create_report
0000000000002c60 l     F .text	0000000000000067 change_permissions_ocall
0000000000004430 l     F .text	0000000000000014 __intel_security_check_cookie
00000000000089ac l     F .nipx	0000000000000000 __x86_indirect_thunk_rdi
0000000000001290 l     F .text	000000000000004a sgx_is_within_enclave
000000000000ce20 l     O .data.rel.ro	0000000000000004 g_cpu_core_num
0000000000002e80 l     F .text	000000000000000c get_enclave_size
00000000000089ce l     F .nipx	0000000000000000 get_enclave_state
00000000000037f0 l     F .text	0000000000000021 get_xfeature_state
00000000000025e0 l     F .text	0000000000000002 _Z24_pthread_tls_destructorsv
000000000000ce18 l     O .data.rel.ro	0000000000000008 __stack_chk_guard
000000000000ce70 l     O .dynamic	0000000000000000 _DYNAMIC
0000000000007fa0 l     F .text	0000000000000005 __errno
0000000000003cf0 l     F .text	00000000000000d9 elf_get_init_array
00000000000089c3 l     F .nipx	0000000000000000 __x86_indirect_thunk_r15
00000000000025b0 l     F .text	0000000000000003 _Z22_pthread_tls_get_statev
000000000000e0a0 l     O .nipd	0000000000000004 g_enclave_state
0000000000001420 l     F .text	0000000000000050 sgx_ocfree
00000000000025d0 l     F .text	0000000000000002 _Z20_pthread_wakeup_joinPv
0000000000002fa0 l     F .text	0000000000000013 get_rsrv_base
0000000000007b80 l     F .text	0000000000000005 memcpy
000000000000ce24 l     O .data.rel.ro	0000000000000004 g_sdk_version
0000000000007fc0 l     F .text	0000000000000236 init_ipp_cpuid
0000000000007f50 l     F .text	0000000000000047 rsrv_mem_init
00000000000087b0 l     F .nipx	0000000000000196 enter_enclave
0000000000004c90 l     F .text	0000000000001a16 malloc
0000000000002de0 l     F .text	0000000000000053 trim_range_ocall
00000000000089c6 l     F .nipx	0000000000000000 get_enclave_base
0000000000003380 l     F .text	000000000000013f sgx_register_exception_handler
0000000000003eb0 l     F .text	000000000000026b change_protection
0000000000008390 l     F .text	0000000000000038 sgx_self_report
000000000000e030 l     O .data	0000000000000008 __dso_handle
0000000000002e90 l     F .text	000000000000001e get_enclave_end
0000000000008972 l     F .nipx	0000000000000000 save_xregs
0000000000003210 l     F .text	000000000000016b internal_handle_exception
00000000000089b7 l     F .nipx	0000000000000000 __x86_indirect_thunk_r11
00000000000089a0 l     F .nipx	0000000000000000 __x86_indirect_thunk_rax
00000000000089e5 l     F .nipx	0000000000000000 lock_enclave
0000000000008d30 l     F .nipx	0000000000000000 abort
0000000000002ed0 l     F .text	000000000000005a get_heap_size
0000000000007fb0 l     F .text	0000000000000005 sgx_init_crypto_lib
0000000000004410 l     F .text	0000000000000009 __stack_chk_fail
00000000000043f0 l     F .text	0000000000000013 __tls_get_addr
0000000000003100 l     F .text	0000000000000012 get_errno_addr
0000000000008d11 l     F .nipx	0000000000000000 do_rdrand
00000000000089a6 l     F .nipx	0000000000000000 __x86_indirect_thunk_rdx
000000000000ce60 l     O .data.rel.ro	0000000000000008 rsrv_mem_size
000000000000e0a4 l     O .nipd	0000000000000004 g_xsave_enabled
0000000000001c10 l     F .text	00000000000000da sgx_accept_forward
0000000000007020 l     F .text	0000000000000065 calloc
0000000000009000 l     O .rodata	0000000000000008 g_dyn_entry_table
0000000000001f00 l     F .text	000000000000007c apply_EPC_pages
0000000000002590 l     F .text	0000000000000003 _Z16_pthread_enabledv
0000000000003dd0 l     F .text	00000000000000d9 elf_get_uninit_array
0000000000007090 l     F .text	00000000000005eb dlrealloc
0000000000002b40 l     F .text	0000000000000111 trts_mprotect
0000000000001b90 l     F .text	0000000000000079 get_dynamic_stack_max_page
0000000000003030 l     F .text	000000000000005a get_rsrv_size
0000000000007be0 l     F .text	000000000000004f memset_s
0000000000002d00 l     F .text	000000000000004c update_ocall_lastsp
0000000000001a40 l     F .text	0000000000000067 _Z24get_dynamic_layout_by_idt
00000000000089c0 l     F .nipx	0000000000000000 __x86_indirect_thunk_r14
0000000000001030 l     F .text	000000000000000f tstdc_access_version_dummy1
0000000000002eb0 l     F .text	0000000000000013 get_heap_base
00000000000015d0 l     F .text	000000000000001a check_static_stack_canary
0000000000001ff0 l     F .text	000000000000022a do_add_thread
0000000000003170 l     F .text	0000000000000038 is_stack_addr
0000000000001cf0 l     F .text	00000000000000e3 _Z18accept_post_removePVK9_layout_tS1_m
00000000000089a2 l     F .nipx	0000000000000000 __x86_indirect_thunk_rbx
00000000000025a0 l     F .text	0000000000000002 _Z24_pthread_tls_store_state9_status_t
0000000000004260 l     F .text	00000000000000a2 init_global_object
0000000000004c90 l     F .text	0000000000001a16 dlmalloc
00000000000089bd l     F .nipx	0000000000000000 __x86_indirect_thunk_r13
0000000000007090 l     F .text	00000000000005eb realloc
0000000000004120 l     F .text	0000000000000127 __cxa_atexit
0000000000007e10 l     F .text	0000000000000009 sgx_spin_unlock
0000000000007a90 l     F .text	00000000000000f0 __memcpy
000000000000107f l     F .text	0000000000000008 ecall_get_a_adrs
0000000000002d50 l     F .text	0000000000000090 do_oret
000000000000cde0 l     O .data.rel.ro	0000000000000038 g_ecall_table
0000000000007c90 l     F .text	000000000000010f sbrk
0000000000002220 l     F .text	0000000000000003 _pthread_thread_run
000000000000ce68 l     O .data.rel.ro	0000000000000008 rsrv_mem_base
0000000000001ab0 l     F .text	000000000000005c is_dynamic_thread
0000000000007b85 l     F .text	0000000000000048 __memset
0000000000007bcd l     F .text	0000000000000005 memset
0000000000008cab l     F .nipx	0000000000000000 do_egetkey
00000000000089b4 l     F .nipx	0000000000000000 __x86_indirect_thunk_r10
0000000000001f80 l     F .text	0000000000000070 trim_EPC_pages
0000000000009740 l     O .niprod	0000000000000240 SYNTHETIC_STATE
0000000000009980 l       .eh_frame_hdr	0000000000000000 __GNU_EH_FRAME_HDR
000000000000ce30 l     O .data.rel.ro	0000000000000008 g_cpu_feature_indicator
000000000000899f l     F .nipx	0000000000000000 __x86_return_thunk
0000000000001de0 l     F .text	0000000000000115 apply_pages_within_exception
0000000000002f30 l     F .text	000000000000006c get_heap_min_size
0000000000003570 l     F .text	0000000000000278 trts_handle_exception
0000000000008b1c l     F .nipx	0000000000000000 do_ocall
00000000000034c0 l     F .text	00000000000000a1 sgx_unregister_exception_handler
0000000000001330 l     F .text	00000000000000ee sgx_ocalloc
0000000000007680 l     F .text	000000000000023c memalign
0000000000001020 l     F .text	000000000000000b trts_access_version_dummy1
0000000000003c50 l     F .text	000000000000009f elf_tls_info
0000000000008a01 l     F .nipx	0000000000000000 get_thread_data
0000000000002a50 l     F .text	00000000000000e7 do_uninit_enclave
0000000000002960 l     F .text	00000000000000e9 do_ecall_add_thread
0000000000004250 l     F .text	000000000000000e atexit
0000000000001050 l     F .text	000000000000000f tservice_access_version_dummy1
00000000000027c0 l     F .text	000000000000019d do_ecall
0000000000002e40 l     F .text	000000000000003e trim_range_commit_ocall
000000000000105f l     F .text	000000000000000b ecall_inc_secret
00000000000078c0 l     F .text	00000000000001c4 mallinfo
00000000000086a0 l     F .nipx	00000000000000ed do_init_enclave
00000000000089a4 l     F .nipx	0000000000000000 __x86_indirect_thunk_rcx
0000000000001b10 l     F .text	0000000000000077 is_dynamic_thread_exist
0000000000003a80 l     F .text	00000000000001cf relocate_enclave
00000000000089aa l     F .nipx	0000000000000000 __x86_indirect_thunk_rsi
00000000000089b1 l     F .nipx	0000000000000000 __x86_indirect_thunk_r9
000000000000e0c0 l     O .bss	0000000000000004 g_uninit_flag
00000000000078c0 l     F .text	00000000000001c4 dlmallinfo
0000000000007680 l     F .text	000000000000023c dlmemalign
00000000000031b0 l     F .text	000000000000002b is_valid_sp
0000000000008946 l     F .nipx	0000000000000000 restore_xregs
00000000000031e0 l     F .text	000000000000001e is_utility_thread
0000000000002cd0 l     F .text	0000000000000026 sgx_ocall
0000000000007db0 l     F .text	000000000000005c sgx_spin_lock
000000000000cfb0 l     O .got	0000000000000000 _GLOBAL_OFFSET_TABLE_
0000000000008c35 l     F .nipx	0000000000000000 __morestack
00000000000025c0 l     F .text	0000000000000002 _Z26_pthread_tls_store_contextPv
00000000000089db l     F .nipx	0000000000000000 set_enclave_state
0000000000003090 l     F .text	000000000000006c get_rsrv_min_size
00000000000089ba l     F .nipx	0000000000000000 __x86_indirect_thunk_r12
000000000000ce28 l     O .data.rel.ro	0000000000000004 EDMM_supported
000000000000106a l     F .text	0000000000000015 ecall_inc_secret_maccess
000000000000ce58 l     O .data.rel.ro	0000000000000008 rsrv_mem_min_size
0000000000001470 l     F .text	0000000000000152 sgx_read_rand
0000000000004310 l     F .text	00000000000000da uninit_global_object
0000000000002fc0 l     F .text	0000000000000066 get_rsrv_end
0000000000007c30 l     F .text	0000000000000055 heap_init
00000000000066b0 l     F .text	000000000000096f dlfree
00000000000012e0 l     F .text	0000000000000041 sgx_is_outside_enclave
00000000000025f0 l     F .text	00000000000001c2 do_init_thread
0000000000008d3f l     F .nipx	0000000000000000 continue_execution
00000000000089ae l     F .nipx	0000000000000000 __x86_indirect_thunk_r8
0000000000001120 l     F .text	0000000000000166 init_optimized_libs
0000000000003200 l     F .text	000000000000000c get_max_tcs_num
00000000000083d0 l     F .nipx	00000000000002c7 init_enclave
00000000000066b0 l     F .text	000000000000096f free
0000000000007ea2 g     F .text	0000000000000000 longjmp
0000000000007e19 g     F .text	0000000000000000 setjmp
0000000000000000 g       *ABS*	0000000000000000 __ImageBase
0000000000007ea2  w    F .text	0000000000000000 _longjmp
0000000000008a15 g     F .nipx	0000000000000000 enclave_entry
000000000000e528 g     O .bss	0000000000000008 g_peak_rsrv_mem_committed
000000000000ce18  w    O .data.rel.ro	0000000000000008 __intel_security_cookie
000000000000e040 g     O .data	000000000000001d sgx_tstdc_version
0000000000008cfc g     F .nipx	0000000000000000 do_emodpe
000000000000e060 g     O .data	000000000000001f sgx_tcrypto_version
0000000000008c44 g     F .nipx	0000000000000000 asm_oret
0000000000008ce2 g     F .nipx	0000000000000000 do_eaccept
0000000000000000  w      *UND*	0000000000000000 _Z9pcl_entryPvS_
000000000000e0a8 g       .bss	0000000000000000 __bss_start
00000000000090c0 g     O .niprod	0000000000000678 g_global_data
000000000000e0a8 g       .nipd	0000000000000000 _edata
000000000000e080 g     O .data	0000000000000020 sgx_tservice_version
000000000000e6f0 g       .bss	0000000000000000 _end
0000000000007fa0  w    F .text	0000000000000005 __errno_location
000000000000d000 g       .data	0000000000000000 a
0000000000007e19  w    F .text	0000000000000000 _setjmp
000000000000e010 g     O .data	000000000000001c sgx_trts_version
0000000000008cd8 g       .nipx	0000000000000000 Lereport_inst
000000000000e520 g     O .bss	0000000000000008 g_peak_heap_used
0000000000000000  w      *UND*	0000000000000000 ippcpSetCpuFeatures


