
encl.so:     file format elf64-x86-64


Disassembly of section .plt:

0000000000001000 <.plt>:
    1000:	ff 35 b2 0f 01 00    	pushq  0x10fb2(%rip)        # 11fb8 <_GLOBAL_OFFSET_TABLE_+0x8>
    1006:	ff 25 b4 0f 01 00    	jmpq   *0x10fb4(%rip)        # 11fc0 <_GLOBAL_OFFSET_TABLE_+0x10>
    100c:	0f 1f 40 00          	nopl   0x0(%rax)

Disassembly of section .plt.got:

0000000000001010 <_Z9pcl_entryPvS_@plt>:
    1010:	ff 25 ba 0f 01 00    	jmpq   *0x10fba(%rip)        # 11fd0 <_Z9pcl_entryPvS_>
    1016:	66 90                	xchg   %ax,%ax

0000000000001018 <ippcpSetCpuFeatures@plt>:
    1018:	ff 25 c2 0f 01 00    	jmpq   *0x10fc2(%rip)        # 11fe0 <ippcpSetCpuFeatures>
    101e:	66 90                	xchg   %ax,%ax

Disassembly of section .text:

0000000000002000 <trts_access_version_dummy1>:
    2000:	48 8d 05 09 00 01 00 	lea    0x10009(%rip),%rax        # 12010 <sgx_trts_version>
    2007:	c6 00 73             	movb   $0x73,(%rax)
    200a:	c3                   	retq   
    200b:	0f 1f 44 00 00       	nopl   0x0(%rax,%rax,1)

0000000000002010 <tstdc_access_version_dummy1>:
    2010:	c6 05 29 00 01 00 73 	movb   $0x73,0x10029(%rip)        # 12040 <sgx_tstdc_version>
    2017:	48 8d 05 22 00 01 00 	lea    0x10022(%rip),%rax        # 12040 <sgx_tstdc_version>
    201e:	c3                   	retq   
    201f:	90                   	nop

0000000000002020 <tcrypto_access_version_dummy1>:
    2020:	c6 05 39 00 01 00 73 	movb   $0x73,0x10039(%rip)        # 12060 <sgx_tcrypto_version>
    2027:	48 8d 05 32 00 01 00 	lea    0x10032(%rip),%rax        # 12060 <sgx_tcrypto_version>
    202e:	c3                   	retq   
    202f:	90                   	nop

0000000000002030 <tservice_access_version_dummy1>:
    2030:	c6 05 49 00 01 00 73 	movb   $0x73,0x10049(%rip)        # 12080 <sgx_tservice_version>
    2037:	48 8d 05 42 00 01 00 	lea    0x10042(%rip),%rax        # 12080 <sgx_tservice_version>
    203e:	c3                   	retq   

000000000000203f <modpow>:
    203f:	41 56                	push   %r14
    2041:	b8 01 00 00 00       	mov    $0x1,%eax
    2046:	41 55                	push   %r13
    2048:	49 89 f6             	mov    %rsi,%r14
    204b:	41 54                	push   %r12
    204d:	49 89 fd             	mov    %rdi,%r13
    2050:	55                   	push   %rbp
    2051:	49 89 d4             	mov    %rdx,%r12
    2054:	53                   	push   %rbx
    2055:	bd 00 80 ff ff       	mov    $0xffff8000,%ebp
    205a:	bb 10 00 00 00       	mov    $0x10,%ebx
    205f:	4c 89 e6             	mov    %r12,%rsi
    2062:	48 89 c7             	mov    %rax,%rdi
    2065:	e8 96 0f 00 00       	callq  3000 <square>
    206a:	0f b7 d5             	movzwl %bp,%edx
    206d:	4c 85 f2             	test   %r14,%rdx
    2070:	74 0e                	je     2080 <modpow+0x41>
    2072:	4c 89 e2             	mov    %r12,%rdx
    2075:	4c 89 ee             	mov    %r13,%rsi
    2078:	48 89 c7             	mov    %rax,%rdi
    207b:	e8 80 2f 00 00       	callq  5000 <multiply>
    2080:	66 d1 ed             	shr    %bp
    2083:	ff cb                	dec    %ebx
    2085:	75 d8                	jne    205f <modpow+0x20>
    2087:	5b                   	pop    %rbx
    2088:	5d                   	pop    %rbp
    2089:	41 5c                	pop    %r12
    208b:	41 5d                	pop    %r13
    208d:	41 5e                	pop    %r14
    208f:	c3                   	retq   

0000000000002090 <inverse>:
    2090:	89 f8                	mov    %edi,%eax
    2092:	b9 01 00 00 00       	mov    $0x1,%ecx
    2097:	89 f7                	mov    %esi,%edi
    2099:	45 31 c0             	xor    %r8d,%r8d
    209c:	85 ff                	test   %edi,%edi
    209e:	74 17                	je     20b7 <inverse+0x27>
    20a0:	99                   	cltd   
    20a1:	f7 ff                	idiv   %edi
    20a3:	41 0f af c0          	imul   %r8d,%eax
    20a7:	29 c1                	sub    %eax,%ecx
    20a9:	89 c8                	mov    %ecx,%eax
    20ab:	44 89 c1             	mov    %r8d,%ecx
    20ae:	41 89 c0             	mov    %eax,%r8d
    20b1:	89 f8                	mov    %edi,%eax
    20b3:	89 d7                	mov    %edx,%edi
    20b5:	eb e5                	jmp    209c <inverse+0xc>
    20b7:	85 c9                	test   %ecx,%ecx
    20b9:	79 02                	jns    20bd <inverse+0x2d>
    20bb:	01 f1                	add    %esi,%ecx
    20bd:	89 c8                	mov    %ecx,%eax
    20bf:	c3                   	retq   

00000000000020c0 <c_square>:
    20c0:	48 0f af ff          	imul   %rdi,%rdi
    20c4:	48 89 f8             	mov    %rdi,%rax
    20c7:	48 99                	cqto   
    20c9:	48 f7 fe             	idiv   %rsi
    20cc:	48 89 d0             	mov    %rdx,%rax
    20cf:	c3                   	retq   

00000000000020d0 <c_multiply>:
    20d0:	48 89 f8             	mov    %rdi,%rax
    20d3:	48 89 d1             	mov    %rdx,%rcx
    20d6:	48 0f af c6          	imul   %rsi,%rax
    20da:	48 99                	cqto   
    20dc:	48 f7 f9             	idiv   %rcx
    20df:	48 89 d0             	mov    %rdx,%rax
    20e2:	c3                   	retq   

00000000000020e3 <ecall_rsa_decode>:
    20e3:	53                   	push   %rbx
    20e4:	89 fb                	mov    %edi,%ebx
    20e6:	be 02 00 00 00       	mov    $0x2,%esi
    20eb:	48 83 ec 10          	sub    $0x10,%rsp
    20ef:	48 8d 7c 24 0c       	lea    0xc(%rsp),%rdi
    20f4:	c7 44 24 0c 00 00 00 	movl   $0x0,0xc(%rsp)
    20fb:	00 
    20fc:	e8 6f 43 00 00       	callq  6470 <sgx_read_rand>
    2101:	31 d2                	xor    %edx,%edx
    2103:	85 c0                	test   %eax,%eax
    2105:	75 55                	jne    215c <ecall_rsa_decode+0x79>
    2107:	48 63 15 fa fe 00 00 	movslq 0xfefa(%rip),%rdx        # 12008 <rsa_n>
    210e:	48 63 35 ef fe 00 00 	movslq 0xfeef(%rip),%rsi        # 12004 <rsa_e>
    2115:	48 63 7c 24 0c       	movslq 0xc(%rsp),%rdi
    211a:	e8 20 ff ff ff       	callq  203f <modpow>
    211f:	48 63 15 e2 fe 00 00 	movslq 0xfee2(%rip),%rdx        # 12008 <rsa_n>
    2126:	48 63 35 d3 fe 00 00 	movslq 0xfed3(%rip),%rsi        # 12000 <rsa_d>
    212d:	0f af c3             	imul   %ebx,%eax
    2130:	48 63 f8             	movslq %eax,%rdi
    2133:	e8 07 ff ff ff       	callq  203f <modpow>
    2138:	4c 63 0d c9 fe 00 00 	movslq 0xfec9(%rip),%r9        # 12008 <rsa_n>
    213f:	8b 7c 24 0c          	mov    0xc(%rsp),%edi
    2143:	41 89 c2             	mov    %eax,%r10d
    2146:	44 89 ce             	mov    %r9d,%esi
    2149:	e8 42 ff ff ff       	callq  2090 <inverse>
    214e:	49 63 d2             	movslq %r10d,%rdx
    2151:	48 98                	cltq   
    2153:	48 0f af c2          	imul   %rdx,%rax
    2157:	48 99                	cqto   
    2159:	49 f7 f9             	idiv   %r9
    215c:	48 83 c4 10          	add    $0x10,%rsp
    2160:	89 d0                	mov    %edx,%eax
    2162:	5b                   	pop    %rbx
    2163:	c3                   	retq   

0000000000002164 <ecall_rsa_encode>:
    2164:	48 63 15 9d fe 00 00 	movslq 0xfe9d(%rip),%rdx        # 12008 <rsa_n>
    216b:	48 63 35 92 fe 00 00 	movslq 0xfe92(%rip),%rsi        # 12004 <rsa_e>
    2172:	48 63 ff             	movslq %edi,%rdi
    2175:	e9 c5 fe ff ff       	jmpq   203f <modpow>

000000000000217a <ecall_get_square_adrs>:
    217a:	48 8d 05 7f 0e 00 00 	lea    0xe7f(%rip),%rax        # 3000 <square>
    2181:	c3                   	retq   

0000000000002182 <ecall_get_multiply_adrs>:
    2182:	48 8d 05 77 2e 00 00 	lea    0x2e77(%rip),%rax        # 5000 <multiply>
    2189:	c3                   	retq   

000000000000218a <ecall_get_modpow_adrs>:
    218a:	48 8d 05 ae fe ff ff 	lea    -0x152(%rip),%rax        # 203f <modpow>
    2191:	c3                   	retq   
    2192:	66 2e 0f 1f 84 00 00 	nopw   %cs:0x0(%rax,%rax,1)
    2199:	00 00 00 
    219c:	66 2e 0f 1f 84 00 00 	nopw   %cs:0x0(%rax,%rax,1)
    21a3:	00 00 00 
    21a6:	66 2e 0f 1f 84 00 00 	nopw   %cs:0x0(%rax,%rax,1)
    21ad:	00 00 00 
    21b0:	66 2e 0f 1f 84 00 00 	nopw   %cs:0x0(%rax,%rax,1)
    21b7:	00 00 00 
    21ba:	66 2e 0f 1f 84 00 00 	nopw   %cs:0x0(%rax,%rax,1)
    21c1:	00 00 00 
    21c4:	66 2e 0f 1f 84 00 00 	nopw   %cs:0x0(%rax,%rax,1)
    21cb:	00 00 00 
    21ce:	66 2e 0f 1f 84 00 00 	nopw   %cs:0x0(%rax,%rax,1)
    21d5:	00 00 00 
    21d8:	66 2e 0f 1f 84 00 00 	nopw   %cs:0x0(%rax,%rax,1)
    21df:	00 00 00 
    21e2:	66 2e 0f 1f 84 00 00 	nopw   %cs:0x0(%rax,%rax,1)
    21e9:	00 00 00 
    21ec:	66 2e 0f 1f 84 00 00 	nopw   %cs:0x0(%rax,%rax,1)
    21f3:	00 00 00 
    21f6:	66 2e 0f 1f 84 00 00 	nopw   %cs:0x0(%rax,%rax,1)
    21fd:	00 00 00 
    2200:	66 2e 0f 1f 84 00 00 	nopw   %cs:0x0(%rax,%rax,1)
    2207:	00 00 00 
    220a:	66 2e 0f 1f 84 00 00 	nopw   %cs:0x0(%rax,%rax,1)
    2211:	00 00 00 
    2214:	66 2e 0f 1f 84 00 00 	nopw   %cs:0x0(%rax,%rax,1)
    221b:	00 00 00 
    221e:	66 2e 0f 1f 84 00 00 	nopw   %cs:0x0(%rax,%rax,1)
    2225:	00 00 00 
    2228:	66 2e 0f 1f 84 00 00 	nopw   %cs:0x0(%rax,%rax,1)
    222f:	00 00 00 
    2232:	66 2e 0f 1f 84 00 00 	nopw   %cs:0x0(%rax,%rax,1)
    2239:	00 00 00 
    223c:	66 2e 0f 1f 84 00 00 	nopw   %cs:0x0(%rax,%rax,1)
    2243:	00 00 00 
    2246:	66 2e 0f 1f 84 00 00 	nopw   %cs:0x0(%rax,%rax,1)
    224d:	00 00 00 
    2250:	66 2e 0f 1f 84 00 00 	nopw   %cs:0x0(%rax,%rax,1)
    2257:	00 00 00 
    225a:	66 2e 0f 1f 84 00 00 	nopw   %cs:0x0(%rax,%rax,1)
    2261:	00 00 00 
    2264:	66 2e 0f 1f 84 00 00 	nopw   %cs:0x0(%rax,%rax,1)
    226b:	00 00 00 
    226e:	66 2e 0f 1f 84 00 00 	nopw   %cs:0x0(%rax,%rax,1)
    2275:	00 00 00 
    2278:	66 2e 0f 1f 84 00 00 	nopw   %cs:0x0(%rax,%rax,1)
    227f:	00 00 00 
    2282:	66 2e 0f 1f 84 00 00 	nopw   %cs:0x0(%rax,%rax,1)
    2289:	00 00 00 
    228c:	66 2e 0f 1f 84 00 00 	nopw   %cs:0x0(%rax,%rax,1)
    2293:	00 00 00 
    2296:	66 2e 0f 1f 84 00 00 	nopw   %cs:0x0(%rax,%rax,1)
    229d:	00 00 00 
    22a0:	66 2e 0f 1f 84 00 00 	nopw   %cs:0x0(%rax,%rax,1)
    22a7:	00 00 00 
    22aa:	66 2e 0f 1f 84 00 00 	nopw   %cs:0x0(%rax,%rax,1)
    22b1:	00 00 00 
    22b4:	66 2e 0f 1f 84 00 00 	nopw   %cs:0x0(%rax,%rax,1)
    22bb:	00 00 00 
    22be:	66 2e 0f 1f 84 00 00 	nopw   %cs:0x0(%rax,%rax,1)
    22c5:	00 00 00 
    22c8:	66 2e 0f 1f 84 00 00 	nopw   %cs:0x0(%rax,%rax,1)
    22cf:	00 00 00 
    22d2:	66 2e 0f 1f 84 00 00 	nopw   %cs:0x0(%rax,%rax,1)
    22d9:	00 00 00 
    22dc:	66 2e 0f 1f 84 00 00 	nopw   %cs:0x0(%rax,%rax,1)
    22e3:	00 00 00 
    22e6:	66 2e 0f 1f 84 00 00 	nopw   %cs:0x0(%rax,%rax,1)
    22ed:	00 00 00 
    22f0:	66 2e 0f 1f 84 00 00 	nopw   %cs:0x0(%rax,%rax,1)
    22f7:	00 00 00 
    22fa:	66 2e 0f 1f 84 00 00 	nopw   %cs:0x0(%rax,%rax,1)
    2301:	00 00 00 
    2304:	66 2e 0f 1f 84 00 00 	nopw   %cs:0x0(%rax,%rax,1)
    230b:	00 00 00 
    230e:	66 2e 0f 1f 84 00 00 	nopw   %cs:0x0(%rax,%rax,1)
    2315:	00 00 00 
    2318:	66 2e 0f 1f 84 00 00 	nopw   %cs:0x0(%rax,%rax,1)
    231f:	00 00 00 
    2322:	66 2e 0f 1f 84 00 00 	nopw   %cs:0x0(%rax,%rax,1)
    2329:	00 00 00 
    232c:	66 2e 0f 1f 84 00 00 	nopw   %cs:0x0(%rax,%rax,1)
    2333:	00 00 00 
    2336:	66 2e 0f 1f 84 00 00 	nopw   %cs:0x0(%rax,%rax,1)
    233d:	00 00 00 
    2340:	66 2e 0f 1f 84 00 00 	nopw   %cs:0x0(%rax,%rax,1)
    2347:	00 00 00 
    234a:	66 2e 0f 1f 84 00 00 	nopw   %cs:0x0(%rax,%rax,1)
    2351:	00 00 00 
    2354:	66 2e 0f 1f 84 00 00 	nopw   %cs:0x0(%rax,%rax,1)
    235b:	00 00 00 
    235e:	66 2e 0f 1f 84 00 00 	nopw   %cs:0x0(%rax,%rax,1)
    2365:	00 00 00 
    2368:	66 2e 0f 1f 84 00 00 	nopw   %cs:0x0(%rax,%rax,1)
    236f:	00 00 00 
    2372:	66 2e 0f 1f 84 00 00 	nopw   %cs:0x0(%rax,%rax,1)
    2379:	00 00 00 
    237c:	66 2e 0f 1f 84 00 00 	nopw   %cs:0x0(%rax,%rax,1)
    2383:	00 00 00 
    2386:	66 2e 0f 1f 84 00 00 	nopw   %cs:0x0(%rax,%rax,1)
    238d:	00 00 00 
    2390:	66 2e 0f 1f 84 00 00 	nopw   %cs:0x0(%rax,%rax,1)
    2397:	00 00 00 
    239a:	66 2e 0f 1f 84 00 00 	nopw   %cs:0x0(%rax,%rax,1)
    23a1:	00 00 00 
    23a4:	66 2e 0f 1f 84 00 00 	nopw   %cs:0x0(%rax,%rax,1)
    23ab:	00 00 00 
    23ae:	66 2e 0f 1f 84 00 00 	nopw   %cs:0x0(%rax,%rax,1)
    23b5:	00 00 00 
    23b8:	66 2e 0f 1f 84 00 00 	nopw   %cs:0x0(%rax,%rax,1)
    23bf:	00 00 00 
    23c2:	66 2e 0f 1f 84 00 00 	nopw   %cs:0x0(%rax,%rax,1)
    23c9:	00 00 00 
    23cc:	66 2e 0f 1f 84 00 00 	nopw   %cs:0x0(%rax,%rax,1)
    23d3:	00 00 00 
    23d6:	66 2e 0f 1f 84 00 00 	nopw   %cs:0x0(%rax,%rax,1)
    23dd:	00 00 00 
    23e0:	66 2e 0f 1f 84 00 00 	nopw   %cs:0x0(%rax,%rax,1)
    23e7:	00 00 00 
    23ea:	66 2e 0f 1f 84 00 00 	nopw   %cs:0x0(%rax,%rax,1)
    23f1:	00 00 00 
    23f4:	66 2e 0f 1f 84 00 00 	nopw   %cs:0x0(%rax,%rax,1)
    23fb:	00 00 00 
    23fe:	66 2e 0f 1f 84 00 00 	nopw   %cs:0x0(%rax,%rax,1)
    2405:	00 00 00 
    2408:	66 2e 0f 1f 84 00 00 	nopw   %cs:0x0(%rax,%rax,1)
    240f:	00 00 00 
    2412:	66 2e 0f 1f 84 00 00 	nopw   %cs:0x0(%rax,%rax,1)
    2419:	00 00 00 
    241c:	66 2e 0f 1f 84 00 00 	nopw   %cs:0x0(%rax,%rax,1)
    2423:	00 00 00 
    2426:	66 2e 0f 1f 84 00 00 	nopw   %cs:0x0(%rax,%rax,1)
    242d:	00 00 00 
    2430:	66 2e 0f 1f 84 00 00 	nopw   %cs:0x0(%rax,%rax,1)
    2437:	00 00 00 
    243a:	66 2e 0f 1f 84 00 00 	nopw   %cs:0x0(%rax,%rax,1)
    2441:	00 00 00 
    2444:	66 2e 0f 1f 84 00 00 	nopw   %cs:0x0(%rax,%rax,1)
    244b:	00 00 00 
    244e:	66 2e 0f 1f 84 00 00 	nopw   %cs:0x0(%rax,%rax,1)
    2455:	00 00 00 
    2458:	66 2e 0f 1f 84 00 00 	nopw   %cs:0x0(%rax,%rax,1)
    245f:	00 00 00 
    2462:	66 2e 0f 1f 84 00 00 	nopw   %cs:0x0(%rax,%rax,1)
    2469:	00 00 00 
    246c:	66 2e 0f 1f 84 00 00 	nopw   %cs:0x0(%rax,%rax,1)
    2473:	00 00 00 
    2476:	66 2e 0f 1f 84 00 00 	nopw   %cs:0x0(%rax,%rax,1)
    247d:	00 00 00 
    2480:	66 2e 0f 1f 84 00 00 	nopw   %cs:0x0(%rax,%rax,1)
    2487:	00 00 00 
    248a:	66 2e 0f 1f 84 00 00 	nopw   %cs:0x0(%rax,%rax,1)
    2491:	00 00 00 
    2494:	66 2e 0f 1f 84 00 00 	nopw   %cs:0x0(%rax,%rax,1)
    249b:	00 00 00 
    249e:	66 2e 0f 1f 84 00 00 	nopw   %cs:0x0(%rax,%rax,1)
    24a5:	00 00 00 
    24a8:	66 2e 0f 1f 84 00 00 	nopw   %cs:0x0(%rax,%rax,1)
    24af:	00 00 00 
    24b2:	66 2e 0f 1f 84 00 00 	nopw   %cs:0x0(%rax,%rax,1)
    24b9:	00 00 00 
    24bc:	66 2e 0f 1f 84 00 00 	nopw   %cs:0x0(%rax,%rax,1)
    24c3:	00 00 00 
    24c6:	66 2e 0f 1f 84 00 00 	nopw   %cs:0x0(%rax,%rax,1)
    24cd:	00 00 00 
    24d0:	66 2e 0f 1f 84 00 00 	nopw   %cs:0x0(%rax,%rax,1)
    24d7:	00 00 00 
    24da:	66 2e 0f 1f 84 00 00 	nopw   %cs:0x0(%rax,%rax,1)
    24e1:	00 00 00 
    24e4:	66 2e 0f 1f 84 00 00 	nopw   %cs:0x0(%rax,%rax,1)
    24eb:	00 00 00 
    24ee:	66 2e 0f 1f 84 00 00 	nopw   %cs:0x0(%rax,%rax,1)
    24f5:	00 00 00 
    24f8:	66 2e 0f 1f 84 00 00 	nopw   %cs:0x0(%rax,%rax,1)
    24ff:	00 00 00 
    2502:	66 2e 0f 1f 84 00 00 	nopw   %cs:0x0(%rax,%rax,1)
    2509:	00 00 00 
    250c:	66 2e 0f 1f 84 00 00 	nopw   %cs:0x0(%rax,%rax,1)
    2513:	00 00 00 
    2516:	66 2e 0f 1f 84 00 00 	nopw   %cs:0x0(%rax,%rax,1)
    251d:	00 00 00 
    2520:	66 2e 0f 1f 84 00 00 	nopw   %cs:0x0(%rax,%rax,1)
    2527:	00 00 00 
    252a:	66 2e 0f 1f 84 00 00 	nopw   %cs:0x0(%rax,%rax,1)
    2531:	00 00 00 
    2534:	66 2e 0f 1f 84 00 00 	nopw   %cs:0x0(%rax,%rax,1)
    253b:	00 00 00 
    253e:	66 2e 0f 1f 84 00 00 	nopw   %cs:0x0(%rax,%rax,1)
    2545:	00 00 00 
    2548:	66 2e 0f 1f 84 00 00 	nopw   %cs:0x0(%rax,%rax,1)
    254f:	00 00 00 
    2552:	66 2e 0f 1f 84 00 00 	nopw   %cs:0x0(%rax,%rax,1)
    2559:	00 00 00 
    255c:	66 2e 0f 1f 84 00 00 	nopw   %cs:0x0(%rax,%rax,1)
    2563:	00 00 00 
    2566:	66 2e 0f 1f 84 00 00 	nopw   %cs:0x0(%rax,%rax,1)
    256d:	00 00 00 
    2570:	66 2e 0f 1f 84 00 00 	nopw   %cs:0x0(%rax,%rax,1)
    2577:	00 00 00 
    257a:	66 2e 0f 1f 84 00 00 	nopw   %cs:0x0(%rax,%rax,1)
    2581:	00 00 00 
    2584:	66 2e 0f 1f 84 00 00 	nopw   %cs:0x0(%rax,%rax,1)
    258b:	00 00 00 
    258e:	66 2e 0f 1f 84 00 00 	nopw   %cs:0x0(%rax,%rax,1)
    2595:	00 00 00 
    2598:	66 2e 0f 1f 84 00 00 	nopw   %cs:0x0(%rax,%rax,1)
    259f:	00 00 00 
    25a2:	66 2e 0f 1f 84 00 00 	nopw   %cs:0x0(%rax,%rax,1)
    25a9:	00 00 00 
    25ac:	66 2e 0f 1f 84 00 00 	nopw   %cs:0x0(%rax,%rax,1)
    25b3:	00 00 00 
    25b6:	66 2e 0f 1f 84 00 00 	nopw   %cs:0x0(%rax,%rax,1)
    25bd:	00 00 00 
    25c0:	66 2e 0f 1f 84 00 00 	nopw   %cs:0x0(%rax,%rax,1)
    25c7:	00 00 00 
    25ca:	66 2e 0f 1f 84 00 00 	nopw   %cs:0x0(%rax,%rax,1)
    25d1:	00 00 00 
    25d4:	66 2e 0f 1f 84 00 00 	nopw   %cs:0x0(%rax,%rax,1)
    25db:	00 00 00 
    25de:	66 2e 0f 1f 84 00 00 	nopw   %cs:0x0(%rax,%rax,1)
    25e5:	00 00 00 
    25e8:	66 2e 0f 1f 84 00 00 	nopw   %cs:0x0(%rax,%rax,1)
    25ef:	00 00 00 
    25f2:	66 2e 0f 1f 84 00 00 	nopw   %cs:0x0(%rax,%rax,1)
    25f9:	00 00 00 
    25fc:	66 2e 0f 1f 84 00 00 	nopw   %cs:0x0(%rax,%rax,1)
    2603:	00 00 00 
    2606:	66 2e 0f 1f 84 00 00 	nopw   %cs:0x0(%rax,%rax,1)
    260d:	00 00 00 
    2610:	66 2e 0f 1f 84 00 00 	nopw   %cs:0x0(%rax,%rax,1)
    2617:	00 00 00 
    261a:	66 2e 0f 1f 84 00 00 	nopw   %cs:0x0(%rax,%rax,1)
    2621:	00 00 00 
    2624:	66 2e 0f 1f 84 00 00 	nopw   %cs:0x0(%rax,%rax,1)
    262b:	00 00 00 
    262e:	66 2e 0f 1f 84 00 00 	nopw   %cs:0x0(%rax,%rax,1)
    2635:	00 00 00 
    2638:	66 2e 0f 1f 84 00 00 	nopw   %cs:0x0(%rax,%rax,1)
    263f:	00 00 00 
    2642:	66 2e 0f 1f 84 00 00 	nopw   %cs:0x0(%rax,%rax,1)
    2649:	00 00 00 
    264c:	66 2e 0f 1f 84 00 00 	nopw   %cs:0x0(%rax,%rax,1)
    2653:	00 00 00 
    2656:	66 2e 0f 1f 84 00 00 	nopw   %cs:0x0(%rax,%rax,1)
    265d:	00 00 00 
    2660:	66 2e 0f 1f 84 00 00 	nopw   %cs:0x0(%rax,%rax,1)
    2667:	00 00 00 
    266a:	66 2e 0f 1f 84 00 00 	nopw   %cs:0x0(%rax,%rax,1)
    2671:	00 00 00 
    2674:	66 2e 0f 1f 84 00 00 	nopw   %cs:0x0(%rax,%rax,1)
    267b:	00 00 00 
    267e:	66 2e 0f 1f 84 00 00 	nopw   %cs:0x0(%rax,%rax,1)
    2685:	00 00 00 
    2688:	66 2e 0f 1f 84 00 00 	nopw   %cs:0x0(%rax,%rax,1)
    268f:	00 00 00 
    2692:	66 2e 0f 1f 84 00 00 	nopw   %cs:0x0(%rax,%rax,1)
    2699:	00 00 00 
    269c:	66 2e 0f 1f 84 00 00 	nopw   %cs:0x0(%rax,%rax,1)
    26a3:	00 00 00 
    26a6:	66 2e 0f 1f 84 00 00 	nopw   %cs:0x0(%rax,%rax,1)
    26ad:	00 00 00 
    26b0:	66 2e 0f 1f 84 00 00 	nopw   %cs:0x0(%rax,%rax,1)
    26b7:	00 00 00 
    26ba:	66 2e 0f 1f 84 00 00 	nopw   %cs:0x0(%rax,%rax,1)
    26c1:	00 00 00 
    26c4:	66 2e 0f 1f 84 00 00 	nopw   %cs:0x0(%rax,%rax,1)
    26cb:	00 00 00 
    26ce:	66 2e 0f 1f 84 00 00 	nopw   %cs:0x0(%rax,%rax,1)
    26d5:	00 00 00 
    26d8:	66 2e 0f 1f 84 00 00 	nopw   %cs:0x0(%rax,%rax,1)
    26df:	00 00 00 
    26e2:	66 2e 0f 1f 84 00 00 	nopw   %cs:0x0(%rax,%rax,1)
    26e9:	00 00 00 
    26ec:	66 2e 0f 1f 84 00 00 	nopw   %cs:0x0(%rax,%rax,1)
    26f3:	00 00 00 
    26f6:	66 2e 0f 1f 84 00 00 	nopw   %cs:0x0(%rax,%rax,1)
    26fd:	00 00 00 
    2700:	66 2e 0f 1f 84 00 00 	nopw   %cs:0x0(%rax,%rax,1)
    2707:	00 00 00 
    270a:	66 2e 0f 1f 84 00 00 	nopw   %cs:0x0(%rax,%rax,1)
    2711:	00 00 00 
    2714:	66 2e 0f 1f 84 00 00 	nopw   %cs:0x0(%rax,%rax,1)
    271b:	00 00 00 
    271e:	66 2e 0f 1f 84 00 00 	nopw   %cs:0x0(%rax,%rax,1)
    2725:	00 00 00 
    2728:	66 2e 0f 1f 84 00 00 	nopw   %cs:0x0(%rax,%rax,1)
    272f:	00 00 00 
    2732:	66 2e 0f 1f 84 00 00 	nopw   %cs:0x0(%rax,%rax,1)
    2739:	00 00 00 
    273c:	66 2e 0f 1f 84 00 00 	nopw   %cs:0x0(%rax,%rax,1)
    2743:	00 00 00 
    2746:	66 2e 0f 1f 84 00 00 	nopw   %cs:0x0(%rax,%rax,1)
    274d:	00 00 00 
    2750:	66 2e 0f 1f 84 00 00 	nopw   %cs:0x0(%rax,%rax,1)
    2757:	00 00 00 
    275a:	66 2e 0f 1f 84 00 00 	nopw   %cs:0x0(%rax,%rax,1)
    2761:	00 00 00 
    2764:	66 2e 0f 1f 84 00 00 	nopw   %cs:0x0(%rax,%rax,1)
    276b:	00 00 00 
    276e:	66 2e 0f 1f 84 00 00 	nopw   %cs:0x0(%rax,%rax,1)
    2775:	00 00 00 
    2778:	66 2e 0f 1f 84 00 00 	nopw   %cs:0x0(%rax,%rax,1)
    277f:	00 00 00 
    2782:	66 2e 0f 1f 84 00 00 	nopw   %cs:0x0(%rax,%rax,1)
    2789:	00 00 00 
    278c:	66 2e 0f 1f 84 00 00 	nopw   %cs:0x0(%rax,%rax,1)
    2793:	00 00 00 
    2796:	66 2e 0f 1f 84 00 00 	nopw   %cs:0x0(%rax,%rax,1)
    279d:	00 00 00 
    27a0:	66 2e 0f 1f 84 00 00 	nopw   %cs:0x0(%rax,%rax,1)
    27a7:	00 00 00 
    27aa:	66 2e 0f 1f 84 00 00 	nopw   %cs:0x0(%rax,%rax,1)
    27b1:	00 00 00 
    27b4:	66 2e 0f 1f 84 00 00 	nopw   %cs:0x0(%rax,%rax,1)
    27bb:	00 00 00 
    27be:	66 2e 0f 1f 84 00 00 	nopw   %cs:0x0(%rax,%rax,1)
    27c5:	00 00 00 
    27c8:	66 2e 0f 1f 84 00 00 	nopw   %cs:0x0(%rax,%rax,1)
    27cf:	00 00 00 
    27d2:	66 2e 0f 1f 84 00 00 	nopw   %cs:0x0(%rax,%rax,1)
    27d9:	00 00 00 
    27dc:	66 2e 0f 1f 84 00 00 	nopw   %cs:0x0(%rax,%rax,1)
    27e3:	00 00 00 
    27e6:	66 2e 0f 1f 84 00 00 	nopw   %cs:0x0(%rax,%rax,1)
    27ed:	00 00 00 
    27f0:	66 2e 0f 1f 84 00 00 	nopw   %cs:0x0(%rax,%rax,1)
    27f7:	00 00 00 
    27fa:	66 2e 0f 1f 84 00 00 	nopw   %cs:0x0(%rax,%rax,1)
    2801:	00 00 00 
    2804:	66 2e 0f 1f 84 00 00 	nopw   %cs:0x0(%rax,%rax,1)
    280b:	00 00 00 
    280e:	66 2e 0f 1f 84 00 00 	nopw   %cs:0x0(%rax,%rax,1)
    2815:	00 00 00 
    2818:	66 2e 0f 1f 84 00 00 	nopw   %cs:0x0(%rax,%rax,1)
    281f:	00 00 00 
    2822:	66 2e 0f 1f 84 00 00 	nopw   %cs:0x0(%rax,%rax,1)
    2829:	00 00 00 
    282c:	66 2e 0f 1f 84 00 00 	nopw   %cs:0x0(%rax,%rax,1)
    2833:	00 00 00 
    2836:	66 2e 0f 1f 84 00 00 	nopw   %cs:0x0(%rax,%rax,1)
    283d:	00 00 00 
    2840:	66 2e 0f 1f 84 00 00 	nopw   %cs:0x0(%rax,%rax,1)
    2847:	00 00 00 
    284a:	66 2e 0f 1f 84 00 00 	nopw   %cs:0x0(%rax,%rax,1)
    2851:	00 00 00 
    2854:	66 2e 0f 1f 84 00 00 	nopw   %cs:0x0(%rax,%rax,1)
    285b:	00 00 00 
    285e:	66 2e 0f 1f 84 00 00 	nopw   %cs:0x0(%rax,%rax,1)
    2865:	00 00 00 
    2868:	66 2e 0f 1f 84 00 00 	nopw   %cs:0x0(%rax,%rax,1)
    286f:	00 00 00 
    2872:	66 2e 0f 1f 84 00 00 	nopw   %cs:0x0(%rax,%rax,1)
    2879:	00 00 00 
    287c:	66 2e 0f 1f 84 00 00 	nopw   %cs:0x0(%rax,%rax,1)
    2883:	00 00 00 
    2886:	66 2e 0f 1f 84 00 00 	nopw   %cs:0x0(%rax,%rax,1)
    288d:	00 00 00 
    2890:	66 2e 0f 1f 84 00 00 	nopw   %cs:0x0(%rax,%rax,1)
    2897:	00 00 00 
    289a:	66 2e 0f 1f 84 00 00 	nopw   %cs:0x0(%rax,%rax,1)
    28a1:	00 00 00 
    28a4:	66 2e 0f 1f 84 00 00 	nopw   %cs:0x0(%rax,%rax,1)
    28ab:	00 00 00 
    28ae:	66 2e 0f 1f 84 00 00 	nopw   %cs:0x0(%rax,%rax,1)
    28b5:	00 00 00 
    28b8:	66 2e 0f 1f 84 00 00 	nopw   %cs:0x0(%rax,%rax,1)
    28bf:	00 00 00 
    28c2:	66 2e 0f 1f 84 00 00 	nopw   %cs:0x0(%rax,%rax,1)
    28c9:	00 00 00 
    28cc:	66 2e 0f 1f 84 00 00 	nopw   %cs:0x0(%rax,%rax,1)
    28d3:	00 00 00 
    28d6:	66 2e 0f 1f 84 00 00 	nopw   %cs:0x0(%rax,%rax,1)
    28dd:	00 00 00 
    28e0:	66 2e 0f 1f 84 00 00 	nopw   %cs:0x0(%rax,%rax,1)
    28e7:	00 00 00 
    28ea:	66 2e 0f 1f 84 00 00 	nopw   %cs:0x0(%rax,%rax,1)
    28f1:	00 00 00 
    28f4:	66 2e 0f 1f 84 00 00 	nopw   %cs:0x0(%rax,%rax,1)
    28fb:	00 00 00 
    28fe:	66 2e 0f 1f 84 00 00 	nopw   %cs:0x0(%rax,%rax,1)
    2905:	00 00 00 
    2908:	66 2e 0f 1f 84 00 00 	nopw   %cs:0x0(%rax,%rax,1)
    290f:	00 00 00 
    2912:	66 2e 0f 1f 84 00 00 	nopw   %cs:0x0(%rax,%rax,1)
    2919:	00 00 00 
    291c:	66 2e 0f 1f 84 00 00 	nopw   %cs:0x0(%rax,%rax,1)
    2923:	00 00 00 
    2926:	66 2e 0f 1f 84 00 00 	nopw   %cs:0x0(%rax,%rax,1)
    292d:	00 00 00 
    2930:	66 2e 0f 1f 84 00 00 	nopw   %cs:0x0(%rax,%rax,1)
    2937:	00 00 00 
    293a:	66 2e 0f 1f 84 00 00 	nopw   %cs:0x0(%rax,%rax,1)
    2941:	00 00 00 
    2944:	66 2e 0f 1f 84 00 00 	nopw   %cs:0x0(%rax,%rax,1)
    294b:	00 00 00 
    294e:	66 2e 0f 1f 84 00 00 	nopw   %cs:0x0(%rax,%rax,1)
    2955:	00 00 00 
    2958:	66 2e 0f 1f 84 00 00 	nopw   %cs:0x0(%rax,%rax,1)
    295f:	00 00 00 
    2962:	66 2e 0f 1f 84 00 00 	nopw   %cs:0x0(%rax,%rax,1)
    2969:	00 00 00 
    296c:	66 2e 0f 1f 84 00 00 	nopw   %cs:0x0(%rax,%rax,1)
    2973:	00 00 00 
    2976:	66 2e 0f 1f 84 00 00 	nopw   %cs:0x0(%rax,%rax,1)
    297d:	00 00 00 
    2980:	66 2e 0f 1f 84 00 00 	nopw   %cs:0x0(%rax,%rax,1)
    2987:	00 00 00 
    298a:	66 2e 0f 1f 84 00 00 	nopw   %cs:0x0(%rax,%rax,1)
    2991:	00 00 00 
    2994:	66 2e 0f 1f 84 00 00 	nopw   %cs:0x0(%rax,%rax,1)
    299b:	00 00 00 
    299e:	66 2e 0f 1f 84 00 00 	nopw   %cs:0x0(%rax,%rax,1)
    29a5:	00 00 00 
    29a8:	66 2e 0f 1f 84 00 00 	nopw   %cs:0x0(%rax,%rax,1)
    29af:	00 00 00 
    29b2:	66 2e 0f 1f 84 00 00 	nopw   %cs:0x0(%rax,%rax,1)
    29b9:	00 00 00 
    29bc:	66 2e 0f 1f 84 00 00 	nopw   %cs:0x0(%rax,%rax,1)
    29c3:	00 00 00 
    29c6:	66 2e 0f 1f 84 00 00 	nopw   %cs:0x0(%rax,%rax,1)
    29cd:	00 00 00 
    29d0:	66 2e 0f 1f 84 00 00 	nopw   %cs:0x0(%rax,%rax,1)
    29d7:	00 00 00 
    29da:	66 2e 0f 1f 84 00 00 	nopw   %cs:0x0(%rax,%rax,1)
    29e1:	00 00 00 
    29e4:	66 2e 0f 1f 84 00 00 	nopw   %cs:0x0(%rax,%rax,1)
    29eb:	00 00 00 
    29ee:	66 2e 0f 1f 84 00 00 	nopw   %cs:0x0(%rax,%rax,1)
    29f5:	00 00 00 
    29f8:	66 2e 0f 1f 84 00 00 	nopw   %cs:0x0(%rax,%rax,1)
    29ff:	00 00 00 
    2a02:	66 2e 0f 1f 84 00 00 	nopw   %cs:0x0(%rax,%rax,1)
    2a09:	00 00 00 
    2a0c:	66 2e 0f 1f 84 00 00 	nopw   %cs:0x0(%rax,%rax,1)
    2a13:	00 00 00 
    2a16:	66 2e 0f 1f 84 00 00 	nopw   %cs:0x0(%rax,%rax,1)
    2a1d:	00 00 00 
    2a20:	66 2e 0f 1f 84 00 00 	nopw   %cs:0x0(%rax,%rax,1)
    2a27:	00 00 00 
    2a2a:	66 2e 0f 1f 84 00 00 	nopw   %cs:0x0(%rax,%rax,1)
    2a31:	00 00 00 
    2a34:	66 2e 0f 1f 84 00 00 	nopw   %cs:0x0(%rax,%rax,1)
    2a3b:	00 00 00 
    2a3e:	66 2e 0f 1f 84 00 00 	nopw   %cs:0x0(%rax,%rax,1)
    2a45:	00 00 00 
    2a48:	66 2e 0f 1f 84 00 00 	nopw   %cs:0x0(%rax,%rax,1)
    2a4f:	00 00 00 
    2a52:	66 2e 0f 1f 84 00 00 	nopw   %cs:0x0(%rax,%rax,1)
    2a59:	00 00 00 
    2a5c:	66 2e 0f 1f 84 00 00 	nopw   %cs:0x0(%rax,%rax,1)
    2a63:	00 00 00 
    2a66:	66 2e 0f 1f 84 00 00 	nopw   %cs:0x0(%rax,%rax,1)
    2a6d:	00 00 00 
    2a70:	66 2e 0f 1f 84 00 00 	nopw   %cs:0x0(%rax,%rax,1)
    2a77:	00 00 00 
    2a7a:	66 2e 0f 1f 84 00 00 	nopw   %cs:0x0(%rax,%rax,1)
    2a81:	00 00 00 
    2a84:	66 2e 0f 1f 84 00 00 	nopw   %cs:0x0(%rax,%rax,1)
    2a8b:	00 00 00 
    2a8e:	66 2e 0f 1f 84 00 00 	nopw   %cs:0x0(%rax,%rax,1)
    2a95:	00 00 00 
    2a98:	66 2e 0f 1f 84 00 00 	nopw   %cs:0x0(%rax,%rax,1)
    2a9f:	00 00 00 
    2aa2:	66 2e 0f 1f 84 00 00 	nopw   %cs:0x0(%rax,%rax,1)
    2aa9:	00 00 00 
    2aac:	66 2e 0f 1f 84 00 00 	nopw   %cs:0x0(%rax,%rax,1)
    2ab3:	00 00 00 
    2ab6:	66 2e 0f 1f 84 00 00 	nopw   %cs:0x0(%rax,%rax,1)
    2abd:	00 00 00 
    2ac0:	66 2e 0f 1f 84 00 00 	nopw   %cs:0x0(%rax,%rax,1)
    2ac7:	00 00 00 
    2aca:	66 2e 0f 1f 84 00 00 	nopw   %cs:0x0(%rax,%rax,1)
    2ad1:	00 00 00 
    2ad4:	66 2e 0f 1f 84 00 00 	nopw   %cs:0x0(%rax,%rax,1)
    2adb:	00 00 00 
    2ade:	66 2e 0f 1f 84 00 00 	nopw   %cs:0x0(%rax,%rax,1)
    2ae5:	00 00 00 
    2ae8:	66 2e 0f 1f 84 00 00 	nopw   %cs:0x0(%rax,%rax,1)
    2aef:	00 00 00 
    2af2:	66 2e 0f 1f 84 00 00 	nopw   %cs:0x0(%rax,%rax,1)
    2af9:	00 00 00 
    2afc:	66 2e 0f 1f 84 00 00 	nopw   %cs:0x0(%rax,%rax,1)
    2b03:	00 00 00 
    2b06:	66 2e 0f 1f 84 00 00 	nopw   %cs:0x0(%rax,%rax,1)
    2b0d:	00 00 00 
    2b10:	66 2e 0f 1f 84 00 00 	nopw   %cs:0x0(%rax,%rax,1)
    2b17:	00 00 00 
    2b1a:	66 2e 0f 1f 84 00 00 	nopw   %cs:0x0(%rax,%rax,1)
    2b21:	00 00 00 
    2b24:	66 2e 0f 1f 84 00 00 	nopw   %cs:0x0(%rax,%rax,1)
    2b2b:	00 00 00 
    2b2e:	66 2e 0f 1f 84 00 00 	nopw   %cs:0x0(%rax,%rax,1)
    2b35:	00 00 00 
    2b38:	66 2e 0f 1f 84 00 00 	nopw   %cs:0x0(%rax,%rax,1)
    2b3f:	00 00 00 
    2b42:	66 2e 0f 1f 84 00 00 	nopw   %cs:0x0(%rax,%rax,1)
    2b49:	00 00 00 
    2b4c:	66 2e 0f 1f 84 00 00 	nopw   %cs:0x0(%rax,%rax,1)
    2b53:	00 00 00 
    2b56:	66 2e 0f 1f 84 00 00 	nopw   %cs:0x0(%rax,%rax,1)
    2b5d:	00 00 00 
    2b60:	66 2e 0f 1f 84 00 00 	nopw   %cs:0x0(%rax,%rax,1)
    2b67:	00 00 00 
    2b6a:	66 2e 0f 1f 84 00 00 	nopw   %cs:0x0(%rax,%rax,1)
    2b71:	00 00 00 
    2b74:	66 2e 0f 1f 84 00 00 	nopw   %cs:0x0(%rax,%rax,1)
    2b7b:	00 00 00 
    2b7e:	66 2e 0f 1f 84 00 00 	nopw   %cs:0x0(%rax,%rax,1)
    2b85:	00 00 00 
    2b88:	66 2e 0f 1f 84 00 00 	nopw   %cs:0x0(%rax,%rax,1)
    2b8f:	00 00 00 
    2b92:	66 2e 0f 1f 84 00 00 	nopw   %cs:0x0(%rax,%rax,1)
    2b99:	00 00 00 
    2b9c:	66 2e 0f 1f 84 00 00 	nopw   %cs:0x0(%rax,%rax,1)
    2ba3:	00 00 00 
    2ba6:	66 2e 0f 1f 84 00 00 	nopw   %cs:0x0(%rax,%rax,1)
    2bad:	00 00 00 
    2bb0:	66 2e 0f 1f 84 00 00 	nopw   %cs:0x0(%rax,%rax,1)
    2bb7:	00 00 00 
    2bba:	66 2e 0f 1f 84 00 00 	nopw   %cs:0x0(%rax,%rax,1)
    2bc1:	00 00 00 
    2bc4:	66 2e 0f 1f 84 00 00 	nopw   %cs:0x0(%rax,%rax,1)
    2bcb:	00 00 00 
    2bce:	66 2e 0f 1f 84 00 00 	nopw   %cs:0x0(%rax,%rax,1)
    2bd5:	00 00 00 
    2bd8:	66 2e 0f 1f 84 00 00 	nopw   %cs:0x0(%rax,%rax,1)
    2bdf:	00 00 00 
    2be2:	66 2e 0f 1f 84 00 00 	nopw   %cs:0x0(%rax,%rax,1)
    2be9:	00 00 00 
    2bec:	66 2e 0f 1f 84 00 00 	nopw   %cs:0x0(%rax,%rax,1)
    2bf3:	00 00 00 
    2bf6:	66 2e 0f 1f 84 00 00 	nopw   %cs:0x0(%rax,%rax,1)
    2bfd:	00 00 00 
    2c00:	66 2e 0f 1f 84 00 00 	nopw   %cs:0x0(%rax,%rax,1)
    2c07:	00 00 00 
    2c0a:	66 2e 0f 1f 84 00 00 	nopw   %cs:0x0(%rax,%rax,1)
    2c11:	00 00 00 
    2c14:	66 2e 0f 1f 84 00 00 	nopw   %cs:0x0(%rax,%rax,1)
    2c1b:	00 00 00 
    2c1e:	66 2e 0f 1f 84 00 00 	nopw   %cs:0x0(%rax,%rax,1)
    2c25:	00 00 00 
    2c28:	66 2e 0f 1f 84 00 00 	nopw   %cs:0x0(%rax,%rax,1)
    2c2f:	00 00 00 
    2c32:	66 2e 0f 1f 84 00 00 	nopw   %cs:0x0(%rax,%rax,1)
    2c39:	00 00 00 
    2c3c:	66 2e 0f 1f 84 00 00 	nopw   %cs:0x0(%rax,%rax,1)
    2c43:	00 00 00 
    2c46:	66 2e 0f 1f 84 00 00 	nopw   %cs:0x0(%rax,%rax,1)
    2c4d:	00 00 00 
    2c50:	66 2e 0f 1f 84 00 00 	nopw   %cs:0x0(%rax,%rax,1)
    2c57:	00 00 00 
    2c5a:	66 2e 0f 1f 84 00 00 	nopw   %cs:0x0(%rax,%rax,1)
    2c61:	00 00 00 
    2c64:	66 2e 0f 1f 84 00 00 	nopw   %cs:0x0(%rax,%rax,1)
    2c6b:	00 00 00 
    2c6e:	66 2e 0f 1f 84 00 00 	nopw   %cs:0x0(%rax,%rax,1)
    2c75:	00 00 00 
    2c78:	66 2e 0f 1f 84 00 00 	nopw   %cs:0x0(%rax,%rax,1)
    2c7f:	00 00 00 
    2c82:	66 2e 0f 1f 84 00 00 	nopw   %cs:0x0(%rax,%rax,1)
    2c89:	00 00 00 
    2c8c:	66 2e 0f 1f 84 00 00 	nopw   %cs:0x0(%rax,%rax,1)
    2c93:	00 00 00 
    2c96:	66 2e 0f 1f 84 00 00 	nopw   %cs:0x0(%rax,%rax,1)
    2c9d:	00 00 00 
    2ca0:	66 2e 0f 1f 84 00 00 	nopw   %cs:0x0(%rax,%rax,1)
    2ca7:	00 00 00 
    2caa:	66 2e 0f 1f 84 00 00 	nopw   %cs:0x0(%rax,%rax,1)
    2cb1:	00 00 00 
    2cb4:	66 2e 0f 1f 84 00 00 	nopw   %cs:0x0(%rax,%rax,1)
    2cbb:	00 00 00 
    2cbe:	66 2e 0f 1f 84 00 00 	nopw   %cs:0x0(%rax,%rax,1)
    2cc5:	00 00 00 
    2cc8:	66 2e 0f 1f 84 00 00 	nopw   %cs:0x0(%rax,%rax,1)
    2ccf:	00 00 00 
    2cd2:	66 2e 0f 1f 84 00 00 	nopw   %cs:0x0(%rax,%rax,1)
    2cd9:	00 00 00 
    2cdc:	66 2e 0f 1f 84 00 00 	nopw   %cs:0x0(%rax,%rax,1)
    2ce3:	00 00 00 
    2ce6:	66 2e 0f 1f 84 00 00 	nopw   %cs:0x0(%rax,%rax,1)
    2ced:	00 00 00 
    2cf0:	66 2e 0f 1f 84 00 00 	nopw   %cs:0x0(%rax,%rax,1)
    2cf7:	00 00 00 
    2cfa:	66 2e 0f 1f 84 00 00 	nopw   %cs:0x0(%rax,%rax,1)
    2d01:	00 00 00 
    2d04:	66 2e 0f 1f 84 00 00 	nopw   %cs:0x0(%rax,%rax,1)
    2d0b:	00 00 00 
    2d0e:	66 2e 0f 1f 84 00 00 	nopw   %cs:0x0(%rax,%rax,1)
    2d15:	00 00 00 
    2d18:	66 2e 0f 1f 84 00 00 	nopw   %cs:0x0(%rax,%rax,1)
    2d1f:	00 00 00 
    2d22:	66 2e 0f 1f 84 00 00 	nopw   %cs:0x0(%rax,%rax,1)
    2d29:	00 00 00 
    2d2c:	66 2e 0f 1f 84 00 00 	nopw   %cs:0x0(%rax,%rax,1)
    2d33:	00 00 00 
    2d36:	66 2e 0f 1f 84 00 00 	nopw   %cs:0x0(%rax,%rax,1)
    2d3d:	00 00 00 
    2d40:	66 2e 0f 1f 84 00 00 	nopw   %cs:0x0(%rax,%rax,1)
    2d47:	00 00 00 
    2d4a:	66 2e 0f 1f 84 00 00 	nopw   %cs:0x0(%rax,%rax,1)
    2d51:	00 00 00 
    2d54:	66 2e 0f 1f 84 00 00 	nopw   %cs:0x0(%rax,%rax,1)
    2d5b:	00 00 00 
    2d5e:	66 2e 0f 1f 84 00 00 	nopw   %cs:0x0(%rax,%rax,1)
    2d65:	00 00 00 
    2d68:	66 2e 0f 1f 84 00 00 	nopw   %cs:0x0(%rax,%rax,1)
    2d6f:	00 00 00 
    2d72:	66 2e 0f 1f 84 00 00 	nopw   %cs:0x0(%rax,%rax,1)
    2d79:	00 00 00 
    2d7c:	66 2e 0f 1f 84 00 00 	nopw   %cs:0x0(%rax,%rax,1)
    2d83:	00 00 00 
    2d86:	66 2e 0f 1f 84 00 00 	nopw   %cs:0x0(%rax,%rax,1)
    2d8d:	00 00 00 
    2d90:	66 2e 0f 1f 84 00 00 	nopw   %cs:0x0(%rax,%rax,1)
    2d97:	00 00 00 
    2d9a:	66 2e 0f 1f 84 00 00 	nopw   %cs:0x0(%rax,%rax,1)
    2da1:	00 00 00 
    2da4:	66 2e 0f 1f 84 00 00 	nopw   %cs:0x0(%rax,%rax,1)
    2dab:	00 00 00 
    2dae:	66 2e 0f 1f 84 00 00 	nopw   %cs:0x0(%rax,%rax,1)
    2db5:	00 00 00 
    2db8:	66 2e 0f 1f 84 00 00 	nopw   %cs:0x0(%rax,%rax,1)
    2dbf:	00 00 00 
    2dc2:	66 2e 0f 1f 84 00 00 	nopw   %cs:0x0(%rax,%rax,1)
    2dc9:	00 00 00 
    2dcc:	66 2e 0f 1f 84 00 00 	nopw   %cs:0x0(%rax,%rax,1)
    2dd3:	00 00 00 
    2dd6:	66 2e 0f 1f 84 00 00 	nopw   %cs:0x0(%rax,%rax,1)
    2ddd:	00 00 00 
    2de0:	66 2e 0f 1f 84 00 00 	nopw   %cs:0x0(%rax,%rax,1)
    2de7:	00 00 00 
    2dea:	66 2e 0f 1f 84 00 00 	nopw   %cs:0x0(%rax,%rax,1)
    2df1:	00 00 00 
    2df4:	66 2e 0f 1f 84 00 00 	nopw   %cs:0x0(%rax,%rax,1)
    2dfb:	00 00 00 
    2dfe:	66 2e 0f 1f 84 00 00 	nopw   %cs:0x0(%rax,%rax,1)
    2e05:	00 00 00 
    2e08:	66 2e 0f 1f 84 00 00 	nopw   %cs:0x0(%rax,%rax,1)
    2e0f:	00 00 00 
    2e12:	66 2e 0f 1f 84 00 00 	nopw   %cs:0x0(%rax,%rax,1)
    2e19:	00 00 00 
    2e1c:	66 2e 0f 1f 84 00 00 	nopw   %cs:0x0(%rax,%rax,1)
    2e23:	00 00 00 
    2e26:	66 2e 0f 1f 84 00 00 	nopw   %cs:0x0(%rax,%rax,1)
    2e2d:	00 00 00 
    2e30:	66 2e 0f 1f 84 00 00 	nopw   %cs:0x0(%rax,%rax,1)
    2e37:	00 00 00 
    2e3a:	66 2e 0f 1f 84 00 00 	nopw   %cs:0x0(%rax,%rax,1)
    2e41:	00 00 00 
    2e44:	66 2e 0f 1f 84 00 00 	nopw   %cs:0x0(%rax,%rax,1)
    2e4b:	00 00 00 
    2e4e:	66 2e 0f 1f 84 00 00 	nopw   %cs:0x0(%rax,%rax,1)
    2e55:	00 00 00 
    2e58:	66 2e 0f 1f 84 00 00 	nopw   %cs:0x0(%rax,%rax,1)
    2e5f:	00 00 00 
    2e62:	66 2e 0f 1f 84 00 00 	nopw   %cs:0x0(%rax,%rax,1)
    2e69:	00 00 00 
    2e6c:	66 2e 0f 1f 84 00 00 	nopw   %cs:0x0(%rax,%rax,1)
    2e73:	00 00 00 
    2e76:	66 2e 0f 1f 84 00 00 	nopw   %cs:0x0(%rax,%rax,1)
    2e7d:	00 00 00 
    2e80:	66 2e 0f 1f 84 00 00 	nopw   %cs:0x0(%rax,%rax,1)
    2e87:	00 00 00 
    2e8a:	66 2e 0f 1f 84 00 00 	nopw   %cs:0x0(%rax,%rax,1)
    2e91:	00 00 00 
    2e94:	66 2e 0f 1f 84 00 00 	nopw   %cs:0x0(%rax,%rax,1)
    2e9b:	00 00 00 
    2e9e:	66 2e 0f 1f 84 00 00 	nopw   %cs:0x0(%rax,%rax,1)
    2ea5:	00 00 00 
    2ea8:	66 2e 0f 1f 84 00 00 	nopw   %cs:0x0(%rax,%rax,1)
    2eaf:	00 00 00 
    2eb2:	66 2e 0f 1f 84 00 00 	nopw   %cs:0x0(%rax,%rax,1)
    2eb9:	00 00 00 
    2ebc:	66 2e 0f 1f 84 00 00 	nopw   %cs:0x0(%rax,%rax,1)
    2ec3:	00 00 00 
    2ec6:	66 2e 0f 1f 84 00 00 	nopw   %cs:0x0(%rax,%rax,1)
    2ecd:	00 00 00 
    2ed0:	66 2e 0f 1f 84 00 00 	nopw   %cs:0x0(%rax,%rax,1)
    2ed7:	00 00 00 
    2eda:	66 2e 0f 1f 84 00 00 	nopw   %cs:0x0(%rax,%rax,1)
    2ee1:	00 00 00 
    2ee4:	66 2e 0f 1f 84 00 00 	nopw   %cs:0x0(%rax,%rax,1)
    2eeb:	00 00 00 
    2eee:	66 2e 0f 1f 84 00 00 	nopw   %cs:0x0(%rax,%rax,1)
    2ef5:	00 00 00 
    2ef8:	66 2e 0f 1f 84 00 00 	nopw   %cs:0x0(%rax,%rax,1)
    2eff:	00 00 00 
    2f02:	66 2e 0f 1f 84 00 00 	nopw   %cs:0x0(%rax,%rax,1)
    2f09:	00 00 00 
    2f0c:	66 2e 0f 1f 84 00 00 	nopw   %cs:0x0(%rax,%rax,1)
    2f13:	00 00 00 
    2f16:	66 2e 0f 1f 84 00 00 	nopw   %cs:0x0(%rax,%rax,1)
    2f1d:	00 00 00 
    2f20:	66 2e 0f 1f 84 00 00 	nopw   %cs:0x0(%rax,%rax,1)
    2f27:	00 00 00 
    2f2a:	66 2e 0f 1f 84 00 00 	nopw   %cs:0x0(%rax,%rax,1)
    2f31:	00 00 00 
    2f34:	66 2e 0f 1f 84 00 00 	nopw   %cs:0x0(%rax,%rax,1)
    2f3b:	00 00 00 
    2f3e:	66 2e 0f 1f 84 00 00 	nopw   %cs:0x0(%rax,%rax,1)
    2f45:	00 00 00 
    2f48:	66 2e 0f 1f 84 00 00 	nopw   %cs:0x0(%rax,%rax,1)
    2f4f:	00 00 00 
    2f52:	66 2e 0f 1f 84 00 00 	nopw   %cs:0x0(%rax,%rax,1)
    2f59:	00 00 00 
    2f5c:	66 2e 0f 1f 84 00 00 	nopw   %cs:0x0(%rax,%rax,1)
    2f63:	00 00 00 
    2f66:	66 2e 0f 1f 84 00 00 	nopw   %cs:0x0(%rax,%rax,1)
    2f6d:	00 00 00 
    2f70:	66 2e 0f 1f 84 00 00 	nopw   %cs:0x0(%rax,%rax,1)
    2f77:	00 00 00 
    2f7a:	66 2e 0f 1f 84 00 00 	nopw   %cs:0x0(%rax,%rax,1)
    2f81:	00 00 00 
    2f84:	66 2e 0f 1f 84 00 00 	nopw   %cs:0x0(%rax,%rax,1)
    2f8b:	00 00 00 
    2f8e:	66 2e 0f 1f 84 00 00 	nopw   %cs:0x0(%rax,%rax,1)
    2f95:	00 00 00 
    2f98:	66 2e 0f 1f 84 00 00 	nopw   %cs:0x0(%rax,%rax,1)
    2f9f:	00 00 00 
    2fa2:	66 2e 0f 1f 84 00 00 	nopw   %cs:0x0(%rax,%rax,1)
    2fa9:	00 00 00 
    2fac:	66 2e 0f 1f 84 00 00 	nopw   %cs:0x0(%rax,%rax,1)
    2fb3:	00 00 00 
    2fb6:	66 2e 0f 1f 84 00 00 	nopw   %cs:0x0(%rax,%rax,1)
    2fbd:	00 00 00 
    2fc0:	66 2e 0f 1f 84 00 00 	nopw   %cs:0x0(%rax,%rax,1)
    2fc7:	00 00 00 
    2fca:	66 2e 0f 1f 84 00 00 	nopw   %cs:0x0(%rax,%rax,1)
    2fd1:	00 00 00 
    2fd4:	66 2e 0f 1f 84 00 00 	nopw   %cs:0x0(%rax,%rax,1)
    2fdb:	00 00 00 
    2fde:	66 2e 0f 1f 84 00 00 	nopw   %cs:0x0(%rax,%rax,1)
    2fe5:	00 00 00 
    2fe8:	66 2e 0f 1f 84 00 00 	nopw   %cs:0x0(%rax,%rax,1)
    2fef:	00 00 00 
    2ff2:	66 2e 0f 1f 84 00 00 	nopw   %cs:0x0(%rax,%rax,1)
    2ff9:	00 00 00 
    2ffc:	0f 1f 40 00          	nopl   0x0(%rax)

0000000000003000 <square>:
    3000:	48 89 f8             	mov    %rdi,%rax
    3003:	31 d2                	xor    %edx,%edx
    3005:	48 0f af c7          	imul   %rdi,%rax
    3009:	48 f7 f6             	div    %rsi
    300c:	48 89 d0             	mov    %rdx,%rax
    300f:	c3                   	retq   
	...
    4010:	e9 eb 0f 00 00       	jmpq   5000 <multiply>
    4015:	66 66 2e 0f 1f 84 00 	data16 nopw %cs:0x0(%rax,%rax,1)
    401c:	00 00 00 00 
    4020:	66 66 2e 0f 1f 84 00 	data16 nopw %cs:0x0(%rax,%rax,1)
    4027:	00 00 00 00 
    402b:	66 66 2e 0f 1f 84 00 	data16 nopw %cs:0x0(%rax,%rax,1)
    4032:	00 00 00 00 
    4036:	66 66 2e 0f 1f 84 00 	data16 nopw %cs:0x0(%rax,%rax,1)
    403d:	00 00 00 00 
    4041:	66 66 2e 0f 1f 84 00 	data16 nopw %cs:0x0(%rax,%rax,1)
    4048:	00 00 00 00 
    404c:	66 66 2e 0f 1f 84 00 	data16 nopw %cs:0x0(%rax,%rax,1)
    4053:	00 00 00 00 
    4057:	66 66 2e 0f 1f 84 00 	data16 nopw %cs:0x0(%rax,%rax,1)
    405e:	00 00 00 00 
    4062:	66 66 2e 0f 1f 84 00 	data16 nopw %cs:0x0(%rax,%rax,1)
    4069:	00 00 00 00 
    406d:	66 66 2e 0f 1f 84 00 	data16 nopw %cs:0x0(%rax,%rax,1)
    4074:	00 00 00 00 
    4078:	66 66 2e 0f 1f 84 00 	data16 nopw %cs:0x0(%rax,%rax,1)
    407f:	00 00 00 00 
    4083:	66 66 2e 0f 1f 84 00 	data16 nopw %cs:0x0(%rax,%rax,1)
    408a:	00 00 00 00 
    408e:	66 66 2e 0f 1f 84 00 	data16 nopw %cs:0x0(%rax,%rax,1)
    4095:	00 00 00 00 
    4099:	66 66 2e 0f 1f 84 00 	data16 nopw %cs:0x0(%rax,%rax,1)
    40a0:	00 00 00 00 
    40a4:	66 66 2e 0f 1f 84 00 	data16 nopw %cs:0x0(%rax,%rax,1)
    40ab:	00 00 00 00 
    40af:	66 66 2e 0f 1f 84 00 	data16 nopw %cs:0x0(%rax,%rax,1)
    40b6:	00 00 00 00 
    40ba:	66 66 2e 0f 1f 84 00 	data16 nopw %cs:0x0(%rax,%rax,1)
    40c1:	00 00 00 00 
    40c5:	66 66 2e 0f 1f 84 00 	data16 nopw %cs:0x0(%rax,%rax,1)
    40cc:	00 00 00 00 
    40d0:	66 66 2e 0f 1f 84 00 	data16 nopw %cs:0x0(%rax,%rax,1)
    40d7:	00 00 00 00 
    40db:	66 66 2e 0f 1f 84 00 	data16 nopw %cs:0x0(%rax,%rax,1)
    40e2:	00 00 00 00 
    40e6:	66 66 2e 0f 1f 84 00 	data16 nopw %cs:0x0(%rax,%rax,1)
    40ed:	00 00 00 00 
    40f1:	66 66 2e 0f 1f 84 00 	data16 nopw %cs:0x0(%rax,%rax,1)
    40f8:	00 00 00 00 
    40fc:	66 66 2e 0f 1f 84 00 	data16 nopw %cs:0x0(%rax,%rax,1)
    4103:	00 00 00 00 
    4107:	66 66 2e 0f 1f 84 00 	data16 nopw %cs:0x0(%rax,%rax,1)
    410e:	00 00 00 00 
    4112:	66 66 2e 0f 1f 84 00 	data16 nopw %cs:0x0(%rax,%rax,1)
    4119:	00 00 00 00 
    411d:	66 66 2e 0f 1f 84 00 	data16 nopw %cs:0x0(%rax,%rax,1)
    4124:	00 00 00 00 
    4128:	66 66 2e 0f 1f 84 00 	data16 nopw %cs:0x0(%rax,%rax,1)
    412f:	00 00 00 00 
    4133:	66 66 2e 0f 1f 84 00 	data16 nopw %cs:0x0(%rax,%rax,1)
    413a:	00 00 00 00 
    413e:	66 66 2e 0f 1f 84 00 	data16 nopw %cs:0x0(%rax,%rax,1)
    4145:	00 00 00 00 
    4149:	66 66 2e 0f 1f 84 00 	data16 nopw %cs:0x0(%rax,%rax,1)
    4150:	00 00 00 00 
    4154:	66 66 2e 0f 1f 84 00 	data16 nopw %cs:0x0(%rax,%rax,1)
    415b:	00 00 00 00 
    415f:	66 66 2e 0f 1f 84 00 	data16 nopw %cs:0x0(%rax,%rax,1)
    4166:	00 00 00 00 
    416a:	66 66 2e 0f 1f 84 00 	data16 nopw %cs:0x0(%rax,%rax,1)
    4171:	00 00 00 00 
    4175:	66 66 2e 0f 1f 84 00 	data16 nopw %cs:0x0(%rax,%rax,1)
    417c:	00 00 00 00 
    4180:	66 66 2e 0f 1f 84 00 	data16 nopw %cs:0x0(%rax,%rax,1)
    4187:	00 00 00 00 
    418b:	66 66 2e 0f 1f 84 00 	data16 nopw %cs:0x0(%rax,%rax,1)
    4192:	00 00 00 00 
    4196:	66 66 2e 0f 1f 84 00 	data16 nopw %cs:0x0(%rax,%rax,1)
    419d:	00 00 00 00 
    41a1:	66 66 2e 0f 1f 84 00 	data16 nopw %cs:0x0(%rax,%rax,1)
    41a8:	00 00 00 00 
    41ac:	66 66 2e 0f 1f 84 00 	data16 nopw %cs:0x0(%rax,%rax,1)
    41b3:	00 00 00 00 
    41b7:	66 66 2e 0f 1f 84 00 	data16 nopw %cs:0x0(%rax,%rax,1)
    41be:	00 00 00 00 
    41c2:	66 66 2e 0f 1f 84 00 	data16 nopw %cs:0x0(%rax,%rax,1)
    41c9:	00 00 00 00 
    41cd:	66 66 2e 0f 1f 84 00 	data16 nopw %cs:0x0(%rax,%rax,1)
    41d4:	00 00 00 00 
    41d8:	66 66 2e 0f 1f 84 00 	data16 nopw %cs:0x0(%rax,%rax,1)
    41df:	00 00 00 00 
    41e3:	66 66 2e 0f 1f 84 00 	data16 nopw %cs:0x0(%rax,%rax,1)
    41ea:	00 00 00 00 
    41ee:	66 66 2e 0f 1f 84 00 	data16 nopw %cs:0x0(%rax,%rax,1)
    41f5:	00 00 00 00 
    41f9:	66 66 2e 0f 1f 84 00 	data16 nopw %cs:0x0(%rax,%rax,1)
    4200:	00 00 00 00 
    4204:	66 66 2e 0f 1f 84 00 	data16 nopw %cs:0x0(%rax,%rax,1)
    420b:	00 00 00 00 
    420f:	66 66 2e 0f 1f 84 00 	data16 nopw %cs:0x0(%rax,%rax,1)
    4216:	00 00 00 00 
    421a:	66 66 2e 0f 1f 84 00 	data16 nopw %cs:0x0(%rax,%rax,1)
    4221:	00 00 00 00 
    4225:	66 66 2e 0f 1f 84 00 	data16 nopw %cs:0x0(%rax,%rax,1)
    422c:	00 00 00 00 
    4230:	66 66 2e 0f 1f 84 00 	data16 nopw %cs:0x0(%rax,%rax,1)
    4237:	00 00 00 00 
    423b:	66 66 2e 0f 1f 84 00 	data16 nopw %cs:0x0(%rax,%rax,1)
    4242:	00 00 00 00 
    4246:	66 66 2e 0f 1f 84 00 	data16 nopw %cs:0x0(%rax,%rax,1)
    424d:	00 00 00 00 
    4251:	66 66 2e 0f 1f 84 00 	data16 nopw %cs:0x0(%rax,%rax,1)
    4258:	00 00 00 00 
    425c:	66 66 2e 0f 1f 84 00 	data16 nopw %cs:0x0(%rax,%rax,1)
    4263:	00 00 00 00 
    4267:	66 66 2e 0f 1f 84 00 	data16 nopw %cs:0x0(%rax,%rax,1)
    426e:	00 00 00 00 
    4272:	66 66 2e 0f 1f 84 00 	data16 nopw %cs:0x0(%rax,%rax,1)
    4279:	00 00 00 00 
    427d:	66 66 2e 0f 1f 84 00 	data16 nopw %cs:0x0(%rax,%rax,1)
    4284:	00 00 00 00 
    4288:	66 66 2e 0f 1f 84 00 	data16 nopw %cs:0x0(%rax,%rax,1)
    428f:	00 00 00 00 
    4293:	66 66 2e 0f 1f 84 00 	data16 nopw %cs:0x0(%rax,%rax,1)
    429a:	00 00 00 00 
    429e:	66 66 2e 0f 1f 84 00 	data16 nopw %cs:0x0(%rax,%rax,1)
    42a5:	00 00 00 00 
    42a9:	66 66 2e 0f 1f 84 00 	data16 nopw %cs:0x0(%rax,%rax,1)
    42b0:	00 00 00 00 
    42b4:	66 66 2e 0f 1f 84 00 	data16 nopw %cs:0x0(%rax,%rax,1)
    42bb:	00 00 00 00 
    42bf:	66 66 2e 0f 1f 84 00 	data16 nopw %cs:0x0(%rax,%rax,1)
    42c6:	00 00 00 00 
    42ca:	66 66 2e 0f 1f 84 00 	data16 nopw %cs:0x0(%rax,%rax,1)
    42d1:	00 00 00 00 
    42d5:	66 66 2e 0f 1f 84 00 	data16 nopw %cs:0x0(%rax,%rax,1)
    42dc:	00 00 00 00 
    42e0:	66 66 2e 0f 1f 84 00 	data16 nopw %cs:0x0(%rax,%rax,1)
    42e7:	00 00 00 00 
    42eb:	66 66 2e 0f 1f 84 00 	data16 nopw %cs:0x0(%rax,%rax,1)
    42f2:	00 00 00 00 
    42f6:	66 66 2e 0f 1f 84 00 	data16 nopw %cs:0x0(%rax,%rax,1)
    42fd:	00 00 00 00 
    4301:	66 66 2e 0f 1f 84 00 	data16 nopw %cs:0x0(%rax,%rax,1)
    4308:	00 00 00 00 
    430c:	66 66 2e 0f 1f 84 00 	data16 nopw %cs:0x0(%rax,%rax,1)
    4313:	00 00 00 00 
    4317:	66 66 2e 0f 1f 84 00 	data16 nopw %cs:0x0(%rax,%rax,1)
    431e:	00 00 00 00 
    4322:	66 66 2e 0f 1f 84 00 	data16 nopw %cs:0x0(%rax,%rax,1)
    4329:	00 00 00 00 
    432d:	66 66 2e 0f 1f 84 00 	data16 nopw %cs:0x0(%rax,%rax,1)
    4334:	00 00 00 00 
    4338:	66 66 2e 0f 1f 84 00 	data16 nopw %cs:0x0(%rax,%rax,1)
    433f:	00 00 00 00 
    4343:	66 66 2e 0f 1f 84 00 	data16 nopw %cs:0x0(%rax,%rax,1)
    434a:	00 00 00 00 
    434e:	66 66 2e 0f 1f 84 00 	data16 nopw %cs:0x0(%rax,%rax,1)
    4355:	00 00 00 00 
    4359:	66 66 2e 0f 1f 84 00 	data16 nopw %cs:0x0(%rax,%rax,1)
    4360:	00 00 00 00 
    4364:	66 66 2e 0f 1f 84 00 	data16 nopw %cs:0x0(%rax,%rax,1)
    436b:	00 00 00 00 
    436f:	66 66 2e 0f 1f 84 00 	data16 nopw %cs:0x0(%rax,%rax,1)
    4376:	00 00 00 00 
    437a:	66 66 2e 0f 1f 84 00 	data16 nopw %cs:0x0(%rax,%rax,1)
    4381:	00 00 00 00 
    4385:	66 66 2e 0f 1f 84 00 	data16 nopw %cs:0x0(%rax,%rax,1)
    438c:	00 00 00 00 
    4390:	66 66 2e 0f 1f 84 00 	data16 nopw %cs:0x0(%rax,%rax,1)
    4397:	00 00 00 00 
    439b:	66 66 2e 0f 1f 84 00 	data16 nopw %cs:0x0(%rax,%rax,1)
    43a2:	00 00 00 00 
    43a6:	66 66 2e 0f 1f 84 00 	data16 nopw %cs:0x0(%rax,%rax,1)
    43ad:	00 00 00 00 
    43b1:	66 66 2e 0f 1f 84 00 	data16 nopw %cs:0x0(%rax,%rax,1)
    43b8:	00 00 00 00 
    43bc:	66 66 2e 0f 1f 84 00 	data16 nopw %cs:0x0(%rax,%rax,1)
    43c3:	00 00 00 00 
    43c7:	66 66 2e 0f 1f 84 00 	data16 nopw %cs:0x0(%rax,%rax,1)
    43ce:	00 00 00 00 
    43d2:	66 66 2e 0f 1f 84 00 	data16 nopw %cs:0x0(%rax,%rax,1)
    43d9:	00 00 00 00 
    43dd:	66 66 2e 0f 1f 84 00 	data16 nopw %cs:0x0(%rax,%rax,1)
    43e4:	00 00 00 00 
    43e8:	66 66 2e 0f 1f 84 00 	data16 nopw %cs:0x0(%rax,%rax,1)
    43ef:	00 00 00 00 
    43f3:	66 66 2e 0f 1f 84 00 	data16 nopw %cs:0x0(%rax,%rax,1)
    43fa:	00 00 00 00 
    43fe:	66 66 2e 0f 1f 84 00 	data16 nopw %cs:0x0(%rax,%rax,1)
    4405:	00 00 00 00 
    4409:	66 66 2e 0f 1f 84 00 	data16 nopw %cs:0x0(%rax,%rax,1)
    4410:	00 00 00 00 
    4414:	66 66 2e 0f 1f 84 00 	data16 nopw %cs:0x0(%rax,%rax,1)
    441b:	00 00 00 00 
    441f:	66 66 2e 0f 1f 84 00 	data16 nopw %cs:0x0(%rax,%rax,1)
    4426:	00 00 00 00 
    442a:	66 66 2e 0f 1f 84 00 	data16 nopw %cs:0x0(%rax,%rax,1)
    4431:	00 00 00 00 
    4435:	66 66 2e 0f 1f 84 00 	data16 nopw %cs:0x0(%rax,%rax,1)
    443c:	00 00 00 00 
    4440:	66 66 2e 0f 1f 84 00 	data16 nopw %cs:0x0(%rax,%rax,1)
    4447:	00 00 00 00 
    444b:	66 66 2e 0f 1f 84 00 	data16 nopw %cs:0x0(%rax,%rax,1)
    4452:	00 00 00 00 
    4456:	66 66 2e 0f 1f 84 00 	data16 nopw %cs:0x0(%rax,%rax,1)
    445d:	00 00 00 00 
    4461:	66 66 2e 0f 1f 84 00 	data16 nopw %cs:0x0(%rax,%rax,1)
    4468:	00 00 00 00 
    446c:	66 66 2e 0f 1f 84 00 	data16 nopw %cs:0x0(%rax,%rax,1)
    4473:	00 00 00 00 
    4477:	66 66 2e 0f 1f 84 00 	data16 nopw %cs:0x0(%rax,%rax,1)
    447e:	00 00 00 00 
    4482:	66 66 2e 0f 1f 84 00 	data16 nopw %cs:0x0(%rax,%rax,1)
    4489:	00 00 00 00 
    448d:	66 66 2e 0f 1f 84 00 	data16 nopw %cs:0x0(%rax,%rax,1)
    4494:	00 00 00 00 
    4498:	66 66 2e 0f 1f 84 00 	data16 nopw %cs:0x0(%rax,%rax,1)
    449f:	00 00 00 00 
    44a3:	66 66 2e 0f 1f 84 00 	data16 nopw %cs:0x0(%rax,%rax,1)
    44aa:	00 00 00 00 
    44ae:	66 66 2e 0f 1f 84 00 	data16 nopw %cs:0x0(%rax,%rax,1)
    44b5:	00 00 00 00 
    44b9:	66 66 2e 0f 1f 84 00 	data16 nopw %cs:0x0(%rax,%rax,1)
    44c0:	00 00 00 00 
    44c4:	66 66 2e 0f 1f 84 00 	data16 nopw %cs:0x0(%rax,%rax,1)
    44cb:	00 00 00 00 
    44cf:	66 66 2e 0f 1f 84 00 	data16 nopw %cs:0x0(%rax,%rax,1)
    44d6:	00 00 00 00 
    44da:	66 66 2e 0f 1f 84 00 	data16 nopw %cs:0x0(%rax,%rax,1)
    44e1:	00 00 00 00 
    44e5:	66 66 2e 0f 1f 84 00 	data16 nopw %cs:0x0(%rax,%rax,1)
    44ec:	00 00 00 00 
    44f0:	66 66 2e 0f 1f 84 00 	data16 nopw %cs:0x0(%rax,%rax,1)
    44f7:	00 00 00 00 
    44fb:	66 66 2e 0f 1f 84 00 	data16 nopw %cs:0x0(%rax,%rax,1)
    4502:	00 00 00 00 
    4506:	66 66 2e 0f 1f 84 00 	data16 nopw %cs:0x0(%rax,%rax,1)
    450d:	00 00 00 00 
    4511:	66 66 2e 0f 1f 84 00 	data16 nopw %cs:0x0(%rax,%rax,1)
    4518:	00 00 00 00 
    451c:	66 66 2e 0f 1f 84 00 	data16 nopw %cs:0x0(%rax,%rax,1)
    4523:	00 00 00 00 
    4527:	66 66 2e 0f 1f 84 00 	data16 nopw %cs:0x0(%rax,%rax,1)
    452e:	00 00 00 00 
    4532:	66 66 2e 0f 1f 84 00 	data16 nopw %cs:0x0(%rax,%rax,1)
    4539:	00 00 00 00 
    453d:	66 66 2e 0f 1f 84 00 	data16 nopw %cs:0x0(%rax,%rax,1)
    4544:	00 00 00 00 
    4548:	66 66 2e 0f 1f 84 00 	data16 nopw %cs:0x0(%rax,%rax,1)
    454f:	00 00 00 00 
    4553:	66 66 2e 0f 1f 84 00 	data16 nopw %cs:0x0(%rax,%rax,1)
    455a:	00 00 00 00 
    455e:	66 66 2e 0f 1f 84 00 	data16 nopw %cs:0x0(%rax,%rax,1)
    4565:	00 00 00 00 
    4569:	66 66 2e 0f 1f 84 00 	data16 nopw %cs:0x0(%rax,%rax,1)
    4570:	00 00 00 00 
    4574:	66 66 2e 0f 1f 84 00 	data16 nopw %cs:0x0(%rax,%rax,1)
    457b:	00 00 00 00 
    457f:	66 66 2e 0f 1f 84 00 	data16 nopw %cs:0x0(%rax,%rax,1)
    4586:	00 00 00 00 
    458a:	66 66 2e 0f 1f 84 00 	data16 nopw %cs:0x0(%rax,%rax,1)
    4591:	00 00 00 00 
    4595:	66 66 2e 0f 1f 84 00 	data16 nopw %cs:0x0(%rax,%rax,1)
    459c:	00 00 00 00 
    45a0:	66 66 2e 0f 1f 84 00 	data16 nopw %cs:0x0(%rax,%rax,1)
    45a7:	00 00 00 00 
    45ab:	66 66 2e 0f 1f 84 00 	data16 nopw %cs:0x0(%rax,%rax,1)
    45b2:	00 00 00 00 
    45b6:	66 66 2e 0f 1f 84 00 	data16 nopw %cs:0x0(%rax,%rax,1)
    45bd:	00 00 00 00 
    45c1:	66 66 2e 0f 1f 84 00 	data16 nopw %cs:0x0(%rax,%rax,1)
    45c8:	00 00 00 00 
    45cc:	66 66 2e 0f 1f 84 00 	data16 nopw %cs:0x0(%rax,%rax,1)
    45d3:	00 00 00 00 
    45d7:	66 66 2e 0f 1f 84 00 	data16 nopw %cs:0x0(%rax,%rax,1)
    45de:	00 00 00 00 
    45e2:	66 66 2e 0f 1f 84 00 	data16 nopw %cs:0x0(%rax,%rax,1)
    45e9:	00 00 00 00 
    45ed:	66 66 2e 0f 1f 84 00 	data16 nopw %cs:0x0(%rax,%rax,1)
    45f4:	00 00 00 00 
    45f8:	66 66 2e 0f 1f 84 00 	data16 nopw %cs:0x0(%rax,%rax,1)
    45ff:	00 00 00 00 
    4603:	66 66 2e 0f 1f 84 00 	data16 nopw %cs:0x0(%rax,%rax,1)
    460a:	00 00 00 00 
    460e:	66 66 2e 0f 1f 84 00 	data16 nopw %cs:0x0(%rax,%rax,1)
    4615:	00 00 00 00 
    4619:	66 66 2e 0f 1f 84 00 	data16 nopw %cs:0x0(%rax,%rax,1)
    4620:	00 00 00 00 
    4624:	66 66 2e 0f 1f 84 00 	data16 nopw %cs:0x0(%rax,%rax,1)
    462b:	00 00 00 00 
    462f:	66 66 2e 0f 1f 84 00 	data16 nopw %cs:0x0(%rax,%rax,1)
    4636:	00 00 00 00 
    463a:	66 66 2e 0f 1f 84 00 	data16 nopw %cs:0x0(%rax,%rax,1)
    4641:	00 00 00 00 
    4645:	66 66 2e 0f 1f 84 00 	data16 nopw %cs:0x0(%rax,%rax,1)
    464c:	00 00 00 00 
    4650:	66 66 2e 0f 1f 84 00 	data16 nopw %cs:0x0(%rax,%rax,1)
    4657:	00 00 00 00 
    465b:	66 66 2e 0f 1f 84 00 	data16 nopw %cs:0x0(%rax,%rax,1)
    4662:	00 00 00 00 
    4666:	66 66 2e 0f 1f 84 00 	data16 nopw %cs:0x0(%rax,%rax,1)
    466d:	00 00 00 00 
    4671:	66 66 2e 0f 1f 84 00 	data16 nopw %cs:0x0(%rax,%rax,1)
    4678:	00 00 00 00 
    467c:	66 66 2e 0f 1f 84 00 	data16 nopw %cs:0x0(%rax,%rax,1)
    4683:	00 00 00 00 
    4687:	66 66 2e 0f 1f 84 00 	data16 nopw %cs:0x0(%rax,%rax,1)
    468e:	00 00 00 00 
    4692:	66 66 2e 0f 1f 84 00 	data16 nopw %cs:0x0(%rax,%rax,1)
    4699:	00 00 00 00 
    469d:	66 66 2e 0f 1f 84 00 	data16 nopw %cs:0x0(%rax,%rax,1)
    46a4:	00 00 00 00 
    46a8:	66 66 2e 0f 1f 84 00 	data16 nopw %cs:0x0(%rax,%rax,1)
    46af:	00 00 00 00 
    46b3:	66 66 2e 0f 1f 84 00 	data16 nopw %cs:0x0(%rax,%rax,1)
    46ba:	00 00 00 00 
    46be:	66 66 2e 0f 1f 84 00 	data16 nopw %cs:0x0(%rax,%rax,1)
    46c5:	00 00 00 00 
    46c9:	66 66 2e 0f 1f 84 00 	data16 nopw %cs:0x0(%rax,%rax,1)
    46d0:	00 00 00 00 
    46d4:	66 66 2e 0f 1f 84 00 	data16 nopw %cs:0x0(%rax,%rax,1)
    46db:	00 00 00 00 
    46df:	66 66 2e 0f 1f 84 00 	data16 nopw %cs:0x0(%rax,%rax,1)
    46e6:	00 00 00 00 
    46ea:	66 66 2e 0f 1f 84 00 	data16 nopw %cs:0x0(%rax,%rax,1)
    46f1:	00 00 00 00 
    46f5:	66 66 2e 0f 1f 84 00 	data16 nopw %cs:0x0(%rax,%rax,1)
    46fc:	00 00 00 00 
    4700:	66 66 2e 0f 1f 84 00 	data16 nopw %cs:0x0(%rax,%rax,1)
    4707:	00 00 00 00 
    470b:	66 66 2e 0f 1f 84 00 	data16 nopw %cs:0x0(%rax,%rax,1)
    4712:	00 00 00 00 
    4716:	66 66 2e 0f 1f 84 00 	data16 nopw %cs:0x0(%rax,%rax,1)
    471d:	00 00 00 00 
    4721:	66 66 2e 0f 1f 84 00 	data16 nopw %cs:0x0(%rax,%rax,1)
    4728:	00 00 00 00 
    472c:	66 66 2e 0f 1f 84 00 	data16 nopw %cs:0x0(%rax,%rax,1)
    4733:	00 00 00 00 
    4737:	66 66 2e 0f 1f 84 00 	data16 nopw %cs:0x0(%rax,%rax,1)
    473e:	00 00 00 00 
    4742:	66 66 2e 0f 1f 84 00 	data16 nopw %cs:0x0(%rax,%rax,1)
    4749:	00 00 00 00 
    474d:	66 66 2e 0f 1f 84 00 	data16 nopw %cs:0x0(%rax,%rax,1)
    4754:	00 00 00 00 
    4758:	66 66 2e 0f 1f 84 00 	data16 nopw %cs:0x0(%rax,%rax,1)
    475f:	00 00 00 00 
    4763:	66 66 2e 0f 1f 84 00 	data16 nopw %cs:0x0(%rax,%rax,1)
    476a:	00 00 00 00 
    476e:	66 66 2e 0f 1f 84 00 	data16 nopw %cs:0x0(%rax,%rax,1)
    4775:	00 00 00 00 
    4779:	66 66 2e 0f 1f 84 00 	data16 nopw %cs:0x0(%rax,%rax,1)
    4780:	00 00 00 00 
    4784:	66 66 2e 0f 1f 84 00 	data16 nopw %cs:0x0(%rax,%rax,1)
    478b:	00 00 00 00 
    478f:	66 66 2e 0f 1f 84 00 	data16 nopw %cs:0x0(%rax,%rax,1)
    4796:	00 00 00 00 
    479a:	66 66 2e 0f 1f 84 00 	data16 nopw %cs:0x0(%rax,%rax,1)
    47a1:	00 00 00 00 
    47a5:	66 66 2e 0f 1f 84 00 	data16 nopw %cs:0x0(%rax,%rax,1)
    47ac:	00 00 00 00 
    47b0:	66 66 2e 0f 1f 84 00 	data16 nopw %cs:0x0(%rax,%rax,1)
    47b7:	00 00 00 00 
    47bb:	66 66 2e 0f 1f 84 00 	data16 nopw %cs:0x0(%rax,%rax,1)
    47c2:	00 00 00 00 
    47c6:	66 66 2e 0f 1f 84 00 	data16 nopw %cs:0x0(%rax,%rax,1)
    47cd:	00 00 00 00 
    47d1:	66 66 2e 0f 1f 84 00 	data16 nopw %cs:0x0(%rax,%rax,1)
    47d8:	00 00 00 00 
    47dc:	66 66 2e 0f 1f 84 00 	data16 nopw %cs:0x0(%rax,%rax,1)
    47e3:	00 00 00 00 
    47e7:	66 66 2e 0f 1f 84 00 	data16 nopw %cs:0x0(%rax,%rax,1)
    47ee:	00 00 00 00 
    47f2:	66 66 2e 0f 1f 84 00 	data16 nopw %cs:0x0(%rax,%rax,1)
    47f9:	00 00 00 00 
    47fd:	66 66 2e 0f 1f 84 00 	data16 nopw %cs:0x0(%rax,%rax,1)
    4804:	00 00 00 00 
    4808:	66 66 2e 0f 1f 84 00 	data16 nopw %cs:0x0(%rax,%rax,1)
    480f:	00 00 00 00 
    4813:	66 66 2e 0f 1f 84 00 	data16 nopw %cs:0x0(%rax,%rax,1)
    481a:	00 00 00 00 
    481e:	66 66 2e 0f 1f 84 00 	data16 nopw %cs:0x0(%rax,%rax,1)
    4825:	00 00 00 00 
    4829:	66 66 2e 0f 1f 84 00 	data16 nopw %cs:0x0(%rax,%rax,1)
    4830:	00 00 00 00 
    4834:	66 66 2e 0f 1f 84 00 	data16 nopw %cs:0x0(%rax,%rax,1)
    483b:	00 00 00 00 
    483f:	66 66 2e 0f 1f 84 00 	data16 nopw %cs:0x0(%rax,%rax,1)
    4846:	00 00 00 00 
    484a:	66 66 2e 0f 1f 84 00 	data16 nopw %cs:0x0(%rax,%rax,1)
    4851:	00 00 00 00 
    4855:	66 66 2e 0f 1f 84 00 	data16 nopw %cs:0x0(%rax,%rax,1)
    485c:	00 00 00 00 
    4860:	66 66 2e 0f 1f 84 00 	data16 nopw %cs:0x0(%rax,%rax,1)
    4867:	00 00 00 00 
    486b:	66 66 2e 0f 1f 84 00 	data16 nopw %cs:0x0(%rax,%rax,1)
    4872:	00 00 00 00 
    4876:	66 66 2e 0f 1f 84 00 	data16 nopw %cs:0x0(%rax,%rax,1)
    487d:	00 00 00 00 
    4881:	66 66 2e 0f 1f 84 00 	data16 nopw %cs:0x0(%rax,%rax,1)
    4888:	00 00 00 00 
    488c:	66 66 2e 0f 1f 84 00 	data16 nopw %cs:0x0(%rax,%rax,1)
    4893:	00 00 00 00 
    4897:	66 66 2e 0f 1f 84 00 	data16 nopw %cs:0x0(%rax,%rax,1)
    489e:	00 00 00 00 
    48a2:	66 66 2e 0f 1f 84 00 	data16 nopw %cs:0x0(%rax,%rax,1)
    48a9:	00 00 00 00 
    48ad:	66 66 2e 0f 1f 84 00 	data16 nopw %cs:0x0(%rax,%rax,1)
    48b4:	00 00 00 00 
    48b8:	66 66 2e 0f 1f 84 00 	data16 nopw %cs:0x0(%rax,%rax,1)
    48bf:	00 00 00 00 
    48c3:	66 66 2e 0f 1f 84 00 	data16 nopw %cs:0x0(%rax,%rax,1)
    48ca:	00 00 00 00 
    48ce:	66 66 2e 0f 1f 84 00 	data16 nopw %cs:0x0(%rax,%rax,1)
    48d5:	00 00 00 00 
    48d9:	66 66 2e 0f 1f 84 00 	data16 nopw %cs:0x0(%rax,%rax,1)
    48e0:	00 00 00 00 
    48e4:	66 66 2e 0f 1f 84 00 	data16 nopw %cs:0x0(%rax,%rax,1)
    48eb:	00 00 00 00 
    48ef:	66 66 2e 0f 1f 84 00 	data16 nopw %cs:0x0(%rax,%rax,1)
    48f6:	00 00 00 00 
    48fa:	66 66 2e 0f 1f 84 00 	data16 nopw %cs:0x0(%rax,%rax,1)
    4901:	00 00 00 00 
    4905:	66 66 2e 0f 1f 84 00 	data16 nopw %cs:0x0(%rax,%rax,1)
    490c:	00 00 00 00 
    4910:	66 66 2e 0f 1f 84 00 	data16 nopw %cs:0x0(%rax,%rax,1)
    4917:	00 00 00 00 
    491b:	66 66 2e 0f 1f 84 00 	data16 nopw %cs:0x0(%rax,%rax,1)
    4922:	00 00 00 00 
    4926:	66 66 2e 0f 1f 84 00 	data16 nopw %cs:0x0(%rax,%rax,1)
    492d:	00 00 00 00 
    4931:	66 66 2e 0f 1f 84 00 	data16 nopw %cs:0x0(%rax,%rax,1)
    4938:	00 00 00 00 
    493c:	66 66 2e 0f 1f 84 00 	data16 nopw %cs:0x0(%rax,%rax,1)
    4943:	00 00 00 00 
    4947:	66 66 2e 0f 1f 84 00 	data16 nopw %cs:0x0(%rax,%rax,1)
    494e:	00 00 00 00 
    4952:	66 66 2e 0f 1f 84 00 	data16 nopw %cs:0x0(%rax,%rax,1)
    4959:	00 00 00 00 
    495d:	66 66 2e 0f 1f 84 00 	data16 nopw %cs:0x0(%rax,%rax,1)
    4964:	00 00 00 00 
    4968:	66 66 2e 0f 1f 84 00 	data16 nopw %cs:0x0(%rax,%rax,1)
    496f:	00 00 00 00 
    4973:	66 66 2e 0f 1f 84 00 	data16 nopw %cs:0x0(%rax,%rax,1)
    497a:	00 00 00 00 
    497e:	66 66 2e 0f 1f 84 00 	data16 nopw %cs:0x0(%rax,%rax,1)
    4985:	00 00 00 00 
    4989:	66 66 2e 0f 1f 84 00 	data16 nopw %cs:0x0(%rax,%rax,1)
    4990:	00 00 00 00 
    4994:	66 66 2e 0f 1f 84 00 	data16 nopw %cs:0x0(%rax,%rax,1)
    499b:	00 00 00 00 
    499f:	66 66 2e 0f 1f 84 00 	data16 nopw %cs:0x0(%rax,%rax,1)
    49a6:	00 00 00 00 
    49aa:	66 66 2e 0f 1f 84 00 	data16 nopw %cs:0x0(%rax,%rax,1)
    49b1:	00 00 00 00 
    49b5:	66 66 2e 0f 1f 84 00 	data16 nopw %cs:0x0(%rax,%rax,1)
    49bc:	00 00 00 00 
    49c0:	66 66 2e 0f 1f 84 00 	data16 nopw %cs:0x0(%rax,%rax,1)
    49c7:	00 00 00 00 
    49cb:	66 66 2e 0f 1f 84 00 	data16 nopw %cs:0x0(%rax,%rax,1)
    49d2:	00 00 00 00 
    49d6:	66 66 2e 0f 1f 84 00 	data16 nopw %cs:0x0(%rax,%rax,1)
    49dd:	00 00 00 00 
    49e1:	66 66 2e 0f 1f 84 00 	data16 nopw %cs:0x0(%rax,%rax,1)
    49e8:	00 00 00 00 
    49ec:	66 66 2e 0f 1f 84 00 	data16 nopw %cs:0x0(%rax,%rax,1)
    49f3:	00 00 00 00 
    49f7:	66 66 2e 0f 1f 84 00 	data16 nopw %cs:0x0(%rax,%rax,1)
    49fe:	00 00 00 00 
    4a02:	66 66 2e 0f 1f 84 00 	data16 nopw %cs:0x0(%rax,%rax,1)
    4a09:	00 00 00 00 
    4a0d:	66 66 2e 0f 1f 84 00 	data16 nopw %cs:0x0(%rax,%rax,1)
    4a14:	00 00 00 00 
    4a18:	66 66 2e 0f 1f 84 00 	data16 nopw %cs:0x0(%rax,%rax,1)
    4a1f:	00 00 00 00 
    4a23:	66 66 2e 0f 1f 84 00 	data16 nopw %cs:0x0(%rax,%rax,1)
    4a2a:	00 00 00 00 
    4a2e:	66 66 2e 0f 1f 84 00 	data16 nopw %cs:0x0(%rax,%rax,1)
    4a35:	00 00 00 00 
    4a39:	66 66 2e 0f 1f 84 00 	data16 nopw %cs:0x0(%rax,%rax,1)
    4a40:	00 00 00 00 
    4a44:	66 66 2e 0f 1f 84 00 	data16 nopw %cs:0x0(%rax,%rax,1)
    4a4b:	00 00 00 00 
    4a4f:	66 66 2e 0f 1f 84 00 	data16 nopw %cs:0x0(%rax,%rax,1)
    4a56:	00 00 00 00 
    4a5a:	66 66 2e 0f 1f 84 00 	data16 nopw %cs:0x0(%rax,%rax,1)
    4a61:	00 00 00 00 
    4a65:	66 66 2e 0f 1f 84 00 	data16 nopw %cs:0x0(%rax,%rax,1)
    4a6c:	00 00 00 00 
    4a70:	66 66 2e 0f 1f 84 00 	data16 nopw %cs:0x0(%rax,%rax,1)
    4a77:	00 00 00 00 
    4a7b:	66 66 2e 0f 1f 84 00 	data16 nopw %cs:0x0(%rax,%rax,1)
    4a82:	00 00 00 00 
    4a86:	66 66 2e 0f 1f 84 00 	data16 nopw %cs:0x0(%rax,%rax,1)
    4a8d:	00 00 00 00 
    4a91:	66 66 2e 0f 1f 84 00 	data16 nopw %cs:0x0(%rax,%rax,1)
    4a98:	00 00 00 00 
    4a9c:	66 66 2e 0f 1f 84 00 	data16 nopw %cs:0x0(%rax,%rax,1)
    4aa3:	00 00 00 00 
    4aa7:	66 66 2e 0f 1f 84 00 	data16 nopw %cs:0x0(%rax,%rax,1)
    4aae:	00 00 00 00 
    4ab2:	66 66 2e 0f 1f 84 00 	data16 nopw %cs:0x0(%rax,%rax,1)
    4ab9:	00 00 00 00 
    4abd:	66 66 2e 0f 1f 84 00 	data16 nopw %cs:0x0(%rax,%rax,1)
    4ac4:	00 00 00 00 
    4ac8:	66 66 2e 0f 1f 84 00 	data16 nopw %cs:0x0(%rax,%rax,1)
    4acf:	00 00 00 00 
    4ad3:	66 66 2e 0f 1f 84 00 	data16 nopw %cs:0x0(%rax,%rax,1)
    4ada:	00 00 00 00 
    4ade:	66 66 2e 0f 1f 84 00 	data16 nopw %cs:0x0(%rax,%rax,1)
    4ae5:	00 00 00 00 
    4ae9:	66 66 2e 0f 1f 84 00 	data16 nopw %cs:0x0(%rax,%rax,1)
    4af0:	00 00 00 00 
    4af4:	66 66 2e 0f 1f 84 00 	data16 nopw %cs:0x0(%rax,%rax,1)
    4afb:	00 00 00 00 
    4aff:	66 66 2e 0f 1f 84 00 	data16 nopw %cs:0x0(%rax,%rax,1)
    4b06:	00 00 00 00 
    4b0a:	66 66 2e 0f 1f 84 00 	data16 nopw %cs:0x0(%rax,%rax,1)
    4b11:	00 00 00 00 
    4b15:	66 66 2e 0f 1f 84 00 	data16 nopw %cs:0x0(%rax,%rax,1)
    4b1c:	00 00 00 00 
    4b20:	66 66 2e 0f 1f 84 00 	data16 nopw %cs:0x0(%rax,%rax,1)
    4b27:	00 00 00 00 
    4b2b:	66 66 2e 0f 1f 84 00 	data16 nopw %cs:0x0(%rax,%rax,1)
    4b32:	00 00 00 00 
    4b36:	66 66 2e 0f 1f 84 00 	data16 nopw %cs:0x0(%rax,%rax,1)
    4b3d:	00 00 00 00 
    4b41:	66 66 2e 0f 1f 84 00 	data16 nopw %cs:0x0(%rax,%rax,1)
    4b48:	00 00 00 00 
    4b4c:	66 66 2e 0f 1f 84 00 	data16 nopw %cs:0x0(%rax,%rax,1)
    4b53:	00 00 00 00 
    4b57:	66 66 2e 0f 1f 84 00 	data16 nopw %cs:0x0(%rax,%rax,1)
    4b5e:	00 00 00 00 
    4b62:	66 66 2e 0f 1f 84 00 	data16 nopw %cs:0x0(%rax,%rax,1)
    4b69:	00 00 00 00 
    4b6d:	66 66 2e 0f 1f 84 00 	data16 nopw %cs:0x0(%rax,%rax,1)
    4b74:	00 00 00 00 
    4b78:	66 66 2e 0f 1f 84 00 	data16 nopw %cs:0x0(%rax,%rax,1)
    4b7f:	00 00 00 00 
    4b83:	66 66 2e 0f 1f 84 00 	data16 nopw %cs:0x0(%rax,%rax,1)
    4b8a:	00 00 00 00 
    4b8e:	66 66 2e 0f 1f 84 00 	data16 nopw %cs:0x0(%rax,%rax,1)
    4b95:	00 00 00 00 
    4b99:	66 66 2e 0f 1f 84 00 	data16 nopw %cs:0x0(%rax,%rax,1)
    4ba0:	00 00 00 00 
    4ba4:	66 66 2e 0f 1f 84 00 	data16 nopw %cs:0x0(%rax,%rax,1)
    4bab:	00 00 00 00 
    4baf:	66 66 2e 0f 1f 84 00 	data16 nopw %cs:0x0(%rax,%rax,1)
    4bb6:	00 00 00 00 
    4bba:	66 66 2e 0f 1f 84 00 	data16 nopw %cs:0x0(%rax,%rax,1)
    4bc1:	00 00 00 00 
    4bc5:	66 66 2e 0f 1f 84 00 	data16 nopw %cs:0x0(%rax,%rax,1)
    4bcc:	00 00 00 00 
    4bd0:	66 66 2e 0f 1f 84 00 	data16 nopw %cs:0x0(%rax,%rax,1)
    4bd7:	00 00 00 00 
    4bdb:	66 66 2e 0f 1f 84 00 	data16 nopw %cs:0x0(%rax,%rax,1)
    4be2:	00 00 00 00 
    4be6:	66 66 2e 0f 1f 84 00 	data16 nopw %cs:0x0(%rax,%rax,1)
    4bed:	00 00 00 00 
    4bf1:	66 66 2e 0f 1f 84 00 	data16 nopw %cs:0x0(%rax,%rax,1)
    4bf8:	00 00 00 00 
    4bfc:	66 66 2e 0f 1f 84 00 	data16 nopw %cs:0x0(%rax,%rax,1)
    4c03:	00 00 00 00 
    4c07:	66 66 2e 0f 1f 84 00 	data16 nopw %cs:0x0(%rax,%rax,1)
    4c0e:	00 00 00 00 
    4c12:	66 66 2e 0f 1f 84 00 	data16 nopw %cs:0x0(%rax,%rax,1)
    4c19:	00 00 00 00 
    4c1d:	66 66 2e 0f 1f 84 00 	data16 nopw %cs:0x0(%rax,%rax,1)
    4c24:	00 00 00 00 
    4c28:	66 66 2e 0f 1f 84 00 	data16 nopw %cs:0x0(%rax,%rax,1)
    4c2f:	00 00 00 00 
    4c33:	66 66 2e 0f 1f 84 00 	data16 nopw %cs:0x0(%rax,%rax,1)
    4c3a:	00 00 00 00 
    4c3e:	66 66 2e 0f 1f 84 00 	data16 nopw %cs:0x0(%rax,%rax,1)
    4c45:	00 00 00 00 
    4c49:	66 66 2e 0f 1f 84 00 	data16 nopw %cs:0x0(%rax,%rax,1)
    4c50:	00 00 00 00 
    4c54:	66 66 2e 0f 1f 84 00 	data16 nopw %cs:0x0(%rax,%rax,1)
    4c5b:	00 00 00 00 
    4c5f:	66 66 2e 0f 1f 84 00 	data16 nopw %cs:0x0(%rax,%rax,1)
    4c66:	00 00 00 00 
    4c6a:	66 66 2e 0f 1f 84 00 	data16 nopw %cs:0x0(%rax,%rax,1)
    4c71:	00 00 00 00 
    4c75:	66 66 2e 0f 1f 84 00 	data16 nopw %cs:0x0(%rax,%rax,1)
    4c7c:	00 00 00 00 
    4c80:	66 66 2e 0f 1f 84 00 	data16 nopw %cs:0x0(%rax,%rax,1)
    4c87:	00 00 00 00 
    4c8b:	66 66 2e 0f 1f 84 00 	data16 nopw %cs:0x0(%rax,%rax,1)
    4c92:	00 00 00 00 
    4c96:	66 66 2e 0f 1f 84 00 	data16 nopw %cs:0x0(%rax,%rax,1)
    4c9d:	00 00 00 00 
    4ca1:	66 66 2e 0f 1f 84 00 	data16 nopw %cs:0x0(%rax,%rax,1)
    4ca8:	00 00 00 00 
    4cac:	66 66 2e 0f 1f 84 00 	data16 nopw %cs:0x0(%rax,%rax,1)
    4cb3:	00 00 00 00 
    4cb7:	66 66 2e 0f 1f 84 00 	data16 nopw %cs:0x0(%rax,%rax,1)
    4cbe:	00 00 00 00 
    4cc2:	66 66 2e 0f 1f 84 00 	data16 nopw %cs:0x0(%rax,%rax,1)
    4cc9:	00 00 00 00 
    4ccd:	66 66 2e 0f 1f 84 00 	data16 nopw %cs:0x0(%rax,%rax,1)
    4cd4:	00 00 00 00 
    4cd8:	66 66 2e 0f 1f 84 00 	data16 nopw %cs:0x0(%rax,%rax,1)
    4cdf:	00 00 00 00 
    4ce3:	66 66 2e 0f 1f 84 00 	data16 nopw %cs:0x0(%rax,%rax,1)
    4cea:	00 00 00 00 
    4cee:	66 66 2e 0f 1f 84 00 	data16 nopw %cs:0x0(%rax,%rax,1)
    4cf5:	00 00 00 00 
    4cf9:	66 66 2e 0f 1f 84 00 	data16 nopw %cs:0x0(%rax,%rax,1)
    4d00:	00 00 00 00 
    4d04:	66 66 2e 0f 1f 84 00 	data16 nopw %cs:0x0(%rax,%rax,1)
    4d0b:	00 00 00 00 
    4d0f:	66 66 2e 0f 1f 84 00 	data16 nopw %cs:0x0(%rax,%rax,1)
    4d16:	00 00 00 00 
    4d1a:	66 66 2e 0f 1f 84 00 	data16 nopw %cs:0x0(%rax,%rax,1)
    4d21:	00 00 00 00 
    4d25:	66 66 2e 0f 1f 84 00 	data16 nopw %cs:0x0(%rax,%rax,1)
    4d2c:	00 00 00 00 
    4d30:	66 66 2e 0f 1f 84 00 	data16 nopw %cs:0x0(%rax,%rax,1)
    4d37:	00 00 00 00 
    4d3b:	66 66 2e 0f 1f 84 00 	data16 nopw %cs:0x0(%rax,%rax,1)
    4d42:	00 00 00 00 
    4d46:	66 66 2e 0f 1f 84 00 	data16 nopw %cs:0x0(%rax,%rax,1)
    4d4d:	00 00 00 00 
    4d51:	66 66 2e 0f 1f 84 00 	data16 nopw %cs:0x0(%rax,%rax,1)
    4d58:	00 00 00 00 
    4d5c:	66 66 2e 0f 1f 84 00 	data16 nopw %cs:0x0(%rax,%rax,1)
    4d63:	00 00 00 00 
    4d67:	66 66 2e 0f 1f 84 00 	data16 nopw %cs:0x0(%rax,%rax,1)
    4d6e:	00 00 00 00 
    4d72:	66 66 2e 0f 1f 84 00 	data16 nopw %cs:0x0(%rax,%rax,1)
    4d79:	00 00 00 00 
    4d7d:	66 66 2e 0f 1f 84 00 	data16 nopw %cs:0x0(%rax,%rax,1)
    4d84:	00 00 00 00 
    4d88:	66 66 2e 0f 1f 84 00 	data16 nopw %cs:0x0(%rax,%rax,1)
    4d8f:	00 00 00 00 
    4d93:	66 66 2e 0f 1f 84 00 	data16 nopw %cs:0x0(%rax,%rax,1)
    4d9a:	00 00 00 00 
    4d9e:	66 66 2e 0f 1f 84 00 	data16 nopw %cs:0x0(%rax,%rax,1)
    4da5:	00 00 00 00 
    4da9:	66 66 2e 0f 1f 84 00 	data16 nopw %cs:0x0(%rax,%rax,1)
    4db0:	00 00 00 00 
    4db4:	66 66 2e 0f 1f 84 00 	data16 nopw %cs:0x0(%rax,%rax,1)
    4dbb:	00 00 00 00 
    4dbf:	66 66 2e 0f 1f 84 00 	data16 nopw %cs:0x0(%rax,%rax,1)
    4dc6:	00 00 00 00 
    4dca:	66 66 2e 0f 1f 84 00 	data16 nopw %cs:0x0(%rax,%rax,1)
    4dd1:	00 00 00 00 
    4dd5:	66 66 2e 0f 1f 84 00 	data16 nopw %cs:0x0(%rax,%rax,1)
    4ddc:	00 00 00 00 
    4de0:	66 66 2e 0f 1f 84 00 	data16 nopw %cs:0x0(%rax,%rax,1)
    4de7:	00 00 00 00 
    4deb:	66 66 2e 0f 1f 84 00 	data16 nopw %cs:0x0(%rax,%rax,1)
    4df2:	00 00 00 00 
    4df6:	66 66 2e 0f 1f 84 00 	data16 nopw %cs:0x0(%rax,%rax,1)
    4dfd:	00 00 00 00 
    4e01:	66 66 2e 0f 1f 84 00 	data16 nopw %cs:0x0(%rax,%rax,1)
    4e08:	00 00 00 00 
    4e0c:	66 66 2e 0f 1f 84 00 	data16 nopw %cs:0x0(%rax,%rax,1)
    4e13:	00 00 00 00 
    4e17:	66 66 2e 0f 1f 84 00 	data16 nopw %cs:0x0(%rax,%rax,1)
    4e1e:	00 00 00 00 
    4e22:	66 66 2e 0f 1f 84 00 	data16 nopw %cs:0x0(%rax,%rax,1)
    4e29:	00 00 00 00 
    4e2d:	66 66 2e 0f 1f 84 00 	data16 nopw %cs:0x0(%rax,%rax,1)
    4e34:	00 00 00 00 
    4e38:	66 66 2e 0f 1f 84 00 	data16 nopw %cs:0x0(%rax,%rax,1)
    4e3f:	00 00 00 00 
    4e43:	66 66 2e 0f 1f 84 00 	data16 nopw %cs:0x0(%rax,%rax,1)
    4e4a:	00 00 00 00 
    4e4e:	66 66 2e 0f 1f 84 00 	data16 nopw %cs:0x0(%rax,%rax,1)
    4e55:	00 00 00 00 
    4e59:	66 66 2e 0f 1f 84 00 	data16 nopw %cs:0x0(%rax,%rax,1)
    4e60:	00 00 00 00 
    4e64:	66 66 2e 0f 1f 84 00 	data16 nopw %cs:0x0(%rax,%rax,1)
    4e6b:	00 00 00 00 
    4e6f:	66 66 2e 0f 1f 84 00 	data16 nopw %cs:0x0(%rax,%rax,1)
    4e76:	00 00 00 00 
    4e7a:	66 66 2e 0f 1f 84 00 	data16 nopw %cs:0x0(%rax,%rax,1)
    4e81:	00 00 00 00 
    4e85:	66 66 2e 0f 1f 84 00 	data16 nopw %cs:0x0(%rax,%rax,1)
    4e8c:	00 00 00 00 
    4e90:	66 66 2e 0f 1f 84 00 	data16 nopw %cs:0x0(%rax,%rax,1)
    4e97:	00 00 00 00 
    4e9b:	66 66 2e 0f 1f 84 00 	data16 nopw %cs:0x0(%rax,%rax,1)
    4ea2:	00 00 00 00 
    4ea6:	66 66 2e 0f 1f 84 00 	data16 nopw %cs:0x0(%rax,%rax,1)
    4ead:	00 00 00 00 
    4eb1:	66 66 2e 0f 1f 84 00 	data16 nopw %cs:0x0(%rax,%rax,1)
    4eb8:	00 00 00 00 
    4ebc:	66 66 2e 0f 1f 84 00 	data16 nopw %cs:0x0(%rax,%rax,1)
    4ec3:	00 00 00 00 
    4ec7:	66 66 2e 0f 1f 84 00 	data16 nopw %cs:0x0(%rax,%rax,1)
    4ece:	00 00 00 00 
    4ed2:	66 66 2e 0f 1f 84 00 	data16 nopw %cs:0x0(%rax,%rax,1)
    4ed9:	00 00 00 00 
    4edd:	66 66 2e 0f 1f 84 00 	data16 nopw %cs:0x0(%rax,%rax,1)
    4ee4:	00 00 00 00 
    4ee8:	66 66 2e 0f 1f 84 00 	data16 nopw %cs:0x0(%rax,%rax,1)
    4eef:	00 00 00 00 
    4ef3:	66 66 2e 0f 1f 84 00 	data16 nopw %cs:0x0(%rax,%rax,1)
    4efa:	00 00 00 00 
    4efe:	66 66 2e 0f 1f 84 00 	data16 nopw %cs:0x0(%rax,%rax,1)
    4f05:	00 00 00 00 
    4f09:	66 66 2e 0f 1f 84 00 	data16 nopw %cs:0x0(%rax,%rax,1)
    4f10:	00 00 00 00 
    4f14:	66 66 2e 0f 1f 84 00 	data16 nopw %cs:0x0(%rax,%rax,1)
    4f1b:	00 00 00 00 
    4f1f:	66 66 2e 0f 1f 84 00 	data16 nopw %cs:0x0(%rax,%rax,1)
    4f26:	00 00 00 00 
    4f2a:	66 66 2e 0f 1f 84 00 	data16 nopw %cs:0x0(%rax,%rax,1)
    4f31:	00 00 00 00 
    4f35:	66 66 2e 0f 1f 84 00 	data16 nopw %cs:0x0(%rax,%rax,1)
    4f3c:	00 00 00 00 
    4f40:	66 66 2e 0f 1f 84 00 	data16 nopw %cs:0x0(%rax,%rax,1)
    4f47:	00 00 00 00 
    4f4b:	66 66 2e 0f 1f 84 00 	data16 nopw %cs:0x0(%rax,%rax,1)
    4f52:	00 00 00 00 
    4f56:	66 66 2e 0f 1f 84 00 	data16 nopw %cs:0x0(%rax,%rax,1)
    4f5d:	00 00 00 00 
    4f61:	66 66 2e 0f 1f 84 00 	data16 nopw %cs:0x0(%rax,%rax,1)
    4f68:	00 00 00 00 
    4f6c:	66 66 2e 0f 1f 84 00 	data16 nopw %cs:0x0(%rax,%rax,1)
    4f73:	00 00 00 00 
    4f77:	66 66 2e 0f 1f 84 00 	data16 nopw %cs:0x0(%rax,%rax,1)
    4f7e:	00 00 00 00 
    4f82:	66 66 2e 0f 1f 84 00 	data16 nopw %cs:0x0(%rax,%rax,1)
    4f89:	00 00 00 00 
    4f8d:	66 66 2e 0f 1f 84 00 	data16 nopw %cs:0x0(%rax,%rax,1)
    4f94:	00 00 00 00 
    4f98:	66 66 2e 0f 1f 84 00 	data16 nopw %cs:0x0(%rax,%rax,1)
    4f9f:	00 00 00 00 
    4fa3:	66 66 2e 0f 1f 84 00 	data16 nopw %cs:0x0(%rax,%rax,1)
    4faa:	00 00 00 00 
    4fae:	66 66 2e 0f 1f 84 00 	data16 nopw %cs:0x0(%rax,%rax,1)
    4fb5:	00 00 00 00 
    4fb9:	66 66 2e 0f 1f 84 00 	data16 nopw %cs:0x0(%rax,%rax,1)
    4fc0:	00 00 00 00 
    4fc4:	66 66 2e 0f 1f 84 00 	data16 nopw %cs:0x0(%rax,%rax,1)
    4fcb:	00 00 00 00 
    4fcf:	66 66 2e 0f 1f 84 00 	data16 nopw %cs:0x0(%rax,%rax,1)
    4fd6:	00 00 00 00 
    4fda:	66 66 2e 0f 1f 84 00 	data16 nopw %cs:0x0(%rax,%rax,1)
    4fe1:	00 00 00 00 
    4fe5:	66 66 2e 0f 1f 84 00 	data16 nopw %cs:0x0(%rax,%rax,1)
    4fec:	00 00 00 00 
    4ff0:	66 66 2e 0f 1f 84 00 	data16 nopw %cs:0x0(%rax,%rax,1)
    4ff7:	00 00 00 00 
    4ffb:	0f 1f 44 00 00       	nopl   0x0(%rax,%rax,1)

0000000000005000 <multiply>:
    5000:	48 89 f8             	mov    %rdi,%rax
    5003:	48 89 d1             	mov    %rdx,%rcx
    5006:	31 d2                	xor    %edx,%edx
    5008:	48 0f af c6          	imul   %rsi,%rax
    500c:	48 f7 f1             	div    %rcx
    500f:	48 89 d0             	mov    %rdx,%rax
    5012:	c3                   	retq   
	...

0000000000006013 <sgx_ecall_get_modpow_adrs>:
    6013:	48 85 ff             	test   %rdi,%rdi
    6016:	74 28                	je     6040 <sgx_ecall_get_modpow_adrs+0x2d>
    6018:	53                   	push   %rbx
    6019:	be 08 00 00 00       	mov    $0x8,%esi
    601e:	48 89 fb             	mov    %rdi,%rbx
    6021:	e8 ba 02 00 00       	callq  62e0 <sgx_is_outside_enclave>
    6026:	85 c0                	test   %eax,%eax
    6028:	75 07                	jne    6031 <sgx_ecall_get_modpow_adrs+0x1e>
    602a:	b8 02 00 00 00       	mov    $0x2,%eax
    602f:	eb 0d                	jmp    603e <sgx_ecall_get_modpow_adrs+0x2b>
    6031:	0f ae e8             	lfence 
    6034:	e8 51 c1 ff ff       	callq  218a <ecall_get_modpow_adrs>
    6039:	48 89 03             	mov    %rax,(%rbx)
    603c:	31 c0                	xor    %eax,%eax
    603e:	5b                   	pop    %rbx
    603f:	c3                   	retq   
    6040:	b8 02 00 00 00       	mov    $0x2,%eax
    6045:	c3                   	retq   

0000000000006046 <sgx_ecall_get_multiply_adrs>:
    6046:	48 85 ff             	test   %rdi,%rdi
    6049:	74 28                	je     6073 <sgx_ecall_get_multiply_adrs+0x2d>
    604b:	53                   	push   %rbx
    604c:	be 08 00 00 00       	mov    $0x8,%esi
    6051:	48 89 fb             	mov    %rdi,%rbx
    6054:	e8 87 02 00 00       	callq  62e0 <sgx_is_outside_enclave>
    6059:	85 c0                	test   %eax,%eax
    605b:	75 07                	jne    6064 <sgx_ecall_get_multiply_adrs+0x1e>
    605d:	b8 02 00 00 00       	mov    $0x2,%eax
    6062:	eb 0d                	jmp    6071 <sgx_ecall_get_multiply_adrs+0x2b>
    6064:	0f ae e8             	lfence 
    6067:	e8 16 c1 ff ff       	callq  2182 <ecall_get_multiply_adrs>
    606c:	48 89 03             	mov    %rax,(%rbx)
    606f:	31 c0                	xor    %eax,%eax
    6071:	5b                   	pop    %rbx
    6072:	c3                   	retq   
    6073:	b8 02 00 00 00       	mov    $0x2,%eax
    6078:	c3                   	retq   

0000000000006079 <sgx_ecall_get_square_adrs>:
    6079:	48 85 ff             	test   %rdi,%rdi
    607c:	74 28                	je     60a6 <sgx_ecall_get_square_adrs+0x2d>
    607e:	53                   	push   %rbx
    607f:	be 08 00 00 00       	mov    $0x8,%esi
    6084:	48 89 fb             	mov    %rdi,%rbx
    6087:	e8 54 02 00 00       	callq  62e0 <sgx_is_outside_enclave>
    608c:	85 c0                	test   %eax,%eax
    608e:	75 07                	jne    6097 <sgx_ecall_get_square_adrs+0x1e>
    6090:	b8 02 00 00 00       	mov    $0x2,%eax
    6095:	eb 0d                	jmp    60a4 <sgx_ecall_get_square_adrs+0x2b>
    6097:	0f ae e8             	lfence 
    609a:	e8 db c0 ff ff       	callq  217a <ecall_get_square_adrs>
    609f:	48 89 03             	mov    %rax,(%rbx)
    60a2:	31 c0                	xor    %eax,%eax
    60a4:	5b                   	pop    %rbx
    60a5:	c3                   	retq   
    60a6:	b8 02 00 00 00       	mov    $0x2,%eax
    60ab:	c3                   	retq   

00000000000060ac <sgx_ecall_rsa_decode>:
    60ac:	48 85 ff             	test   %rdi,%rdi
    60af:	74 2a                	je     60db <sgx_ecall_rsa_decode+0x2f>
    60b1:	53                   	push   %rbx
    60b2:	be 08 00 00 00       	mov    $0x8,%esi
    60b7:	48 89 fb             	mov    %rdi,%rbx
    60ba:	e8 21 02 00 00       	callq  62e0 <sgx_is_outside_enclave>
    60bf:	85 c0                	test   %eax,%eax
    60c1:	75 07                	jne    60ca <sgx_ecall_rsa_decode+0x1e>
    60c3:	b8 02 00 00 00       	mov    $0x2,%eax
    60c8:	eb 0f                	jmp    60d9 <sgx_ecall_rsa_decode+0x2d>
    60ca:	0f ae e8             	lfence 
    60cd:	8b 7b 04             	mov    0x4(%rbx),%edi
    60d0:	e8 0e c0 ff ff       	callq  20e3 <ecall_rsa_decode>
    60d5:	89 03                	mov    %eax,(%rbx)
    60d7:	31 c0                	xor    %eax,%eax
    60d9:	5b                   	pop    %rbx
    60da:	c3                   	retq   
    60db:	b8 02 00 00 00       	mov    $0x2,%eax
    60e0:	c3                   	retq   

00000000000060e1 <sgx_ecall_rsa_encode>:
    60e1:	48 85 ff             	test   %rdi,%rdi
    60e4:	74 2a                	je     6110 <sgx_ecall_rsa_encode+0x2f>
    60e6:	53                   	push   %rbx
    60e7:	be 08 00 00 00       	mov    $0x8,%esi
    60ec:	48 89 fb             	mov    %rdi,%rbx
    60ef:	e8 ec 01 00 00       	callq  62e0 <sgx_is_outside_enclave>
    60f4:	85 c0                	test   %eax,%eax
    60f6:	75 07                	jne    60ff <sgx_ecall_rsa_encode+0x1e>
    60f8:	b8 02 00 00 00       	mov    $0x2,%eax
    60fd:	eb 0f                	jmp    610e <sgx_ecall_rsa_encode+0x2d>
    60ff:	0f ae e8             	lfence 
    6102:	8b 7b 04             	mov    0x4(%rbx),%edi
    6105:	e8 5a c0 ff ff       	callq  2164 <ecall_rsa_encode>
    610a:	89 03                	mov    %eax,(%rbx)
    610c:	31 c0                	xor    %eax,%eax
    610e:	5b                   	pop    %rbx
    610f:	c3                   	retq   
    6110:	b8 02 00 00 00       	mov    $0x2,%eax
    6115:	c3                   	retq   
    6116:	66 2e 0f 1f 84 00 00 	nopw   %cs:0x0(%rax,%rax,1)
    611d:	00 00 00 

0000000000006120 <init_optimized_libs>:
    6120:	48 8d 05 79 bf 00 00 	lea    0xbf79(%rip),%rax        # 120a0 <g_enclave_state>
    6127:	83 38 01             	cmpl   $0x1,(%rax)
    612a:	0f 85 50 01 00 00    	jne    6280 <init_optimized_libs+0x160>
    6130:	55                   	push   %rbp
    6131:	53                   	push   %rbx
    6132:	48 b8 00 00 00 00 00 	movabs $0xff00000000000000,%rax
    6139:	00 00 ff 
    613c:	48 89 f5             	mov    %rsi,%rbp
    613f:	48 83 ec 08          	sub    $0x8,%rsp
    6143:	48 85 c7             	test   %rax,%rdi
    6146:	0f 85 d4 00 00 00    	jne    6220 <init_optimized_libs+0x100>
    614c:	48 f7 c7 00 fe ff ff 	test   $0xfffffffffffffe00,%rdi
    6153:	0f 84 ef 00 00 00    	je     6248 <init_optimized_libs+0x128>
    6159:	40 f6 c7 20          	test   $0x20,%dil
    615d:	74 10                	je     616f <init_optimized_libs+0x4f>
    615f:	48 89 f8             	mov    %rdi,%rax
    6162:	83 e0 1f             	and    $0x1f,%eax
    6165:	48 83 f8 1f          	cmp    $0x1f,%rax
    6169:	0f 85 d9 00 00 00    	jne    6248 <init_optimized_libs+0x128>
    616f:	40 f6 c7 40          	test   $0x40,%dil
    6173:	74 10                	je     6185 <init_optimized_libs+0x65>
    6175:	48 89 f8             	mov    %rdi,%rax
    6178:	83 e0 3f             	and    $0x3f,%eax
    617b:	48 83 f8 3f          	cmp    $0x3f,%rax
    617f:	0f 85 c3 00 00 00    	jne    6248 <init_optimized_libs+0x128>
    6185:	40 f6 c7 80          	test   $0x80,%dil
    6189:	74 10                	je     619b <init_optimized_libs+0x7b>
    618b:	48 89 f8             	mov    %rdi,%rax
    618e:	83 e0 7f             	and    $0x7f,%eax
    6191:	48 83 f8 7f          	cmp    $0x7f,%rax
    6195:	0f 85 ad 00 00 00    	jne    6248 <init_optimized_libs+0x128>
    619b:	f7 c7 00 01 00 00    	test   $0x100,%edi
    61a1:	74 10                	je     61b3 <init_optimized_libs+0x93>
    61a3:	40 0f b6 c7          	movzbl %dil,%eax
    61a7:	48 3d ff 00 00 00    	cmp    $0xff,%rax
    61ad:	0f 85 95 00 00 00    	jne    6248 <init_optimized_libs+0x128>
    61b3:	f7 c7 00 02 00 00    	test   $0x200,%edi
    61b9:	74 10                	je     61cb <init_optimized_libs+0xab>
    61bb:	48 89 f8             	mov    %rdi,%rax
    61be:	25 ff 01 00 00       	and    $0x1ff,%eax
    61c3:	48 3d ff 01 00 00    	cmp    $0x1ff,%rax
    61c9:	75 7d                	jne    6248 <init_optimized_libs+0x128>
    61cb:	f7 c7 00 04 00 00    	test   $0x400,%edi
    61d1:	75 65                	jne    6238 <init_optimized_libs+0x118>
    61d3:	48 89 d0             	mov    %rdx,%rax
    61d6:	83 e0 06             	and    $0x6,%eax
    61d9:	48 83 f8 06          	cmp    $0x6,%rax
    61dd:	74 79                	je     6258 <init_optimized_libs+0x138>
    61df:	48 b8 ff 7f 12 86 08 	movabs $0xfffe200886127fff,%rax
    61e6:	20 fe ff 
    61e9:	48 21 c7             	and    %rax,%rdi
    61ec:	48 8d 1d 3d bc 00 00 	lea    0xbc3d(%rip),%rbx        # 11e30 <g_cpu_feature_indicator>
    61f3:	48 89 3b             	mov    %rdi,(%rbx)
    61f6:	e8 a5 6b 00 00       	callq  cda0 <sgx_init_string_lib>
    61fb:	85 c0                	test   %eax,%eax
    61fd:	75 49                	jne    6248 <init_optimized_libs+0x128>
    61ff:	48 8b 3b             	mov    (%rbx),%rdi
    6202:	48 89 ee             	mov    %rbp,%rsi
    6205:	e8 a6 6d 00 00       	callq  cfb0 <sgx_init_crypto_lib>
    620a:	85 c0                	test   %eax,%eax
    620c:	0f 95 c0             	setne  %al
    620f:	48 83 c4 08          	add    $0x8,%rsp
    6213:	0f b6 c0             	movzbl %al,%eax
    6216:	f7 d8                	neg    %eax
    6218:	5b                   	pop    %rbx
    6219:	5d                   	pop    %rbp
    621a:	c3                   	retq   
    621b:	0f 1f 44 00 00       	nopl   0x0(%rax,%rax,1)
    6220:	48 b8 ff ff ff ff ff 	movabs $0xffffffffffffff,%rax
    6227:	ff ff 00 
    622a:	48 21 c7             	and    %rax,%rdi
    622d:	e9 1a ff ff ff       	jmpq   614c <init_optimized_libs+0x2c>
    6232:	66 0f 1f 44 00 00    	nopw   0x0(%rax,%rax,1)
    6238:	48 89 f8             	mov    %rdi,%rax
    623b:	25 ff 03 00 00       	and    $0x3ff,%eax
    6240:	48 3d ff 03 00 00    	cmp    $0x3ff,%rax
    6246:	74 8b                	je     61d3 <init_optimized_libs+0xb3>
    6248:	48 83 c4 08          	add    $0x8,%rsp
    624c:	b8 ff ff ff ff       	mov    $0xffffffff,%eax
    6251:	5b                   	pop    %rbx
    6252:	5d                   	pop    %rbp
    6253:	c3                   	retq   
    6254:	0f 1f 40 00          	nopl   0x0(%rax)
    6258:	81 e2 e0 00 00 00    	and    $0xe0,%edx
    625e:	48 81 fa e0 00 00 00 	cmp    $0xe0,%rdx
    6265:	74 85                	je     61ec <init_optimized_libs+0xcc>
    6267:	48 b8 ff ff ff b6 18 	movabs $0xfffee018b6ffffff,%rax
    626e:	e0 fe ff 
    6271:	48 21 c7             	and    %rax,%rdi
    6274:	e9 73 ff ff ff       	jmpq   61ec <init_optimized_libs+0xcc>
    6279:	0f 1f 80 00 00 00 00 	nopl   0x0(%rax)
    6280:	b8 ff ff ff ff       	mov    $0xffffffff,%eax
    6285:	c3                   	retq   
    6286:	66 2e 0f 1f 84 00 00 	nopw   %cs:0x0(%rax,%rax,1)
    628d:	00 00 00 

0000000000006290 <sgx_is_within_enclave>:
    6290:	48 8d 05 29 7e 00 00 	lea    0x7e29(%rip),%rax        # e0c0 <g_global_data>
    6297:	48 8d 0d 62 9d ff ff 	lea    -0x629e(%rip),%rcx        # 0 <__ImageBase>
    629e:	48 85 f6             	test   %rsi,%rsi
    62a1:	48 8b 40 08          	mov    0x8(%rax),%rax
    62a5:	4c 8d 44 08 ff       	lea    -0x1(%rax,%rcx,1),%r8
    62aa:	74 24                	je     62d0 <sgx_is_within_enclave+0x40>
    62ac:	48 83 ee 01          	sub    $0x1,%rsi
    62b0:	48 01 fe             	add    %rdi,%rsi
    62b3:	0f 93 c2             	setae  %dl
    62b6:	48 39 cf             	cmp    %rcx,%rdi
    62b9:	0f 93 c0             	setae  %al
    62bc:	21 c2                	and    %eax,%edx
    62be:	31 c0                	xor    %eax,%eax
    62c0:	4c 39 c6             	cmp    %r8,%rsi
    62c3:	0f 96 c0             	setbe  %al
    62c6:	21 d0                	and    %edx,%eax
    62c8:	c3                   	retq   
    62c9:	0f 1f 80 00 00 00 00 	nopl   0x0(%rax)
    62d0:	48 89 fe             	mov    %rdi,%rsi
    62d3:	ba 01 00 00 00       	mov    $0x1,%edx
    62d8:	eb dc                	jmp    62b6 <sgx_is_within_enclave+0x26>
    62da:	66 0f 1f 44 00 00    	nopw   0x0(%rax,%rax,1)

00000000000062e0 <sgx_is_outside_enclave>:
    62e0:	48 8d 05 d9 7d 00 00 	lea    0x7dd9(%rip),%rax        # e0c0 <g_global_data>
    62e7:	48 85 f6             	test   %rsi,%rsi
    62ea:	48 8b 40 08          	mov    0x8(%rax),%rax
    62ee:	74 10                	je     6300 <sgx_is_outside_enclave+0x20>
    62f0:	48 83 ee 01          	sub    $0x1,%rsi
    62f4:	48 01 fe             	add    %rdi,%rsi
    62f7:	73 0a                	jae    6303 <sgx_is_outside_enclave+0x23>
    62f9:	31 c0                	xor    %eax,%eax
    62fb:	c3                   	retq   
    62fc:	0f 1f 40 00          	nopl   0x0(%rax)
    6300:	48 89 fe             	mov    %rdi,%rsi
    6303:	48 8d 15 f6 9c ff ff 	lea    -0x630a(%rip),%rdx        # 0 <__ImageBase>
    630a:	48 8d 44 10 ff       	lea    -0x1(%rax,%rdx,1),%rax
    630f:	48 39 c7             	cmp    %rax,%rdi
    6312:	0f 97 c0             	seta   %al
    6315:	48 39 f2             	cmp    %rsi,%rdx
    6318:	0f 97 c2             	seta   %dl
    631b:	09 d0                	or     %edx,%eax
    631d:	0f b6 c0             	movzbl %al,%eax
    6320:	c3                   	retq   
    6321:	66 2e 0f 1f 84 00 00 	nopw   %cs:0x0(%rax,%rax,1)
    6328:	00 00 00 
    632b:	0f 1f 44 00 00       	nopl   0x0(%rax,%rax,1)

0000000000006330 <sgx_ocalloc>:
    6330:	53                   	push   %rbx
    6331:	48 89 fb             	mov    %rdi,%rbx
    6334:	48 83 ec 10          	sub    $0x10,%rsp
    6338:	e8 c4 76 00 00       	callq  da01 <get_thread_data>
    633d:	4c 8d 05 7c 7d 00 00 	lea    0x7d7c(%rip),%r8        # e0c0 <g_global_data>
    6344:	48 8b 70 20          	mov    0x20(%rax),%rsi
    6348:	48 8d 3d b1 9c ff ff 	lea    -0x634f(%rip),%rdi        # 0 <__ImageBase>
    634f:	49 8b 40 08          	mov    0x8(%r8),%rax
    6353:	48 8b 96 90 00 00 00 	mov    0x90(%rsi),%rdx
    635a:	48 8d 4c 07 ff       	lea    -0x1(%rdi,%rax,1),%rcx
    635f:	48 89 d0             	mov    %rdx,%rax
    6362:	48 83 c0 07          	add    $0x7,%rax
    6366:	0f 82 ad 00 00 00    	jb     6419 <sgx_ocalloc+0xe9>
    636c:	48 39 c7             	cmp    %rax,%rdi
    636f:	77 09                	ja     637a <sgx_ocalloc+0x4a>
    6371:	48 39 ca             	cmp    %rcx,%rdx
    6374:	0f 86 9f 00 00 00    	jbe    6419 <sgx_ocalloc+0xe9>
    637a:	48 39 da             	cmp    %rbx,%rdx
    637d:	0f 82 96 00 00 00    	jb     6419 <sgx_ocalloc+0xe9>
    6383:	48 89 d1             	mov    %rdx,%rcx
    6386:	4d 8b 40 08          	mov    0x8(%r8),%r8
    638a:	48 29 d9             	sub    %rbx,%rcx
    638d:	48 89 c8             	mov    %rcx,%rax
    6390:	48 83 e0 f0          	and    $0xfffffffffffffff0,%rax
    6394:	48 85 db             	test   %rbx,%rbx
    6397:	4e 8d 44 07 ff       	lea    -0x1(%rdi,%r8,1),%r8
    639c:	75 72                	jne    6410 <sgx_ocalloc+0xe0>
    639e:	48 89 c3             	mov    %rax,%rbx
    63a1:	48 39 df             	cmp    %rbx,%rdi
    63a4:	77 05                	ja     63ab <sgx_ocalloc+0x7b>
    63a6:	4c 39 c0             	cmp    %r8,%rax
    63a9:	76 6e                	jbe    6419 <sgx_ocalloc+0xe9>
    63ab:	48 83 ea 01          	sub    $0x1,%rdx
    63af:	48 81 e2 00 f0 ff ff 	and    $0xfffffffffffff000,%rdx
    63b6:	48 81 e1 00 f0 ff ff 	and    $0xfffffffffffff000,%rcx
    63bd:	74 5a                	je     6419 <sgx_ocalloc+0xe9>
    63bf:	48 89 54 24 08       	mov    %rdx,0x8(%rsp)
    63c4:	48 8b 54 24 08       	mov    0x8(%rsp),%rdx
    63c9:	48 39 d1             	cmp    %rdx,%rcx
    63cc:	77 31                	ja     63ff <sgx_ocalloc+0xcf>
    63ce:	66 90                	xchg   %ax,%ax
    63d0:	48 8b 54 24 08       	mov    0x8(%rsp),%rdx
    63d5:	48 89 96 90 00 00 00 	mov    %rdx,0x90(%rsi)
    63dc:	48 8b 54 24 08       	mov    0x8(%rsp),%rdx
    63e1:	c6 02 00             	movb   $0x0,(%rdx)
    63e4:	48 8b 54 24 08       	mov    0x8(%rsp),%rdx
    63e9:	48 81 ea 00 10 00 00 	sub    $0x1000,%rdx
    63f0:	48 89 54 24 08       	mov    %rdx,0x8(%rsp)
    63f5:	48 8b 54 24 08       	mov    0x8(%rsp),%rdx
    63fa:	48 39 ca             	cmp    %rcx,%rdx
    63fd:	73 d1                	jae    63d0 <sgx_ocalloc+0xa0>
    63ff:	48 89 86 90 00 00 00 	mov    %rax,0x90(%rsi)
    6406:	48 83 c4 10          	add    $0x10,%rsp
    640a:	5b                   	pop    %rbx
    640b:	c3                   	retq   
    640c:	0f 1f 40 00          	nopl   0x0(%rax)
    6410:	48 83 eb 01          	sub    $0x1,%rbx
    6414:	48 01 c3             	add    %rax,%rbx
    6417:	73 88                	jae    63a1 <sgx_ocalloc+0x71>
    6419:	e8 12 79 00 00       	callq  dd30 <abort>
    641e:	66 90                	xchg   %ax,%ax

0000000000006420 <sgx_ocfree>:
    6420:	48 83 ec 08          	sub    $0x8,%rsp
    6424:	e8 d8 75 00 00       	callq  da01 <get_thread_data>
    6429:	48 8d 0d 90 7c 00 00 	lea    0x7c90(%rip),%rcx        # e0c0 <g_global_data>
    6430:	48 8b 70 20          	mov    0x20(%rax),%rsi
    6434:	48 8b 40 08          	mov    0x8(%rax),%rax
    6438:	48 8d 15 c1 9b ff ff 	lea    -0x643f(%rip),%rdx        # 0 <__ImageBase>
    643f:	48 8b 49 08          	mov    0x8(%rcx),%rcx
    6443:	48 8b 40 e8          	mov    -0x18(%rax),%rax
    6447:	48 8d 7c 0a ff       	lea    -0x1(%rdx,%rcx,1),%rdi
    644c:	48 89 c1             	mov    %rax,%rcx
    644f:	48 83 c1 07          	add    $0x7,%rcx
    6453:	72 16                	jb     646b <sgx_ocfree+0x4b>
    6455:	48 39 ca             	cmp    %rcx,%rdx
    6458:	77 05                	ja     645f <sgx_ocfree+0x3f>
    645a:	48 39 f8             	cmp    %rdi,%rax
    645d:	76 0c                	jbe    646b <sgx_ocfree+0x4b>
    645f:	48 89 86 90 00 00 00 	mov    %rax,0x90(%rsi)
    6466:	48 83 c4 08          	add    $0x8,%rsp
    646a:	c3                   	retq   
    646b:	e8 c0 78 00 00       	callq  dd30 <abort>

0000000000006470 <sgx_read_rand>:
    6470:	41 56                	push   %r14
    6472:	41 55                	push   %r13
    6474:	41 54                	push   %r12
    6476:	55                   	push   %rbp
    6477:	53                   	push   %rbx
    6478:	48 83 ec 10          	sub    $0x10,%rsp
    647c:	64 48 8b 04 25 28 00 	mov    %fs:0x28,%rax
    6483:	00 00 
    6485:	48 89 44 24 08       	mov    %rax,0x8(%rsp)
    648a:	31 c0                	xor    %eax,%eax
    648c:	48 85 ff             	test   %rdi,%rdi
    648f:	0f 84 cb 00 00 00    	je     6560 <sgx_read_rand+0xf0>
    6495:	48 85 f6             	test   %rsi,%rsi
    6498:	48 89 f3             	mov    %rsi,%rbx
    649b:	0f 84 bf 00 00 00    	je     6560 <sgx_read_rand+0xf0>
    64a1:	48 8d 43 ff          	lea    -0x1(%rbx),%rax
    64a5:	49 89 fc             	mov    %rdi,%r12
    64a8:	48 8d 35 11 7c 00 00 	lea    0x7c11(%rip),%rsi        # e0c0 <g_global_data>
    64af:	48 8d 0d 4a 9b ff ff 	lea    -0x64b6(%rip),%rcx        # 0 <__ImageBase>
    64b6:	4c 01 e0             	add    %r12,%rax
    64b9:	41 0f 92 c0          	setb   %r8b
    64bd:	48 8b 7e 08          	mov    0x8(%rsi),%rdi
    64c1:	48 89 c2             	mov    %rax,%rdx
    64c4:	45 0f b6 c0          	movzbl %r8b,%r8d
    64c8:	0f 82 da 00 00 00    	jb     65a8 <sgx_read_rand+0x138>
    64ce:	49 39 cc             	cmp    %rcx,%r12
    64d1:	0f 82 d1 00 00 00    	jb     65a8 <sgx_read_rand+0x138>
    64d7:	48 8d 44 39 ff       	lea    -0x1(%rcx,%rdi,1),%rax
    64dc:	48 39 d0             	cmp    %rdx,%rax
    64df:	0f 82 9b 00 00 00    	jb     6580 <sgx_read_rand+0x110>
    64e5:	4c 8d 6c 24 04       	lea    0x4(%rsp),%r13
    64ea:	c7 44 24 04 00 00 00 	movl   $0x0,0x4(%rsp)
    64f1:	00 
    64f2:	41 be 04 00 00 00    	mov    $0x4,%r14d
    64f8:	0f 1f 84 00 00 00 00 	nopl   0x0(%rax,%rax,1)
    64ff:	00 
    6500:	4c 89 ef             	mov    %r13,%rdi
    6503:	e8 09 78 00 00       	callq  dd11 <do_rdrand>
    6508:	85 c0                	test   %eax,%eax
    650a:	74 64                	je     6570 <sgx_read_rand+0x100>
    650c:	48 83 fb 04          	cmp    $0x4,%rbx
    6510:	4c 89 f5             	mov    %r14,%rbp
    6513:	4c 89 e7             	mov    %r12,%rdi
    6516:	48 0f 46 eb          	cmovbe %rbx,%rbp
    651a:	4c 89 ee             	mov    %r13,%rsi
    651d:	48 89 ea             	mov    %rbp,%rdx
    6520:	49 01 ec             	add    %rbp,%r12
    6523:	e8 58 66 00 00       	callq  cb80 <memcpy>
    6528:	48 29 eb             	sub    %rbp,%rbx
    652b:	75 d3                	jne    6500 <sgx_read_rand+0x90>
    652d:	b9 04 00 00 00       	mov    $0x4,%ecx
    6532:	31 d2                	xor    %edx,%edx
    6534:	be 04 00 00 00       	mov    $0x4,%esi
    6539:	4c 89 ef             	mov    %r13,%rdi
    653c:	e8 9f 66 00 00       	callq  cbe0 <memset_s>
    6541:	31 c0                	xor    %eax,%eax
    6543:	48 8b 4c 24 08       	mov    0x8(%rsp),%rcx
    6548:	64 48 33 0c 25 28 00 	xor    %fs:0x28,%rcx
    654f:	00 00 
    6551:	75 6a                	jne    65bd <sgx_read_rand+0x14d>
    6553:	48 83 c4 10          	add    $0x10,%rsp
    6557:	5b                   	pop    %rbx
    6558:	5d                   	pop    %rbp
    6559:	41 5c                	pop    %r12
    655b:	41 5d                	pop    %r13
    655d:	41 5e                	pop    %r14
    655f:	c3                   	retq   
    6560:	b8 02 00 00 00       	mov    $0x2,%eax
    6565:	eb dc                	jmp    6543 <sgx_read_rand+0xd3>
    6567:	66 0f 1f 84 00 00 00 	nopw   0x0(%rax,%rax,1)
    656e:	00 00 
    6570:	b8 01 00 00 00       	mov    $0x1,%eax
    6575:	eb cc                	jmp    6543 <sgx_read_rand+0xd3>
    6577:	66 0f 1f 84 00 00 00 	nopw   0x0(%rax,%rax,1)
    657e:	00 00 
    6580:	48 8b 46 08          	mov    0x8(%rsi),%rax
    6584:	48 8d 74 01 ff       	lea    -0x1(%rcx,%rax,1),%rsi
    6589:	48 39 d1             	cmp    %rdx,%rcx
    658c:	0f 87 53 ff ff ff    	ja     64e5 <sgx_read_rand+0x75>
    6592:	49 39 f4             	cmp    %rsi,%r12
    6595:	b8 02 00 00 00       	mov    $0x2,%eax
    659a:	0f 87 45 ff ff ff    	ja     64e5 <sgx_read_rand+0x75>
    65a0:	eb a1                	jmp    6543 <sgx_read_rand+0xd3>
    65a2:	66 0f 1f 44 00 00    	nopw   0x0(%rax,%rax,1)
    65a8:	4d 85 c0             	test   %r8,%r8
    65ab:	48 8b 76 08          	mov    0x8(%rsi),%rsi
    65af:	b8 02 00 00 00       	mov    $0x2,%eax
    65b4:	75 8d                	jne    6543 <sgx_read_rand+0xd3>
    65b6:	48 8d 74 31 ff       	lea    -0x1(%rcx,%rsi,1),%rsi
    65bb:	eb cc                	jmp    6589 <sgx_read_rand+0x119>
    65bd:	e8 4e 2e 00 00       	callq  9410 <__stack_chk_fail>
    65c2:	66 2e 0f 1f 84 00 00 	nopw   %cs:0x0(%rax,%rax,1)
    65c9:	00 00 00 
    65cc:	0f 1f 40 00          	nopl   0x0(%rax)

00000000000065d0 <check_static_stack_canary>:
    65d0:	48 8d 05 41 b8 00 00 	lea    0xb841(%rip),%rax        # 11e18 <__intel_security_cookie>
    65d7:	48 8b 00             	mov    (%rax),%rax
    65da:	48 39 87 58 fd fe ff 	cmp    %rax,-0x102a8(%rdi)
    65e1:	0f 95 c0             	setne  %al
    65e4:	0f b6 c0             	movzbl %al,%eax
    65e7:	f7 d8                	neg    %eax
    65e9:	c3                   	retq   
    65ea:	66 0f 1f 44 00 00    	nopw   0x0(%rax,%rax,1)

00000000000065f0 <_ZL19sgx_accept_backwardmmm>:
    65f0:	4c 8d 54 24 08       	lea    0x8(%rsp),%r10
    65f5:	48 83 e4 c0          	and    $0xffffffffffffffc0,%rsp
    65f9:	41 ff 72 f8          	pushq  -0x8(%r10)
    65fd:	55                   	push   %rbp
    65fe:	48 89 e5             	mov    %rsp,%rbp
    6601:	41 55                	push   %r13
    6603:	41 54                	push   %r12
    6605:	41 52                	push   %r10
    6607:	53                   	push   %rbx
    6608:	48 81 ec 90 00 00 00 	sub    $0x90,%rsp
    660f:	48 89 bd 50 ff ff ff 	mov    %rdi,-0xb0(%rbp)
    6616:	48 c7 85 58 ff ff ff 	movq   $0x0,-0xa8(%rbp)
    661d:	00 00 00 00 
    6621:	64 48 8b 04 25 28 00 	mov    %fs:0x28,%rax
    6628:	00 00 
    662a:	48 89 45 c8          	mov    %rax,-0x38(%rbp)
    662e:	31 c0                	xor    %eax,%eax
    6630:	48 39 f2             	cmp    %rsi,%rdx
    6633:	48 c7 85 60 ff ff ff 	movq   $0x0,-0xa0(%rbp)
    663a:	00 00 00 00 
    663e:	48 c7 85 68 ff ff ff 	movq   $0x0,-0x98(%rbp)
    6645:	00 00 00 00 
    6649:	48 c7 85 70 ff ff ff 	movq   $0x0,-0x90(%rbp)
    6650:	00 00 00 00 
    6654:	48 c7 85 78 ff ff ff 	movq   $0x0,-0x88(%rbp)
    665b:	00 00 00 00 
    665f:	48 c7 45 80 00 00 00 	movq   $0x0,-0x80(%rbp)
    6666:	00 
    6667:	48 c7 45 88 00 00 00 	movq   $0x0,-0x78(%rbp)
    666e:	00 
    666f:	76 2a                	jbe    669b <_ZL19sgx_accept_backwardmmm+0xab>
    6671:	4c 8d ad 50 ff ff ff 	lea    -0xb0(%rbp),%r13
    6678:	49 89 f4             	mov    %rsi,%r12
    667b:	48 89 d3             	mov    %rdx,%rbx
    667e:	66 90                	xchg   %ax,%ax
    6680:	48 81 eb 00 10 00 00 	sub    $0x1000,%rbx
    6687:	4c 89 ef             	mov    %r13,%rdi
    668a:	48 89 de             	mov    %rbx,%rsi
    668d:	e8 50 76 00 00       	callq  dce2 <do_eaccept>
    6692:	85 c0                	test   %eax,%eax
    6694:	75 2a                	jne    66c0 <_ZL19sgx_accept_backwardmmm+0xd0>
    6696:	49 39 dc             	cmp    %rbx,%r12
    6699:	72 e5                	jb     6680 <_ZL19sgx_accept_backwardmmm+0x90>
    669b:	31 c0                	xor    %eax,%eax
    669d:	48 8b 4d c8          	mov    -0x38(%rbp),%rcx
    66a1:	64 48 33 0c 25 28 00 	xor    %fs:0x28,%rcx
    66a8:	00 00 
    66aa:	75 19                	jne    66c5 <_ZL19sgx_accept_backwardmmm+0xd5>
    66ac:	48 81 c4 90 00 00 00 	add    $0x90,%rsp
    66b3:	5b                   	pop    %rbx
    66b4:	41 5a                	pop    %r10
    66b6:	41 5c                	pop    %r12
    66b8:	41 5d                	pop    %r13
    66ba:	5d                   	pop    %rbp
    66bb:	49 8d 62 f8          	lea    -0x8(%r10),%rsp
    66bf:	c3                   	retq   
    66c0:	e8 6b 76 00 00       	callq  dd30 <abort>
    66c5:	e8 46 2d 00 00       	callq  9410 <__stack_chk_fail>
    66ca:	66 0f 1f 44 00 00    	nopw   0x0(%rax,%rax,1)

00000000000066d0 <_ZL25check_dynamic_entry_rangePvmtmP24dynamic_flags_attributes.part.0>:
    66d0:	41 57                	push   %r15
    66d2:	41 56                	push   %r14
    66d4:	41 55                	push   %r13
    66d6:	41 54                	push   %r12
    66d8:	55                   	push   %rbp
    66d9:	53                   	push   %rbx
    66da:	48 83 ec 08          	sub    $0x8,%rsp
    66de:	48 8d 2d db 79 00 00 	lea    0x79db(%rip),%rbp        # e0c0 <g_global_data>
    66e5:	8b 85 30 01 00 00    	mov    0x130(%rbp),%eax
    66eb:	85 c0                	test   %eax,%eax
    66ed:	74 46                	je     6735 <_ZL25check_dynamic_entry_rangePvmtmP24dynamic_flags_attributes.part.0+0x65>
    66ef:	0f b7 85 38 01 00 00 	movzwl 0x138(%rbp),%eax
    66f6:	66 39 c2             	cmp    %ax,%dx
    66f9:	0f 84 e1 00 00 00    	je     67e0 <_ZL25check_dynamic_entry_rangePvmtmP24dynamic_flags_attributes.part.0+0x110>
    66ff:	41 89 d1             	mov    %edx,%r9d
    6702:	31 db                	xor    %ebx,%ebx
    6704:	eb 22                	jmp    6728 <_ZL25check_dynamic_entry_rangePvmtmP24dynamic_flags_attributes.part.0+0x58>
    6706:	66 2e 0f 1f 84 00 00 	nopw   %cs:0x0(%rax,%rax,1)
    670d:	00 00 00 
    6710:	89 d8                	mov    %ebx,%eax
    6712:	48 c1 e0 05          	shl    $0x5,%rax
    6716:	48 8d 54 05 00       	lea    0x0(%rbp,%rax,1),%rdx
    671b:	0f b7 92 38 01 00 00 	movzwl 0x138(%rdx),%edx
    6722:	66 44 39 ca          	cmp    %r9w,%dx
    6726:	74 28                	je     6750 <_ZL25check_dynamic_entry_rangePvmtmP24dynamic_flags_attributes.part.0+0x80>
    6728:	8b 85 30 01 00 00    	mov    0x130(%rbp),%eax
    672e:	83 c3 01             	add    $0x1,%ebx
    6731:	39 d8                	cmp    %ebx,%eax
    6733:	77 db                	ja     6710 <_ZL25check_dynamic_entry_rangePvmtmP24dynamic_flags_attributes.part.0+0x40>
    6735:	b8 ff ff ff ff       	mov    $0xffffffff,%eax
    673a:	48 83 c4 08          	add    $0x8,%rsp
    673e:	5b                   	pop    %rbx
    673f:	5d                   	pop    %rbp
    6740:	41 5c                	pop    %r12
    6742:	41 5d                	pop    %r13
    6744:	41 5e                	pop    %r14
    6746:	41 5f                	pop    %r15
    6748:	c3                   	retq   
    6749:	0f 1f 80 00 00 00 00 	nopl   0x0(%rax)
    6750:	48 05 38 01 00 00    	add    $0x138,%rax
    6756:	48 01 e8             	add    %rbp,%rax
    6759:	74 da                	je     6735 <_ZL25check_dynamic_entry_rangePvmtmP24dynamic_flags_attributes.part.0+0x65>
    675b:	4d 89 c6             	mov    %r8,%r14
    675e:	49 89 cd             	mov    %rcx,%r13
    6761:	49 89 ff             	mov    %rdi,%r15
    6764:	49 89 f4             	mov    %rsi,%r12
    6767:	e8 5a 72 00 00       	callq  d9c6 <get_enclave_base>
    676c:	49 89 d8             	mov    %rbx,%r8
    676f:	49 c1 e0 05          	shl    $0x5,%r8
    6773:	49 01 e8             	add    %rbp,%r8
    6776:	49 8b 90 40 01 00 00 	mov    0x140(%r8),%rdx
    677d:	4c 01 ea             	add    %r13,%rdx
    6780:	48 01 d0             	add    %rdx,%rax
    6783:	41 8b 90 3c 01 00 00 	mov    0x13c(%r8),%edx
    678a:	4c 39 f8             	cmp    %r15,%rax
    678d:	77 a6                	ja     6735 <_ZL25check_dynamic_entry_rangePvmtmP24dynamic_flags_attributes.part.0+0x65>
    678f:	4c 89 e6             	mov    %r12,%rsi
    6792:	48 c1 e2 0c          	shl    $0xc,%rdx
    6796:	48 c1 e6 0c          	shl    $0xc,%rsi
    679a:	48 01 c2             	add    %rax,%rdx
    679d:	4a 8d 3c 3e          	lea    (%rsi,%r15,1),%rdi
    67a1:	48 39 d7             	cmp    %rdx,%rdi
    67a4:	77 8f                	ja     6735 <_ZL25check_dynamic_entry_rangePvmtmP24dynamic_flags_attributes.part.0+0x65>
    67a6:	31 c0                	xor    %eax,%eax
    67a8:	4d 85 f6             	test   %r14,%r14
    67ab:	74 8d                	je     673a <_ZL25check_dynamic_entry_rangePvmtmP24dynamic_flags_attributes.part.0+0x6a>
    67ad:	48 83 c3 0a          	add    $0xa,%rbx
    67b1:	48 c1 e3 05          	shl    $0x5,%rbx
    67b5:	48 01 dd             	add    %rbx,%rbp
    67b8:	48 8b 55 10          	mov    0x10(%rbp),%rdx
    67bc:	49 89 16             	mov    %rdx,(%r14)
    67bf:	41 0f b7 90 3a 01 00 	movzwl 0x13a(%r8),%edx
    67c6:	00 
    67c7:	66 41 89 56 08       	mov    %dx,0x8(%r14)
    67cc:	48 83 c4 08          	add    $0x8,%rsp
    67d0:	5b                   	pop    %rbx
    67d1:	5d                   	pop    %rbp
    67d2:	41 5c                	pop    %r12
    67d4:	41 5d                	pop    %r13
    67d6:	41 5e                	pop    %r14
    67d8:	41 5f                	pop    %r15
    67da:	c3                   	retq   
    67db:	0f 1f 44 00 00       	nopl   0x0(%rax,%rax,1)
    67e0:	b8 38 01 00 00       	mov    $0x138,%eax
    67e5:	31 db                	xor    %ebx,%ebx
    67e7:	e9 6a ff ff ff       	jmpq   6756 <_ZL25check_dynamic_entry_rangePvmtmP24dynamic_flags_attributes.part.0+0x86>
    67ec:	0f 1f 40 00          	nopl   0x0(%rax)

00000000000067f0 <_ZL19check_dynamic_rangePvmPmP24dynamic_flags_attributes>:
    67f0:	41 57                	push   %r15
    67f2:	49 89 f7             	mov    %rsi,%r15
    67f5:	41 56                	push   %r14
    67f7:	49 c1 e7 0c          	shl    $0xc,%r15
    67fb:	41 55                	push   %r13
    67fd:	41 54                	push   %r12
    67ff:	4c 89 f8             	mov    %r15,%rax
    6802:	55                   	push   %rbp
    6803:	53                   	push   %rbx
    6804:	48 f7 d0             	not    %rax
    6807:	48 83 ec 28          	sub    $0x28,%rsp
    680b:	48 39 f8             	cmp    %rdi,%rax
    680e:	0f 82 35 01 00 00    	jb     6949 <_ZL19check_dynamic_rangePvmPmP24dynamic_flags_attributes+0x159>
    6814:	48 89 fb             	mov    %rdi,%rbx
    6817:	48 89 cd             	mov    %rcx,%rbp
    681a:	48 89 54 24 10       	mov    %rdx,0x10(%rsp)
    681f:	49 89 f4             	mov    %rsi,%r12
    6822:	e8 89 16 00 00       	callq  7eb0 <get_heap_base>
    6827:	49 89 c5             	mov    %rax,%r13
    682a:	e8 01 17 00 00       	callq  7f30 <get_heap_min_size>
    682f:	49 01 c5             	add    %rax,%r13
    6832:	e8 99 16 00 00       	callq  7ed0 <get_heap_size>
    6837:	49 89 c6             	mov    %rax,%r14
    683a:	e8 f1 16 00 00       	callq  7f30 <get_heap_min_size>
    683f:	49 29 c6             	sub    %rax,%r14
    6842:	4c 39 eb             	cmp    %r13,%rbx
    6845:	72 39                	jb     6880 <_ZL19check_dynamic_rangePvmPmP24dynamic_flags_attributes+0x90>
    6847:	49 8d 04 1f          	lea    (%r15,%rbx,1),%rax
    684b:	4b 8d 54 35 00       	lea    0x0(%r13,%r14,1),%rdx
    6850:	48 39 d0             	cmp    %rdx,%rax
    6853:	77 2b                	ja     6880 <_ZL19check_dynamic_rangePvmPmP24dynamic_flags_attributes+0x90>
    6855:	48 85 ed             	test   %rbp,%rbp
    6858:	74 11                	je     686b <_ZL19check_dynamic_rangePvmPmP24dynamic_flags_attributes+0x7b>
    685a:	b8 08 00 00 00       	mov    $0x8,%eax
    685f:	48 c7 45 00 03 02 00 	movq   $0x203,0x0(%rbp)
    6866:	00 
    6867:	66 89 45 08          	mov    %ax,0x8(%rbp)
    686b:	31 c0                	xor    %eax,%eax
    686d:	48 83 c4 28          	add    $0x28,%rsp
    6871:	5b                   	pop    %rbx
    6872:	5d                   	pop    %rbp
    6873:	41 5c                	pop    %r12
    6875:	41 5d                	pop    %r13
    6877:	41 5e                	pop    %r14
    6879:	41 5f                	pop    %r15
    687b:	c3                   	retq   
    687c:	0f 1f 40 00          	nopl   0x0(%rax)
    6880:	31 c9                	xor    %ecx,%ecx
    6882:	49 89 e8             	mov    %rbp,%r8
    6885:	ba 07 00 00 00       	mov    $0x7,%edx
    688a:	4c 89 e6             	mov    %r12,%rsi
    688d:	48 89 df             	mov    %rbx,%rdi
    6890:	e8 3b fe ff ff       	callq  66d0 <_ZL25check_dynamic_entry_rangePvmtmP24dynamic_flags_attributes.part.0>
    6895:	85 c0                	test   %eax,%eax
    6897:	74 d2                	je     686b <_ZL19check_dynamic_rangePvmPmP24dynamic_flags_attributes+0x7b>
    6899:	48 8d 05 b8 b5 00 00 	lea    0xb5b8(%rip),%rax        # 11e58 <rsrv_mem_min_size>
    68a0:	48 8b 08             	mov    (%rax),%rcx
    68a3:	48 8d 05 be b5 00 00 	lea    0xb5be(%rip),%rax        # 11e68 <rsrv_mem_base>
    68aa:	48 8b 10             	mov    (%rax),%rdx
    68ad:	48 01 ca             	add    %rcx,%rdx
    68b0:	48 39 d3             	cmp    %rdx,%rbx
    68b3:	72 18                	jb     68cd <_ZL19check_dynamic_rangePvmPmP24dynamic_flags_attributes+0xdd>
    68b5:	48 8d 05 a4 b5 00 00 	lea    0xb5a4(%rip),%rax        # 11e60 <rsrv_mem_size>
    68bc:	49 01 df             	add    %rbx,%r15
    68bf:	48 8b 00             	mov    (%rax),%rax
    68c2:	48 29 c8             	sub    %rcx,%rax
    68c5:	48 01 d0             	add    %rdx,%rax
    68c8:	49 39 c7             	cmp    %rax,%r15
    68cb:	76 88                	jbe    6855 <_ZL19check_dynamic_rangePvmPmP24dynamic_flags_attributes+0x65>
    68cd:	48 8d 15 ec 77 00 00 	lea    0x77ec(%rip),%rdx        # e0c0 <g_global_data>
    68d4:	8b 82 30 01 00 00    	mov    0x130(%rdx),%eax
    68da:	85 c0                	test   %eax,%eax
    68dc:	74 40                	je     691e <_ZL19check_dynamic_rangePvmPmP24dynamic_flags_attributes+0x12e>
    68de:	0f b7 82 38 01 00 00 	movzwl 0x138(%rdx),%eax
    68e5:	66 3d 13 10          	cmp    $0x1013,%ax
    68e9:	0f 84 3b 01 00 00    	je     6a2a <_ZL19check_dynamic_rangePvmPmP24dynamic_flags_attributes+0x23a>
    68ef:	31 c0                	xor    %eax,%eax
    68f1:	eb 1e                	jmp    6911 <_ZL19check_dynamic_rangePvmPmP24dynamic_flags_attributes+0x121>
    68f3:	0f 1f 44 00 00       	nopl   0x0(%rax,%rax,1)
    68f8:	41 89 c1             	mov    %eax,%r9d
    68fb:	49 c1 e1 05          	shl    $0x5,%r9
    68ff:	4a 8d 0c 0a          	lea    (%rdx,%r9,1),%rcx
    6903:	0f b7 89 38 01 00 00 	movzwl 0x138(%rcx),%ecx
    690a:	66 81 f9 13 10       	cmp    $0x1013,%cx
    690f:	74 47                	je     6958 <_ZL19check_dynamic_rangePvmPmP24dynamic_flags_attributes+0x168>
    6911:	8b 8a 30 01 00 00    	mov    0x130(%rdx),%ecx
    6917:	83 c0 01             	add    $0x1,%eax
    691a:	39 c1                	cmp    %eax,%ecx
    691c:	77 da                	ja     68f8 <_ZL19check_dynamic_rangePvmPmP24dynamic_flags_attributes+0x108>
    691e:	41 be 0e 00 00 00    	mov    $0xe,%r14d
    6924:	31 c9                	xor    %ecx,%ecx
    6926:	49 89 e8             	mov    %rbp,%r8
    6929:	44 89 f2             	mov    %r14d,%edx
    692c:	4c 89 e6             	mov    %r12,%rsi
    692f:	48 89 df             	mov    %rbx,%rdi
    6932:	e8 99 fd ff ff       	callq  66d0 <_ZL25check_dynamic_entry_rangePvmtmP24dynamic_flags_attributes.part.0>
    6937:	85 c0                	test   %eax,%eax
    6939:	0f 84 d1 00 00 00    	je     6a10 <_ZL19check_dynamic_rangePvmPmP24dynamic_flags_attributes+0x220>
    693f:	41 83 c6 01          	add    $0x1,%r14d
    6943:	41 83 fe 13          	cmp    $0x13,%r14d
    6947:	75 db                	jne    6924 <_ZL19check_dynamic_rangePvmPmP24dynamic_flags_attributes+0x134>
    6949:	b8 ff ff ff ff       	mov    $0xffffffff,%eax
    694e:	e9 1a ff ff ff       	jmpq   686d <_ZL19check_dynamic_rangePvmPmP24dynamic_flags_attributes+0x7d>
    6953:	0f 1f 44 00 00       	nopl   0x0(%rax,%rax,1)
    6958:	49 81 c1 38 01 00 00 	add    $0x138,%r9
    695f:	49 01 d1             	add    %rdx,%r9
    6962:	74 ba                	je     691e <_ZL19check_dynamic_rangePvmPmP24dynamic_flags_attributes+0x12e>
    6964:	41 89 c1             	mov    %eax,%r9d
    6967:	c7 44 24 0c 0e 00 00 	movl   $0xe,0xc(%rsp)
    696e:	00 
    696f:	49 c1 e1 05          	shl    $0x5,%r9
    6973:	4e 8d 3c 0a          	lea    (%rdx,%r9,1),%r15
    6977:	41 8b 87 3c 01 00 00 	mov    0x13c(%r15),%eax
    697e:	83 f8 ff             	cmp    $0xffffffff,%eax
    6981:	74 75                	je     69f8 <_ZL19check_dynamic_rangePvmPmP24dynamic_flags_attributes+0x208>
    6983:	45 31 ed             	xor    %r13d,%r13d
    6986:	eb 1b                	jmp    69a3 <_ZL19check_dynamic_rangePvmPmP24dynamic_flags_attributes+0x1b3>
    6988:	0f 1f 84 00 00 00 00 	nopl   0x0(%rax,%rax,1)
    698f:	00 
    6990:	41 8b 87 3c 01 00 00 	mov    0x13c(%r15),%eax
    6997:	41 83 c5 01          	add    $0x1,%r13d
    699b:	83 c0 01             	add    $0x1,%eax
    699e:	44 39 e8             	cmp    %r13d,%eax
    69a1:	76 55                	jbe    69f8 <_ZL19check_dynamic_rangePvmPmP24dynamic_flags_attributes+0x208>
    69a3:	49 8b 8f 40 01 00 00 	mov    0x140(%r15),%rcx
    69aa:	45 89 ee             	mov    %r13d,%r14d
    69ad:	8b 54 24 0c          	mov    0xc(%rsp),%edx
    69b1:	49 8d 87 40 01 00 00 	lea    0x140(%r15),%rax
    69b8:	49 89 e8             	mov    %rbp,%r8
    69bb:	4c 89 e6             	mov    %r12,%rsi
    69be:	48 89 df             	mov    %rbx,%rdi
    69c1:	49 0f af ce          	imul   %r14,%rcx
    69c5:	48 89 44 24 18       	mov    %rax,0x18(%rsp)
    69ca:	e8 01 fd ff ff       	callq  66d0 <_ZL25check_dynamic_entry_rangePvmtmP24dynamic_flags_attributes.part.0>
    69cf:	85 c0                	test   %eax,%eax
    69d1:	75 bd                	jne    6990 <_ZL19check_dynamic_rangePvmPmP24dynamic_flags_attributes+0x1a0>
    69d3:	48 8b 5c 24 10       	mov    0x10(%rsp),%rbx
    69d8:	48 85 db             	test   %rbx,%rbx
    69db:	0f 84 8a fe ff ff    	je     686b <_ZL19check_dynamic_rangePvmPmP24dynamic_flags_attributes+0x7b>
    69e1:	48 8b 74 24 18       	mov    0x18(%rsp),%rsi
    69e6:	48 8b 16             	mov    (%rsi),%rdx
    69e9:	4c 0f af f2          	imul   %rdx,%r14
    69ed:	4c 89 33             	mov    %r14,(%rbx)
    69f0:	e9 78 fe ff ff       	jmpq   686d <_ZL19check_dynamic_rangePvmPmP24dynamic_flags_attributes+0x7d>
    69f5:	0f 1f 00             	nopl   (%rax)
    69f8:	83 44 24 0c 01       	addl   $0x1,0xc(%rsp)
    69fd:	8b 44 24 0c          	mov    0xc(%rsp),%eax
    6a01:	83 f8 13             	cmp    $0x13,%eax
    6a04:	0f 85 6d ff ff ff    	jne    6977 <_ZL19check_dynamic_rangePvmPmP24dynamic_flags_attributes+0x187>
    6a0a:	e9 3a ff ff ff       	jmpq   6949 <_ZL19check_dynamic_rangePvmPmP24dynamic_flags_attributes+0x159>
    6a0f:	90                   	nop
    6a10:	48 8b 5c 24 10       	mov    0x10(%rsp),%rbx
    6a15:	48 85 db             	test   %rbx,%rbx
    6a18:	0f 84 4d fe ff ff    	je     686b <_ZL19check_dynamic_rangePvmPmP24dynamic_flags_attributes+0x7b>
    6a1e:	48 c7 03 00 00 00 00 	movq   $0x0,(%rbx)
    6a25:	e9 43 fe ff ff       	jmpq   686d <_ZL19check_dynamic_rangePvmPmP24dynamic_flags_attributes+0x7d>
    6a2a:	41 b9 38 01 00 00    	mov    $0x138,%r9d
    6a30:	31 c0                	xor    %eax,%eax
    6a32:	e9 28 ff ff ff       	jmpq   695f <_ZL19check_dynamic_rangePvmPmP24dynamic_flags_attributes+0x16f>
    6a37:	66 0f 1f 84 00 00 00 	nopw   0x0(%rax,%rax,1)
    6a3e:	00 00 

0000000000006a40 <_Z24get_dynamic_layout_by_idt>:
    6a40:	48 8d 05 79 76 00 00 	lea    0x7679(%rip),%rax        # e0c0 <g_global_data>
    6a47:	41 89 f8             	mov    %edi,%r8d
    6a4a:	8b 90 30 01 00 00    	mov    0x130(%rax),%edx
    6a50:	85 d2                	test   %edx,%edx
    6a52:	74 38                	je     6a8c <_Z24get_dynamic_layout_by_idt+0x4c>
    6a54:	0f b7 90 38 01 00 00 	movzwl 0x138(%rax),%edx
    6a5b:	66 39 d7             	cmp    %dx,%di
    6a5e:	74 40                	je     6aa0 <_Z24get_dynamic_layout_by_idt+0x60>
    6a60:	31 d2                	xor    %edx,%edx
    6a62:	eb 1b                	jmp    6a7f <_Z24get_dynamic_layout_by_idt+0x3f>
    6a64:	0f 1f 40 00          	nopl   0x0(%rax)
    6a68:	89 d1                	mov    %edx,%ecx
    6a6a:	48 c1 e1 05          	shl    $0x5,%rcx
    6a6e:	48 8d 34 08          	lea    (%rax,%rcx,1),%rsi
    6a72:	0f b7 b6 38 01 00 00 	movzwl 0x138(%rsi),%esi
    6a79:	66 44 39 c6          	cmp    %r8w,%si
    6a7d:	74 11                	je     6a90 <_Z24get_dynamic_layout_by_idt+0x50>
    6a7f:	8b 88 30 01 00 00    	mov    0x130(%rax),%ecx
    6a85:	83 c2 01             	add    $0x1,%edx
    6a88:	39 d1                	cmp    %edx,%ecx
    6a8a:	77 dc                	ja     6a68 <_Z24get_dynamic_layout_by_idt+0x28>
    6a8c:	31 c0                	xor    %eax,%eax
    6a8e:	c3                   	retq   
    6a8f:	90                   	nop
    6a90:	48 81 c1 38 01 00 00 	add    $0x138,%rcx
    6a97:	48 01 c8             	add    %rcx,%rax
    6a9a:	c3                   	retq   
    6a9b:	0f 1f 44 00 00       	nopl   0x0(%rax,%rax,1)
    6aa0:	b9 38 01 00 00       	mov    $0x138,%ecx
    6aa5:	eb f0                	jmp    6a97 <_Z24get_dynamic_layout_by_idt+0x57>
    6aa7:	66 0f 1f 84 00 00 00 	nopw   0x0(%rax,%rax,1)
    6aae:	00 00 

0000000000006ab0 <is_dynamic_thread>:
    6ab0:	48 83 ec 28          	sub    $0x28,%rsp
    6ab4:	64 48 8b 04 25 28 00 	mov    %fs:0x28,%rax
    6abb:	00 00 
    6abd:	48 89 44 24 18       	mov    %rax,0x18(%rsp)
    6ac2:	31 c0                	xor    %eax,%eax
    6ac4:	48 85 ff             	test   %rdi,%rdi
    6ac7:	74 27                	je     6af0 <is_dynamic_thread+0x40>
    6ac9:	31 d2                	xor    %edx,%edx
    6acb:	48 89 e1             	mov    %rsp,%rcx
    6ace:	be 01 00 00 00       	mov    $0x1,%esi
    6ad3:	e8 18 fd ff ff       	callq  67f0 <_ZL19check_dynamic_rangePvmPmP24dynamic_flags_attributes>
    6ad8:	85 c0                	test   %eax,%eax
    6ada:	75 14                	jne    6af0 <is_dynamic_thread+0x40>
    6adc:	31 c0                	xor    %eax,%eax
    6ade:	48 81 3c 24 00 01 00 	cmpq   $0x100,(%rsp)
    6ae5:	00 
    6ae6:	0f 94 c0             	sete   %al
    6ae9:	eb 07                	jmp    6af2 <is_dynamic_thread+0x42>
    6aeb:	0f 1f 44 00 00       	nopl   0x0(%rax,%rax,1)
    6af0:	31 c0                	xor    %eax,%eax
    6af2:	48 8b 54 24 18       	mov    0x18(%rsp),%rdx
    6af7:	64 48 33 14 25 28 00 	xor    %fs:0x28,%rdx
    6afe:	00 00 
    6b00:	75 05                	jne    6b07 <is_dynamic_thread+0x57>
    6b02:	48 83 c4 28          	add    $0x28,%rsp
    6b06:	c3                   	retq   
    6b07:	e8 04 29 00 00       	callq  9410 <__stack_chk_fail>
    6b0c:	0f 1f 40 00          	nopl   0x0(%rax)

0000000000006b10 <is_dynamic_thread_exist>:
    6b10:	48 8d 05 11 b3 00 00 	lea    0xb311(%rip),%rax        # 11e28 <EDMM_supported>
    6b17:	8b 00                	mov    (%rax),%eax
    6b19:	85 c0                	test   %eax,%eax
    6b1b:	74 49                	je     6b66 <is_dynamic_thread_exist+0x56>
    6b1d:	48 8d 0d 9c 75 00 00 	lea    0x759c(%rip),%rcx        # e0c0 <g_global_data>
    6b24:	8b 81 30 01 00 00    	mov    0x130(%rcx),%eax
    6b2a:	85 c0                	test   %eax,%eax
    6b2c:	74 36                	je     6b64 <is_dynamic_thread_exist+0x54>
    6b2e:	0f b7 81 38 01 00 00 	movzwl 0x138(%rcx),%eax
    6b35:	66 83 f8 12          	cmp    $0x12,%ax
    6b39:	74 45                	je     6b80 <is_dynamic_thread_exist+0x70>
    6b3b:	31 c0                	xor    %eax,%eax
    6b3d:	eb 18                	jmp    6b57 <is_dynamic_thread_exist+0x47>
    6b3f:	90                   	nop
    6b40:	89 c2                	mov    %eax,%edx
    6b42:	48 c1 e2 05          	shl    $0x5,%rdx
    6b46:	48 8d 34 11          	lea    (%rcx,%rdx,1),%rsi
    6b4a:	0f b7 b6 38 01 00 00 	movzwl 0x138(%rsi),%esi
    6b51:	66 83 fe 12          	cmp    $0x12,%si
    6b55:	74 19                	je     6b70 <is_dynamic_thread_exist+0x60>
    6b57:	8b 91 30 01 00 00    	mov    0x130(%rcx),%edx
    6b5d:	83 c0 01             	add    $0x1,%eax
    6b60:	39 c2                	cmp    %eax,%edx
    6b62:	77 dc                	ja     6b40 <is_dynamic_thread_exist+0x30>
    6b64:	31 c0                	xor    %eax,%eax
    6b66:	f3 c3                	repz retq 
    6b68:	0f 1f 84 00 00 00 00 	nopl   0x0(%rax,%rax,1)
    6b6f:	00 
    6b70:	48 81 c2 38 01 00 00 	add    $0x138,%rdx
    6b77:	31 c0                	xor    %eax,%eax
    6b79:	48 01 d1             	add    %rdx,%rcx
    6b7c:	0f 95 c0             	setne  %al
    6b7f:	c3                   	retq   
    6b80:	ba 38 01 00 00       	mov    $0x138,%edx
    6b85:	eb f0                	jmp    6b77 <is_dynamic_thread_exist+0x67>
    6b87:	66 0f 1f 84 00 00 00 	nopw   0x0(%rax,%rax,1)
    6b8e:	00 00 

0000000000006b90 <get_dynamic_stack_max_page>:
    6b90:	48 8d 0d 29 75 00 00 	lea    0x7529(%rip),%rcx        # e0c0 <g_global_data>
    6b97:	8b 81 30 01 00 00    	mov    0x130(%rcx),%eax
    6b9d:	85 c0                	test   %eax,%eax
    6b9f:	74 3d                	je     6bde <get_dynamic_stack_max_page+0x4e>
    6ba1:	0f b7 81 38 01 00 00 	movzwl 0x138(%rcx),%eax
    6ba8:	66 83 f8 07          	cmp    $0x7,%ax
    6bac:	74 52                	je     6c00 <get_dynamic_stack_max_page+0x70>
    6bae:	31 c0                	xor    %eax,%eax
    6bb0:	eb 1d                	jmp    6bcf <get_dynamic_stack_max_page+0x3f>
    6bb2:	66 0f 1f 44 00 00    	nopw   0x0(%rax,%rax,1)
    6bb8:	89 c2                	mov    %eax,%edx
    6bba:	48 c1 e2 05          	shl    $0x5,%rdx
    6bbe:	48 8d 34 11          	lea    (%rcx,%rdx,1),%rsi
    6bc2:	0f b7 b6 38 01 00 00 	movzwl 0x138(%rsi),%esi
    6bc9:	66 83 fe 07          	cmp    $0x7,%si
    6bcd:	74 11                	je     6be0 <get_dynamic_stack_max_page+0x50>
    6bcf:	8b 91 30 01 00 00    	mov    0x130(%rcx),%edx
    6bd5:	83 c0 01             	add    $0x1,%eax
    6bd8:	39 c2                	cmp    %eax,%edx
    6bda:	77 dc                	ja     6bb8 <get_dynamic_stack_max_page+0x28>
    6bdc:	31 c0                	xor    %eax,%eax
    6bde:	f3 c3                	repz retq 
    6be0:	48 81 c2 38 01 00 00 	add    $0x138,%rdx
    6be7:	48 01 ca             	add    %rcx,%rdx
    6bea:	74 f0                	je     6bdc <get_dynamic_stack_max_page+0x4c>
    6bec:	48 c1 e0 05          	shl    $0x5,%rax
    6bf0:	48 01 c8             	add    %rcx,%rax
    6bf3:	8b 80 3c 01 00 00    	mov    0x13c(%rax),%eax
    6bf9:	c3                   	retq   
    6bfa:	66 0f 1f 44 00 00    	nopw   0x0(%rax,%rax,1)
    6c00:	ba 38 01 00 00       	mov    $0x138,%edx
    6c05:	31 c0                	xor    %eax,%eax
    6c07:	eb de                	jmp    6be7 <get_dynamic_stack_max_page+0x57>
    6c09:	0f 1f 80 00 00 00 00 	nopl   0x0(%rax)

0000000000006c10 <sgx_accept_forward>:
    6c10:	4c 8d 54 24 08       	lea    0x8(%rsp),%r10
    6c15:	48 83 e4 c0          	and    $0xffffffffffffffc0,%rsp
    6c19:	41 ff 72 f8          	pushq  -0x8(%r10)
    6c1d:	55                   	push   %rbp
    6c1e:	48 89 e5             	mov    %rsp,%rbp
    6c21:	41 55                	push   %r13
    6c23:	41 54                	push   %r12
    6c25:	41 52                	push   %r10
    6c27:	53                   	push   %rbx
    6c28:	48 81 ec 90 00 00 00 	sub    $0x90,%rsp
    6c2f:	48 89 bd 50 ff ff ff 	mov    %rdi,-0xb0(%rbp)
    6c36:	48 c7 85 58 ff ff ff 	movq   $0x0,-0xa8(%rbp)
    6c3d:	00 00 00 00 
    6c41:	64 48 8b 04 25 28 00 	mov    %fs:0x28,%rax
    6c48:	00 00 
    6c4a:	48 89 45 c8          	mov    %rax,-0x38(%rbp)
    6c4e:	31 c0                	xor    %eax,%eax
    6c50:	48 39 d6             	cmp    %rdx,%rsi
    6c53:	48 c7 85 60 ff ff ff 	movq   $0x0,-0xa0(%rbp)
    6c5a:	00 00 00 00 
    6c5e:	48 c7 85 68 ff ff ff 	movq   $0x0,-0x98(%rbp)
    6c65:	00 00 00 00 
    6c69:	48 c7 85 70 ff ff ff 	movq   $0x0,-0x90(%rbp)
    6c70:	00 00 00 00 
    6c74:	48 c7 85 78 ff ff ff 	movq   $0x0,-0x88(%rbp)
    6c7b:	00 00 00 00 
    6c7f:	48 c7 45 80 00 00 00 	movq   $0x0,-0x80(%rbp)
    6c86:	00 
    6c87:	48 c7 45 88 00 00 00 	movq   $0x0,-0x78(%rbp)
    6c8e:	00 
    6c8f:	73 2a                	jae    6cbb <sgx_accept_forward+0xab>
    6c91:	4c 8d ad 50 ff ff ff 	lea    -0xb0(%rbp),%r13
    6c98:	48 89 f3             	mov    %rsi,%rbx
    6c9b:	49 89 d4             	mov    %rdx,%r12
    6c9e:	66 90                	xchg   %ax,%ax
    6ca0:	48 89 de             	mov    %rbx,%rsi
    6ca3:	4c 89 ef             	mov    %r13,%rdi
    6ca6:	e8 37 70 00 00       	callq  dce2 <do_eaccept>
    6cab:	85 c0                	test   %eax,%eax
    6cad:	75 31                	jne    6ce0 <sgx_accept_forward+0xd0>
    6caf:	48 81 c3 00 10 00 00 	add    $0x1000,%rbx
    6cb6:	49 39 dc             	cmp    %rbx,%r12
    6cb9:	77 e5                	ja     6ca0 <sgx_accept_forward+0x90>
    6cbb:	31 c0                	xor    %eax,%eax
    6cbd:	48 8b 4d c8          	mov    -0x38(%rbp),%rcx
    6cc1:	64 48 33 0c 25 28 00 	xor    %fs:0x28,%rcx
    6cc8:	00 00 
    6cca:	75 19                	jne    6ce5 <sgx_accept_forward+0xd5>
    6ccc:	48 81 c4 90 00 00 00 	add    $0x90,%rsp
    6cd3:	5b                   	pop    %rbx
    6cd4:	41 5a                	pop    %r10
    6cd6:	41 5c                	pop    %r12
    6cd8:	41 5d                	pop    %r13
    6cda:	5d                   	pop    %rbp
    6cdb:	49 8d 62 f8          	lea    -0x8(%r10),%rsp
    6cdf:	c3                   	retq   
    6ce0:	e8 4b 70 00 00       	callq  dd30 <abort>
    6ce5:	e8 26 27 00 00       	callq  9410 <__stack_chk_fail>
    6cea:	66 0f 1f 44 00 00    	nopw   0x0(%rax,%rax,1)

0000000000006cf0 <_Z18accept_post_removePVK9_layout_tS1_m>:
    6cf0:	48 39 f7             	cmp    %rsi,%rdi
    6cf3:	0f 83 d7 00 00 00    	jae    6dd0 <_Z18accept_post_removePVK9_layout_tS1_m+0xe0>
    6cf9:	41 56                	push   %r14
    6cfb:	41 55                	push   %r13
    6cfd:	41 54                	push   %r12
    6cff:	49 89 d4             	mov    %rdx,%r12
    6d02:	55                   	push   %rbp
    6d03:	48 89 f5             	mov    %rsi,%rbp
    6d06:	53                   	push   %rbx
    6d07:	48 89 fb             	mov    %rdi,%rbx
    6d0a:	eb 19                	jmp    6d25 <_Z18accept_post_removePVK9_layout_tS1_m+0x35>
    6d0c:	0f 1f 40 00          	nopl   0x0(%rax)
    6d10:	0f b7 03             	movzwl (%rbx),%eax
    6d13:	f6 c4 10             	test   $0x10,%ah
    6d16:	75 58                	jne    6d70 <_Z18accept_post_removePVK9_layout_tS1_m+0x80>
    6d18:	48 83 c3 20          	add    $0x20,%rbx
    6d1c:	48 39 dd             	cmp    %rbx,%rbp
    6d1f:	0f 86 97 00 00 00    	jbe    6dbc <_Z18accept_post_removePVK9_layout_tS1_m+0xcc>
    6d25:	0f b7 03             	movzwl (%rbx),%eax
    6d28:	f6 c4 10             	test   $0x10,%ah
    6d2b:	75 e3                	jne    6d10 <_Z18accept_post_removePVK9_layout_tS1_m+0x20>
    6d2d:	0f b7 43 02          	movzwl 0x2(%rbx),%eax
    6d31:	a8 10                	test   $0x10,%al
    6d33:	74 db                	je     6d10 <_Z18accept_post_removePVK9_layout_tS1_m+0x20>
    6d35:	48 8b 73 08          	mov    0x8(%rbx),%rsi
    6d39:	4e 8d 2c 26          	lea    (%rsi,%r12,1),%r13
    6d3d:	e8 84 6c 00 00       	callq  d9c6 <get_enclave_base>
    6d42:	8b 53 04             	mov    0x4(%rbx),%edx
    6d45:	4a 8d 34 28          	lea    (%rax,%r13,1),%rsi
    6d49:	bf 10 04 00 00       	mov    $0x410,%edi
    6d4e:	48 c1 e2 0c          	shl    $0xc,%rdx
    6d52:	48 01 f2             	add    %rsi,%rdx
    6d55:	e8 b6 fe ff ff       	callq  6c10 <sgx_accept_forward>
    6d5a:	85 c0                	test   %eax,%eax
    6d5c:	74 ba                	je     6d18 <_Z18accept_post_removePVK9_layout_tS1_m+0x28>
    6d5e:	5b                   	pop    %rbx
    6d5f:	5d                   	pop    %rbp
    6d60:	41 5c                	pop    %r12
    6d62:	41 5d                	pop    %r13
    6d64:	41 5e                	pop    %r14
    6d66:	c3                   	retq   
    6d67:	66 0f 1f 84 00 00 00 	nopw   0x0(%rax,%rax,1)
    6d6e:	00 00 
    6d70:	8b 43 04             	mov    0x4(%rbx),%eax
    6d73:	85 c0                	test   %eax,%eax
    6d75:	74 a1                	je     6d18 <_Z18accept_post_removePVK9_layout_tS1_m+0x28>
    6d77:	45 31 f6             	xor    %r14d,%r14d
    6d7a:	45 31 ed             	xor    %r13d,%r13d
    6d7d:	48 8b 43 08          	mov    0x8(%rbx),%rax
    6d81:	0f b7 7b 02          	movzwl 0x2(%rbx),%edi
    6d85:	48 89 de             	mov    %rbx,%rsi
    6d88:	49 01 c5             	add    %rax,%r13
    6d8b:	f7 df                	neg    %edi
    6d8d:	4c 89 ea             	mov    %r13,%rdx
    6d90:	48 63 ff             	movslq %edi,%rdi
    6d93:	48 c1 e7 05          	shl    $0x5,%rdi
    6d97:	48 01 df             	add    %rbx,%rdi
    6d9a:	e8 51 ff ff ff       	callq  6cf0 <_Z18accept_post_removePVK9_layout_tS1_m>
    6d9f:	85 c0                	test   %eax,%eax
    6da1:	75 bb                	jne    6d5e <_Z18accept_post_removePVK9_layout_tS1_m+0x6e>
    6da3:	8b 43 04             	mov    0x4(%rbx),%eax
    6da6:	41 83 c6 01          	add    $0x1,%r14d
    6daa:	44 39 f0             	cmp    %r14d,%eax
    6dad:	77 ce                	ja     6d7d <_Z18accept_post_removePVK9_layout_tS1_m+0x8d>
    6daf:	48 83 c3 20          	add    $0x20,%rbx
    6db3:	48 39 dd             	cmp    %rbx,%rbp
    6db6:	0f 87 69 ff ff ff    	ja     6d25 <_Z18accept_post_removePVK9_layout_tS1_m+0x35>
    6dbc:	5b                   	pop    %rbx
    6dbd:	31 c0                	xor    %eax,%eax
    6dbf:	5d                   	pop    %rbp
    6dc0:	41 5c                	pop    %r12
    6dc2:	41 5d                	pop    %r13
    6dc4:	41 5e                	pop    %r14
    6dc6:	c3                   	retq   
    6dc7:	66 0f 1f 84 00 00 00 	nopw   0x0(%rax,%rax,1)
    6dce:	00 00 
    6dd0:	31 c0                	xor    %eax,%eax
    6dd2:	c3                   	retq   
    6dd3:	66 2e 0f 1f 84 00 00 	nopw   %cs:0x0(%rax,%rax,1)
    6dda:	00 00 00 
    6ddd:	0f 1f 00             	nopl   (%rax)

0000000000006de0 <apply_pages_within_exception>:
    6de0:	4c 8d 54 24 08       	lea    0x8(%rsp),%r10
    6de5:	48 83 e4 c0          	and    $0xffffffffffffffc0,%rsp
    6de9:	41 ff 72 f8          	pushq  -0x8(%r10)
    6ded:	55                   	push   %rbp
    6dee:	48 89 e5             	mov    %rsp,%rbp
    6df1:	41 56                	push   %r14
    6df3:	41 55                	push   %r13
    6df5:	41 54                	push   %r12
    6df7:	41 52                	push   %r10
    6df9:	53                   	push   %rbx
    6dfa:	48 81 ec 88 00 00 00 	sub    $0x88,%rsp
    6e01:	64 48 8b 04 25 28 00 	mov    %fs:0x28,%rax
    6e08:	00 00 
    6e0a:	48 89 45 c8          	mov    %rax,-0x38(%rbp)
    6e0e:	31 c0                	xor    %eax,%eax
    6e10:	48 85 ff             	test   %rdi,%rdi
    6e13:	0f 84 ca 00 00 00    	je     6ee3 <apply_pages_within_exception+0x103>
    6e19:	31 c9                	xor    %ecx,%ecx
    6e1b:	31 d2                	xor    %edx,%edx
    6e1d:	48 89 fb             	mov    %rdi,%rbx
    6e20:	49 89 f4             	mov    %rsi,%r12
    6e23:	e8 c8 f9 ff ff       	callq  67f0 <_ZL19check_dynamic_rangePvmPmP24dynamic_flags_attributes>
    6e28:	85 c0                	test   %eax,%eax
    6e2a:	41 89 c5             	mov    %eax,%r13d
    6e2d:	0f 85 b0 00 00 00    	jne    6ee3 <apply_pages_within_exception+0x103>
    6e33:	49 c1 e4 0c          	shl    $0xc,%r12
    6e37:	48 c7 85 50 ff ff ff 	movq   $0x20b,-0xb0(%rbp)
    6e3e:	0b 02 00 00 
    6e42:	48 c7 85 58 ff ff ff 	movq   $0x0,-0xa8(%rbp)
    6e49:	00 00 00 00 
    6e4d:	49 01 dc             	add    %rbx,%r12
    6e50:	48 c7 85 60 ff ff ff 	movq   $0x0,-0xa0(%rbp)
    6e57:	00 00 00 00 
    6e5b:	48 c7 85 68 ff ff ff 	movq   $0x0,-0x98(%rbp)
    6e62:	00 00 00 00 
    6e66:	4c 39 e3             	cmp    %r12,%rbx
    6e69:	48 c7 85 70 ff ff ff 	movq   $0x0,-0x90(%rbp)
    6e70:	00 00 00 00 
    6e74:	48 c7 85 78 ff ff ff 	movq   $0x0,-0x88(%rbp)
    6e7b:	00 00 00 00 
    6e7f:	48 c7 45 80 00 00 00 	movq   $0x0,-0x80(%rbp)
    6e86:	00 
    6e87:	48 c7 45 88 00 00 00 	movq   $0x0,-0x78(%rbp)
    6e8e:	00 
    6e8f:	73 2a                	jae    6ebb <apply_pages_within_exception+0xdb>
    6e91:	4c 8d b5 50 ff ff ff 	lea    -0xb0(%rbp),%r14
    6e98:	0f 1f 84 00 00 00 00 	nopl   0x0(%rax,%rax,1)
    6e9f:	00 
    6ea0:	48 89 de             	mov    %rbx,%rsi
    6ea3:	4c 89 f7             	mov    %r14,%rdi
    6ea6:	e8 37 6e 00 00       	callq  dce2 <do_eaccept>
    6eab:	85 c0                	test   %eax,%eax
    6ead:	75 3c                	jne    6eeb <apply_pages_within_exception+0x10b>
    6eaf:	48 81 c3 00 10 00 00 	add    $0x1000,%rbx
    6eb6:	49 39 dc             	cmp    %rbx,%r12
    6eb9:	77 e5                	ja     6ea0 <apply_pages_within_exception+0xc0>
    6ebb:	48 8b 55 c8          	mov    -0x38(%rbp),%rdx
    6ebf:	64 48 33 14 25 28 00 	xor    %fs:0x28,%rdx
    6ec6:	00 00 
    6ec8:	44 89 e8             	mov    %r13d,%eax
    6ecb:	75 23                	jne    6ef0 <apply_pages_within_exception+0x110>
    6ecd:	48 81 c4 88 00 00 00 	add    $0x88,%rsp
    6ed4:	5b                   	pop    %rbx
    6ed5:	41 5a                	pop    %r10
    6ed7:	41 5c                	pop    %r12
    6ed9:	41 5d                	pop    %r13
    6edb:	41 5e                	pop    %r14
    6edd:	5d                   	pop    %rbp
    6ede:	49 8d 62 f8          	lea    -0x8(%r10),%rsp
    6ee2:	c3                   	retq   
    6ee3:	41 bd ff ff ff ff    	mov    $0xffffffff,%r13d
    6ee9:	eb d0                	jmp    6ebb <apply_pages_within_exception+0xdb>
    6eeb:	e8 40 6e 00 00       	callq  dd30 <abort>
    6ef0:	e8 1b 25 00 00       	callq  9410 <__stack_chk_fail>
    6ef5:	66 2e 0f 1f 84 00 00 	nopw   %cs:0x0(%rax,%rax,1)
    6efc:	00 00 00 
    6eff:	90                   	nop

0000000000006f00 <apply_EPC_pages>:
    6f00:	55                   	push   %rbp
    6f01:	53                   	push   %rbx
    6f02:	48 83 ec 28          	sub    $0x28,%rsp
    6f06:	64 48 8b 04 25 28 00 	mov    %fs:0x28,%rax
    6f0d:	00 00 
    6f0f:	48 89 44 24 18       	mov    %rax,0x18(%rsp)
    6f14:	31 c0                	xor    %eax,%eax
    6f16:	48 85 ff             	test   %rdi,%rdi
    6f19:	74 55                	je     6f70 <apply_EPC_pages+0x70>
    6f1b:	31 d2                	xor    %edx,%edx
    6f1d:	48 89 e1             	mov    %rsp,%rcx
    6f20:	48 89 fd             	mov    %rdi,%rbp
    6f23:	48 89 f3             	mov    %rsi,%rbx
    6f26:	e8 c5 f8 ff ff       	callq  67f0 <_ZL19check_dynamic_rangePvmPmP24dynamic_flags_attributes>
    6f2b:	85 c0                	test   %eax,%eax
    6f2d:	75 41                	jne    6f70 <apply_EPC_pages+0x70>
    6f2f:	48 c1 e3 0c          	shl    $0xc,%rbx
    6f33:	f6 44 24 08 40       	testb  $0x40,0x8(%rsp)
    6f38:	48 89 ee             	mov    %rbp,%rsi
    6f3b:	48 8d 14 2b          	lea    (%rbx,%rbp,1),%rdx
    6f3f:	bf 0b 02 00 00       	mov    $0x20b,%edi
    6f44:	75 22                	jne    6f68 <apply_EPC_pages+0x68>
    6f46:	e8 a5 f6 ff ff       	callq  65f0 <_ZL19sgx_accept_backwardmmm>
    6f4b:	48 8b 74 24 18       	mov    0x18(%rsp),%rsi
    6f50:	64 48 33 34 25 28 00 	xor    %fs:0x28,%rsi
    6f57:	00 00 
    6f59:	75 1c                	jne    6f77 <apply_EPC_pages+0x77>
    6f5b:	48 83 c4 28          	add    $0x28,%rsp
    6f5f:	5b                   	pop    %rbx
    6f60:	5d                   	pop    %rbp
    6f61:	c3                   	retq   
    6f62:	66 0f 1f 44 00 00    	nopw   0x0(%rax,%rax,1)
    6f68:	e8 a3 fc ff ff       	callq  6c10 <sgx_accept_forward>
    6f6d:	eb dc                	jmp    6f4b <apply_EPC_pages+0x4b>
    6f6f:	90                   	nop
    6f70:	b8 ff ff ff ff       	mov    $0xffffffff,%eax
    6f75:	eb d4                	jmp    6f4b <apply_EPC_pages+0x4b>
    6f77:	e8 94 24 00 00       	callq  9410 <__stack_chk_fail>
    6f7c:	0f 1f 40 00          	nopl   0x0(%rax)

0000000000006f80 <trim_EPC_pages>:
    6f80:	48 85 ff             	test   %rdi,%rdi
    6f83:	74 65                	je     6fea <trim_EPC_pages+0x6a>
    6f85:	55                   	push   %rbp
    6f86:	53                   	push   %rbx
    6f87:	31 c9                	xor    %ecx,%ecx
    6f89:	31 d2                	xor    %edx,%edx
    6f8b:	48 89 f5             	mov    %rsi,%rbp
    6f8e:	48 89 fb             	mov    %rdi,%rbx
    6f91:	48 83 ec 08          	sub    $0x8,%rsp
    6f95:	e8 56 f8 ff ff       	callq  67f0 <_ZL19check_dynamic_rangePvmPmP24dynamic_flags_attributes>
    6f9a:	85 c0                	test   %eax,%eax
    6f9c:	75 45                	jne    6fe3 <trim_EPC_pages+0x63>
    6f9e:	48 c1 e5 0c          	shl    $0xc,%rbp
    6fa2:	48 89 df             	mov    %rbx,%rdi
    6fa5:	48 01 dd             	add    %rbx,%rbp
    6fa8:	48 89 ee             	mov    %rbp,%rsi
    6fab:	e8 30 0e 00 00       	callq  7de0 <trim_range_ocall>
    6fb0:	48 89 ea             	mov    %rbp,%rdx
    6fb3:	48 89 de             	mov    %rbx,%rsi
    6fb6:	bf 10 04 00 00       	mov    $0x410,%edi
    6fbb:	e8 50 fc ff ff       	callq  6c10 <sgx_accept_forward>
    6fc0:	48 39 eb             	cmp    %rbp,%rbx
    6fc3:	73 17                	jae    6fdc <trim_EPC_pages+0x5c>
    6fc5:	0f 1f 00             	nopl   (%rax)
    6fc8:	48 89 df             	mov    %rbx,%rdi
    6fcb:	48 81 c3 00 10 00 00 	add    $0x1000,%rbx
    6fd2:	e8 69 0e 00 00       	callq  7e40 <trim_range_commit_ocall>
    6fd7:	48 39 dd             	cmp    %rbx,%rbp
    6fda:	77 ec                	ja     6fc8 <trim_EPC_pages+0x48>
    6fdc:	48 83 c4 08          	add    $0x8,%rsp
    6fe0:	5b                   	pop    %rbx
    6fe1:	5d                   	pop    %rbp
    6fe2:	c3                   	retq   
    6fe3:	b8 ff ff ff ff       	mov    $0xffffffff,%eax
    6fe8:	eb f2                	jmp    6fdc <trim_EPC_pages+0x5c>
    6fea:	b8 ff ff ff ff       	mov    $0xffffffff,%eax
    6fef:	c3                   	retq   

0000000000006ff0 <do_add_thread>:
    6ff0:	41 56                	push   %r14
    6ff2:	41 55                	push   %r13
    6ff4:	41 54                	push   %r12
    6ff6:	55                   	push   %rbp
    6ff7:	53                   	push   %rbx
    6ff8:	48 89 fb             	mov    %rdi,%rbx
    6ffb:	48 83 ec 10          	sub    $0x10,%rsp
    6fff:	64 48 8b 04 25 28 00 	mov    %fs:0x28,%rax
    7006:	00 00 
    7008:	48 89 44 24 08       	mov    %rax,0x8(%rsp)
    700d:	31 c0                	xor    %eax,%eax
    700f:	48 c7 04 24 00 00 00 	movq   $0x0,(%rsp)
    7016:	00 
    7017:	e8 aa 69 00 00       	callq  d9c6 <get_enclave_base>
    701c:	31 c9                	xor    %ecx,%ecx
    701e:	48 89 e2             	mov    %rsp,%rdx
    7021:	be 01 00 00 00       	mov    $0x1,%esi
    7026:	48 89 df             	mov    %rbx,%rdi
    7029:	48 89 c5             	mov    %rax,%rbp
    702c:	e8 bf f7 ff ff       	callq  67f0 <_ZL19check_dynamic_rangePvmPmP24dynamic_flags_attributes>
    7031:	85 c0                	test   %eax,%eax
    7033:	75 51                	jne    7086 <do_add_thread+0x96>
    7035:	4c 8d 25 84 70 00 00 	lea    0x7084(%rip),%r12        # e0c0 <g_global_data>
    703c:	41 8b 84 24 30 01 00 	mov    0x130(%r12),%eax
    7043:	00 
    7044:	85 c0                	test   %eax,%eax
    7046:	74 3e                	je     7086 <do_add_thread+0x96>
    7048:	41 0f b7 84 24 38 01 	movzwl 0x138(%r12),%eax
    704f:	00 00 
    7051:	66 83 f8 0e          	cmp    $0xe,%ax
    7055:	0f 84 ae 01 00 00    	je     7209 <do_add_thread+0x219>
    705b:	31 c0                	xor    %eax,%eax
    705d:	eb 18                	jmp    7077 <do_add_thread+0x87>
    705f:	90                   	nop
    7060:	89 c2                	mov    %eax,%edx
    7062:	48 c1 e2 05          	shl    $0x5,%rdx
    7066:	49 8d 0c 14          	lea    (%r12,%rdx,1),%rcx
    706a:	0f b7 89 38 01 00 00 	movzwl 0x138(%rcx),%ecx
    7071:	66 83 f9 0e          	cmp    $0xe,%cx
    7075:	74 39                	je     70b0 <do_add_thread+0xc0>
    7077:	41 8b 94 24 30 01 00 	mov    0x130(%r12),%edx
    707e:	00 
    707f:	83 c0 01             	add    $0x1,%eax
    7082:	39 c2                	cmp    %eax,%edx
    7084:	77 da                	ja     7060 <do_add_thread+0x70>
    7086:	b8 01 00 00 00       	mov    $0x1,%eax
    708b:	48 8b 74 24 08       	mov    0x8(%rsp),%rsi
    7090:	64 48 33 34 25 28 00 	xor    %fs:0x28,%rsi
    7097:	00 00 
    7099:	0f 85 76 01 00 00    	jne    7215 <do_add_thread+0x225>
    709f:	48 83 c4 10          	add    $0x10,%rsp
    70a3:	5b                   	pop    %rbx
    70a4:	5d                   	pop    %rbp
    70a5:	41 5c                	pop    %r12
    70a7:	41 5d                	pop    %r13
    70a9:	41 5e                	pop    %r14
    70ab:	c3                   	retq   
    70ac:	0f 1f 40 00          	nopl   0x0(%rax)
    70b0:	48 81 c2 38 01 00 00 	add    $0x138,%rdx
    70b7:	4c 01 e2             	add    %r12,%rdx
    70ba:	74 ca                	je     7086 <do_add_thread+0x96>
    70bc:	48 c1 e0 05          	shl    $0x5,%rax
    70c0:	4c 8b 2c 24          	mov    (%rsp),%r13
    70c4:	4c 01 e0             	add    %r12,%rax
    70c7:	48 8b 80 40 01 00 00 	mov    0x140(%rax),%rax
    70ce:	49 01 ed             	add    %rbp,%r13
    70d1:	49 01 c5             	add    %rax,%r13
    70d4:	4c 39 eb             	cmp    %r13,%rbx
    70d7:	75 ad                	jne    7086 <do_add_thread+0x96>
    70d9:	41 be 0e 00 00 00    	mov    $0xe,%r14d
    70df:	90                   	nop
    70e0:	41 8b 84 24 30 01 00 	mov    0x130(%r12),%eax
    70e7:	00 
    70e8:	85 c0                	test   %eax,%eax
    70ea:	74 46                	je     7132 <do_add_thread+0x142>
    70ec:	41 0f b7 84 24 38 01 	movzwl 0x138(%r12),%eax
    70f3:	00 00 
    70f5:	66 44 39 f0          	cmp    %r14w,%ax
    70f9:	0f 84 01 01 00 00    	je     7200 <do_add_thread+0x210>
    70ff:	31 c0                	xor    %eax,%eax
    7101:	eb 20                	jmp    7123 <do_add_thread+0x133>
    7103:	0f 1f 44 00 00       	nopl   0x0(%rax,%rax,1)
    7108:	89 c2                	mov    %eax,%edx
    710a:	48 c1 e2 05          	shl    $0x5,%rdx
    710e:	49 8d 0c 14          	lea    (%r12,%rdx,1),%rcx
    7112:	0f b7 89 38 01 00 00 	movzwl 0x138(%rcx),%ecx
    7119:	66 44 39 f1          	cmp    %r14w,%cx
    711d:	0f 84 85 00 00 00    	je     71a8 <do_add_thread+0x1b8>
    7123:	41 8b 94 24 30 01 00 	mov    0x130(%r12),%edx
    712a:	00 
    712b:	83 c0 01             	add    $0x1,%eax
    712e:	39 c2                	cmp    %eax,%edx
    7130:	77 d6                	ja     7108 <do_add_thread+0x118>
    7132:	41 83 c6 01          	add    $0x1,%r14d
    7136:	66 41 83 fe 13       	cmp    $0x13,%r14w
    713b:	75 a3                	jne    70e0 <do_add_thread+0xf0>
    713d:	49 8d b4 24 e8 00 00 	lea    0xe8(%r12),%rsi
    7144:	00 
    7145:	ba 48 00 00 00       	mov    $0x48,%edx
    714a:	48 89 df             	mov    %rbx,%rdi
    714d:	e8 2e 5a 00 00       	callq  cb80 <memcpy>
    7152:	4c 89 e8             	mov    %r13,%rax
    7155:	31 ff                	xor    %edi,%edi
    7157:	48 89 de             	mov    %rbx,%rsi
    715a:	48 29 e8             	sub    %rbp,%rax
    715d:	48 01 43 10          	add    %rax,0x10(%rbx)
    7161:	4c 89 e8             	mov    %r13,%rax
    7164:	48 29 e8             	sub    %rbp,%rax
    7167:	48 01 43 30          	add    %rax,0x30(%rbx)
    716b:	4c 89 e8             	mov    %r13,%rax
    716e:	48 29 e8             	sub    %rbp,%rax
    7171:	48 01 43 38          	add    %rax,0x38(%rbx)
    7175:	e8 56 0b 00 00       	callq  7cd0 <sgx_ocall>
    717a:	85 c0                	test   %eax,%eax
    717c:	0f 85 04 ff ff ff    	jne    7086 <do_add_thread+0x96>
    7182:	49 8d 95 00 10 00 00 	lea    0x1000(%r13),%rdx
    7189:	4c 89 ee             	mov    %r13,%rsi
    718c:	bf 10 01 00 00       	mov    $0x110,%edi
    7191:	e8 5a f4 ff ff       	callq  65f0 <_ZL19sgx_accept_backwardmmm>
    7196:	85 c0                	test   %eax,%eax
    7198:	0f 95 c0             	setne  %al
    719b:	0f b6 c0             	movzbl %al,%eax
    719e:	e9 e8 fe ff ff       	jmpq   708b <do_add_thread+0x9b>
    71a3:	0f 1f 44 00 00       	nopl   0x0(%rax,%rax,1)
    71a8:	48 81 c2 38 01 00 00 	add    $0x138,%rdx
    71af:	4c 01 e2             	add    %r12,%rdx
    71b2:	0f 84 7a ff ff ff    	je     7132 <do_add_thread+0x142>
    71b8:	48 c1 e0 05          	shl    $0x5,%rax
    71bc:	4c 01 e0             	add    %r12,%rax
    71bf:	0f b7 90 3a 01 00 00 	movzwl 0x13a(%rax),%edx
    71c6:	83 e2 20             	and    $0x20,%edx
    71c9:	0f 84 63 ff ff ff    	je     7132 <do_add_thread+0x142>
    71cf:	48 8b 3c 24          	mov    (%rsp),%rdi
    71d3:	8b b0 3c 01 00 00    	mov    0x13c(%rax),%esi
    71d9:	48 8b 80 40 01 00 00 	mov    0x140(%rax),%rax
    71e0:	48 01 ef             	add    %rbp,%rdi
    71e3:	48 01 c7             	add    %rax,%rdi
    71e6:	e8 15 fd ff ff       	callq  6f00 <apply_EPC_pages>
    71eb:	85 c0                	test   %eax,%eax
    71ed:	0f 84 3f ff ff ff    	je     7132 <do_add_thread+0x142>
    71f3:	e9 8e fe ff ff       	jmpq   7086 <do_add_thread+0x96>
    71f8:	0f 1f 84 00 00 00 00 	nopl   0x0(%rax,%rax,1)
    71ff:	00 
    7200:	ba 38 01 00 00       	mov    $0x138,%edx
    7205:	31 c0                	xor    %eax,%eax
    7207:	eb a6                	jmp    71af <do_add_thread+0x1bf>
    7209:	ba 38 01 00 00       	mov    $0x138,%edx
    720e:	31 c0                	xor    %eax,%eax
    7210:	e9 a2 fe ff ff       	jmpq   70b7 <do_add_thread+0xc7>
    7215:	e8 f6 21 00 00       	callq  9410 <__stack_chk_fail>
    721a:	66 0f 1f 44 00 00    	nopw   0x0(%rax,%rax,1)

0000000000007220 <_pthread_thread_run>:
    7220:	31 c0                	xor    %eax,%eax
    7222:	c3                   	retq   
    7223:	66 2e 0f 1f 84 00 00 	nopw   %cs:0x0(%rax,%rax,1)
    722a:	00 00 00 
    722d:	0f 1f 00             	nopl   (%rax)

0000000000007230 <_ZL11do_save_tcsPv>:
    7230:	55                   	push   %rbp
    7231:	53                   	push   %rbx
    7232:	48 89 fb             	mov    %rdi,%rbx
    7235:	48 83 ec 18          	sub    $0x18,%rsp
    7239:	64 48 8b 04 25 28 00 	mov    %fs:0x28,%rax
    7240:	00 00 
    7242:	48 89 44 24 08       	mov    %rax,0x8(%rsp)
    7247:	31 c0                	xor    %eax,%eax
    7249:	48 83 3d 77 ae 00 00 	cmpq   $0x0,0xae77(%rip)        # 120c8 <_ZL12g_tcs_cookie>
    7250:	00 
    7251:	74 4d                	je     72a0 <_ZL11do_save_tcsPv+0x70>
    7253:	bf 10 00 00 00       	mov    $0x10,%edi
    7258:	e8 33 2a 00 00       	callq  9c90 <dlmalloc>
    725d:	48 89 c2             	mov    %rax,%rdx
    7260:	b8 01 00 00 00       	mov    $0x1,%eax
    7265:	48 85 d2             	test   %rdx,%rdx
    7268:	74 1e                	je     7288 <_ZL11do_save_tcsPv+0x58>
    726a:	48 33 1d 57 ae 00 00 	xor    0xae57(%rip),%rbx        # 120c8 <_ZL12g_tcs_cookie>
    7271:	48 8b 05 58 ae 00 00 	mov    0xae58(%rip),%rax        # 120d0 <_ZL10g_tcs_node>
    7278:	48 89 15 51 ae 00 00 	mov    %rdx,0xae51(%rip)        # 120d0 <_ZL10g_tcs_node>
    727f:	48 89 42 08          	mov    %rax,0x8(%rdx)
    7283:	31 c0                	xor    %eax,%eax
    7285:	48 89 1a             	mov    %rbx,(%rdx)
    7288:	48 8b 4c 24 08       	mov    0x8(%rsp),%rcx
    728d:	64 48 33 0c 25 28 00 	xor    %fs:0x28,%rcx
    7294:	00 00 
    7296:	75 5a                	jne    72f2 <_ZL11do_save_tcsPv+0xc2>
    7298:	48 83 c4 18          	add    $0x18,%rsp
    729c:	5b                   	pop    %rbx
    729d:	5d                   	pop    %rbp
    729e:	c3                   	retq   
    729f:	90                   	nop
    72a0:	48 c7 04 24 00 00 00 	movq   $0x0,(%rsp)
    72a7:	00 
    72a8:	48 89 e5             	mov    %rsp,%rbp
    72ab:	eb 0c                	jmp    72b9 <_ZL11do_save_tcsPv+0x89>
    72ad:	0f 1f 00             	nopl   (%rax)
    72b0:	48 8b 04 24          	mov    (%rsp),%rax
    72b4:	48 85 c0             	test   %rax,%rax
    72b7:	75 1f                	jne    72d8 <_ZL11do_save_tcsPv+0xa8>
    72b9:	be 08 00 00 00       	mov    $0x8,%esi
    72be:	48 89 ef             	mov    %rbp,%rdi
    72c1:	e8 aa f1 ff ff       	callq  6470 <sgx_read_rand>
    72c6:	85 c0                	test   %eax,%eax
    72c8:	74 e6                	je     72b0 <_ZL11do_save_tcsPv+0x80>
    72ca:	b8 01 00 00 00       	mov    $0x1,%eax
    72cf:	eb b7                	jmp    7288 <_ZL11do_save_tcsPv+0x58>
    72d1:	0f 1f 80 00 00 00 00 	nopl   0x0(%rax)
    72d8:	48 83 3d e8 ad 00 00 	cmpq   $0x0,0xade8(%rip)        # 120c8 <_ZL12g_tcs_cookie>
    72df:	00 
    72e0:	0f 85 6d ff ff ff    	jne    7253 <_ZL11do_save_tcsPv+0x23>
    72e6:	48 89 05 db ad 00 00 	mov    %rax,0xaddb(%rip)        # 120c8 <_ZL12g_tcs_cookie>
    72ed:	e9 61 ff ff ff       	jmpq   7253 <_ZL11do_save_tcsPv+0x23>
    72f2:	e8 19 21 00 00       	callq  9410 <__stack_chk_fail>
    72f7:	66 0f 1f 84 00 00 00 	nopw   0x0(%rax,%rax,1)
    72fe:	00 00 

0000000000007300 <_ZL18add_static_threadsPVK9_layout_tS1_m>:
    7300:	48 39 f7             	cmp    %rsi,%rdi
    7303:	0f 83 cf 00 00 00    	jae    73d8 <_ZL18add_static_threadsPVK9_layout_tS1_m+0xd8>
    7309:	41 56                	push   %r14
    730b:	41 55                	push   %r13
    730d:	41 54                	push   %r12
    730f:	49 89 d4             	mov    %rdx,%r12
    7312:	55                   	push   %rbp
    7313:	48 89 f5             	mov    %rsi,%rbp
    7316:	53                   	push   %rbx
    7317:	48 89 fb             	mov    %rdi,%rbx
    731a:	eb 11                	jmp    732d <_ZL18add_static_threadsPVK9_layout_tS1_m+0x2d>
    731c:	0f 1f 40 00          	nopl   0x0(%rax)
    7320:	48 83 c3 20          	add    $0x20,%rbx
    7324:	48 39 dd             	cmp    %rbx,%rbp
    7327:	0f 86 9b 00 00 00    	jbe    73c8 <_ZL18add_static_threadsPVK9_layout_tS1_m+0xc8>
    732d:	0f b7 03             	movzwl (%rbx),%eax
    7330:	f6 c4 10             	test   $0x10,%ah
    7333:	75 13                	jne    7348 <_ZL18add_static_threadsPVK9_layout_tS1_m+0x48>
    7335:	48 8b 43 18          	mov    0x18(%rbx),%rax
    7339:	f6 c4 01             	test   $0x1,%ah
    733c:	74 0a                	je     7348 <_ZL18add_static_threadsPVK9_layout_tS1_m+0x48>
    733e:	0f b7 43 02          	movzwl 0x2(%rbx),%eax
    7342:	66 83 f8 03          	cmp    $0x3,%ax
    7346:	74 50                	je     7398 <_ZL18add_static_threadsPVK9_layout_tS1_m+0x98>
    7348:	0f b7 03             	movzwl (%rbx),%eax
    734b:	f6 c4 10             	test   $0x10,%ah
    734e:	74 d0                	je     7320 <_ZL18add_static_threadsPVK9_layout_tS1_m+0x20>
    7350:	8b 43 04             	mov    0x4(%rbx),%eax
    7353:	85 c0                	test   %eax,%eax
    7355:	74 c9                	je     7320 <_ZL18add_static_threadsPVK9_layout_tS1_m+0x20>
    7357:	45 31 f6             	xor    %r14d,%r14d
    735a:	45 31 ed             	xor    %r13d,%r13d
    735d:	48 8b 43 08          	mov    0x8(%rbx),%rax
    7361:	0f b7 7b 02          	movzwl 0x2(%rbx),%edi
    7365:	48 89 de             	mov    %rbx,%rsi
    7368:	49 01 c5             	add    %rax,%r13
    736b:	f7 df                	neg    %edi
    736d:	4c 89 ea             	mov    %r13,%rdx
    7370:	48 63 ff             	movslq %edi,%rdi
    7373:	48 c1 e7 05          	shl    $0x5,%rdi
    7377:	48 01 df             	add    %rbx,%rdi
    737a:	e8 81 ff ff ff       	callq  7300 <_ZL18add_static_threadsPVK9_layout_tS1_m>
    737f:	85 c0                	test   %eax,%eax
    7381:	75 38                	jne    73bb <_ZL18add_static_threadsPVK9_layout_tS1_m+0xbb>
    7383:	8b 43 04             	mov    0x4(%rbx),%eax
    7386:	41 83 c6 01          	add    $0x1,%r14d
    738a:	44 39 f0             	cmp    %r14d,%eax
    738d:	77 ce                	ja     735d <_ZL18add_static_threadsPVK9_layout_tS1_m+0x5d>
    738f:	eb 8f                	jmp    7320 <_ZL18add_static_threadsPVK9_layout_tS1_m+0x20>
    7391:	0f 1f 80 00 00 00 00 	nopl   0x0(%rax)
    7398:	48 8b 7b 08          	mov    0x8(%rbx),%rdi
    739c:	4e 8d 2c 27          	lea    (%rdi,%r12,1),%r13
    73a0:	e8 21 66 00 00       	callq  d9c6 <get_enclave_base>
    73a5:	4a 8d 3c 28          	lea    (%rax,%r13,1),%rdi
    73a9:	e8 82 fe ff ff       	callq  7230 <_ZL11do_save_tcsPv>
    73ae:	85 c0                	test   %eax,%eax
    73b0:	0f 84 6a ff ff ff    	je     7320 <_ZL18add_static_threadsPVK9_layout_tS1_m+0x20>
    73b6:	b8 ff ff ff ff       	mov    $0xffffffff,%eax
    73bb:	5b                   	pop    %rbx
    73bc:	5d                   	pop    %rbp
    73bd:	41 5c                	pop    %r12
    73bf:	41 5d                	pop    %r13
    73c1:	41 5e                	pop    %r14
    73c3:	c3                   	retq   
    73c4:	0f 1f 40 00          	nopl   0x0(%rax)
    73c8:	5b                   	pop    %rbx
    73c9:	31 c0                	xor    %eax,%eax
    73cb:	5d                   	pop    %rbp
    73cc:	41 5c                	pop    %r12
    73ce:	41 5d                	pop    %r13
    73d0:	41 5e                	pop    %r14
    73d2:	c3                   	retq   
    73d3:	0f 1f 44 00 00       	nopl   0x0(%rax,%rax,1)
    73d8:	31 c0                	xor    %eax,%eax
    73da:	c3                   	retq   
    73db:	0f 1f 44 00 00       	nopl   0x0(%rax,%rax,1)

00000000000073e0 <_ZL10trts_ecalljPv>:
    73e0:	0f b6 05 25 ac 00 00 	movzbl 0xac25(%rip),%eax        # 1200c <_ZL16g_is_first_ecall>
    73e7:	41 54                	push   %r12
    73e9:	55                   	push   %rbp
    73ea:	48 89 f5             	mov    %rsi,%rbp
    73ed:	53                   	push   %rbx
    73ee:	89 fb                	mov    %edi,%ebx
    73f0:	84 c0                	test   %al,%al
    73f2:	0f 85 c8 00 00 00    	jne    74c0 <_ZL10trts_ecalljPv+0xe0>
    73f8:	83 fb fa             	cmp    $0xfffffffa,%ebx
    73fb:	74 73                	je     7470 <_ZL10trts_ecalljPv+0x90>
    73fd:	4c 8d 25 bc a9 00 00 	lea    0xa9bc(%rip),%r12        # 11dc0 <g_ecall_table>
    7404:	49 3b 1c 24          	cmp    (%r12),%rbx
    7408:	73 7e                	jae    7488 <_ZL10trts_ecalljPv+0xa8>
    740a:	e8 f2 65 00 00       	callq  da01 <get_thread_data>
    740f:	0f ae e8             	lfence 
    7412:	48 8b 50 08          	mov    0x8(%rax),%rdx
    7416:	48 3b 50 10          	cmp    0x10(%rax),%rdx
    741a:	0f 84 80 00 00 00    	je     74a0 <_ZL10trts_ecalljPv+0xc0>
    7420:	48 81 7a 20 44 49 43 	cmpq   $0x4f434944,0x20(%rdx)
    7427:	4f 
    7428:	0f 85 3e 01 00 00    	jne    756c <_ZL10trts_ecalljPv+0x18c>
    742e:	48 8d 05 cb 6b 00 00 	lea    0x6bcb(%rip),%rax        # e000 <g_dyn_entry_table>
    7435:	48 8b 52 28          	mov    0x28(%rdx),%rdx
    7439:	48 3b 10             	cmp    (%rax),%rdx
    743c:	73 4a                	jae    7488 <_ZL10trts_ecalljPv+0xa8>
    743e:	49 0f af 14 24       	imul   (%r12),%rdx
    7443:	48 01 d8             	add    %rbx,%rax
    7446:	80 7c 02 08 00       	cmpb   $0x0,0x8(%rdx,%rax,1)
    744b:	74 62                	je     74af <_ZL10trts_ecalljPv+0xcf>
    744d:	48 c1 e3 04          	shl    $0x4,%rbx
    7451:	31 f6                	xor    %esi,%esi
    7453:	49 8b 5c 1c 08       	mov    0x8(%r12,%rbx,1),%rbx
    7458:	48 89 df             	mov    %rbx,%rdi
    745b:	e8 30 ee ff ff       	callq  6290 <sgx_is_within_enclave>
    7460:	85 c0                	test   %eax,%eax
    7462:	0f 84 e8 00 00 00    	je     7550 <_ZL10trts_ecalljPv+0x170>
    7468:	48 89 d8             	mov    %rbx,%rax
    746b:	eb 0a                	jmp    7477 <_ZL10trts_ecalljPv+0x97>
    746d:	0f 1f 00             	nopl   (%rax)
    7470:	48 8d 05 a9 fd ff ff 	lea    -0x257(%rip),%rax        # 7220 <_pthread_thread_run>
    7477:	0f ae e8             	lfence 
    747a:	48 89 ef             	mov    %rbp,%rdi
    747d:	5b                   	pop    %rbx
    747e:	5d                   	pop    %rbp
    747f:	41 5c                	pop    %r12
    7481:	ff e0                	jmpq   *%rax
    7483:	0f 1f 44 00 00       	nopl   0x0(%rax,%rax,1)
    7488:	41 bc 01 10 00 00    	mov    $0x1001,%r12d
    748e:	44 89 e0             	mov    %r12d,%eax
    7491:	5b                   	pop    %rbx
    7492:	5d                   	pop    %rbp
    7493:	41 5c                	pop    %r12
    7495:	c3                   	retq   
    7496:	66 2e 0f 1f 84 00 00 	nopw   %cs:0x0(%rax,%rax,1)
    749d:	00 00 00 
    74a0:	48 89 d8             	mov    %rbx,%rax
    74a3:	48 c1 e0 04          	shl    $0x4,%rax
    74a7:	41 80 7c 04 10 00    	cmpb   $0x0,0x10(%r12,%rax,1)
    74ad:	74 9e                	je     744d <_ZL10trts_ecalljPv+0x6d>
    74af:	41 bc 07 10 00 00    	mov    $0x1007,%r12d
    74b5:	44 89 e0             	mov    %r12d,%eax
    74b8:	5b                   	pop    %rbx
    74b9:	5d                   	pop    %rbp
    74ba:	41 5c                	pop    %r12
    74bc:	c3                   	retq   
    74bd:	0f 1f 00             	nopl   (%rax)
    74c0:	e8 3c 65 00 00       	callq  da01 <get_thread_data>
    74c5:	48 8b 48 10          	mov    0x10(%rax),%rcx
    74c9:	48 39 48 08          	cmp    %rcx,0x8(%rax)
    74cd:	75 e0                	jne    74af <_ZL10trts_ecalljPv+0xcf>
    74cf:	48 8d 3d ee ab 00 00 	lea    0xabee(%rip),%rdi        # 120c4 <_ZL10g_ife_lock>
    74d6:	e8 d5 58 00 00       	callq  cdb0 <sgx_spin_lock>
    74db:	0f b6 05 2a ab 00 00 	movzbl 0xab2a(%rip),%eax        # 1200c <_ZL16g_is_first_ecall>
    74e2:	84 c0                	test   %al,%al
    74e4:	74 52                	je     7538 <_ZL10trts_ecalljPv+0x158>
    74e6:	48 8d 05 3b a9 00 00 	lea    0xa93b(%rip),%rax        # 11e28 <EDMM_supported>
    74ed:	8b 00                	mov    (%rax),%eax
    74ef:	85 c0                	test   %eax,%eax
    74f1:	74 39                	je     752c <_ZL10trts_ecalljPv+0x14c>
    74f3:	48 8d 05 c6 6b 00 00 	lea    0x6bc6(%rip),%rax        # e0c0 <g_global_data>
    74fa:	31 d2                	xor    %edx,%edx
    74fc:	8b b0 30 01 00 00    	mov    0x130(%rax),%esi
    7502:	48 8d b8 38 01 00 00 	lea    0x138(%rax),%rdi
    7509:	48 c1 e6 05          	shl    $0x5,%rsi
    750d:	48 01 fe             	add    %rdi,%rsi
    7510:	e8 eb fd ff ff       	callq  7300 <_ZL18add_static_threadsPVK9_layout_tS1_m>
    7515:	85 c0                	test   %eax,%eax
    7517:	75 37                	jne    7550 <_ZL10trts_ecalljPv+0x170>
    7519:	48 8d 3d e0 8a ff ff 	lea    -0x7520(%rip),%rdi        # 0 <__ImageBase>
    7520:	e8 8b 19 00 00       	callq  8eb0 <change_protection>
    7525:	85 c0                	test   %eax,%eax
    7527:	41 89 c4             	mov    %eax,%r12d
    752a:	75 2f                	jne    755b <_ZL10trts_ecalljPv+0x17b>
    752c:	e8 2f 1d 00 00       	callq  9260 <init_global_object>
    7531:	c6 05 d4 aa 00 00 00 	movb   $0x0,0xaad4(%rip)        # 1200c <_ZL16g_is_first_ecall>
    7538:	48 8d 3d 85 ab 00 00 	lea    0xab85(%rip),%rdi        # 120c4 <_ZL10g_ife_lock>
    753f:	e8 cc 58 00 00       	callq  ce10 <sgx_spin_unlock>
    7544:	e9 af fe ff ff       	jmpq   73f8 <_ZL10trts_ecalljPv+0x18>
    7549:	0f 1f 80 00 00 00 00 	nopl   0x0(%rax)
    7550:	41 bc 01 00 00 00    	mov    $0x1,%r12d
    7556:	e9 33 ff ff ff       	jmpq   748e <_ZL10trts_ecalljPv+0xae>
    755b:	48 8d 3d 62 ab 00 00 	lea    0xab62(%rip),%rdi        # 120c4 <_ZL10g_ife_lock>
    7562:	e8 a9 58 00 00       	callq  ce10 <sgx_spin_unlock>
    7567:	e9 22 ff ff ff       	jmpq   748e <_ZL10trts_ecalljPv+0xae>
    756c:	e8 bf 67 00 00       	callq  dd30 <abort>
    7571:	66 2e 0f 1f 84 00 00 	nopw   %cs:0x0(%rax,%rax,1)
    7578:	00 00 00 
    757b:	0f 1f 44 00 00       	nopl   0x0(%rax,%rax,1)

0000000000007580 <_Z30_random_stack_noinline_wrapperI9_status_tJjPvEJRiRS1_EET_PFS4_DpT0_EDpOT1_.isra.0.constprop.3>:
    7580:	e9 5b fe ff ff       	jmpq   73e0 <_ZL10trts_ecalljPv>
    7585:	66 2e 0f 1f 84 00 00 	nopw   %cs:0x0(%rax,%rax,1)
    758c:	00 00 00 
    758f:	90                   	nop

0000000000007590 <_Z16_pthread_enabledv>:
    7590:	31 c0                	xor    %eax,%eax
    7592:	c3                   	retq   
    7593:	66 2e 0f 1f 84 00 00 	nopw   %cs:0x0(%rax,%rax,1)
    759a:	00 00 00 
    759d:	0f 1f 00             	nopl   (%rax)

00000000000075a0 <_Z24_pthread_tls_store_state9_status_t>:
    75a0:	f3 c3                	repz retq 
    75a2:	66 2e 0f 1f 84 00 00 	nopw   %cs:0x0(%rax,%rax,1)
    75a9:	00 00 00 
    75ac:	0f 1f 40 00          	nopl   0x0(%rax)

00000000000075b0 <_Z22_pthread_tls_get_statev>:
    75b0:	31 c0                	xor    %eax,%eax
    75b2:	c3                   	retq   
    75b3:	66 2e 0f 1f 84 00 00 	nopw   %cs:0x0(%rax,%rax,1)
    75ba:	00 00 00 
    75bd:	0f 1f 00             	nopl   (%rax)

00000000000075c0 <_Z26_pthread_tls_store_contextPv>:
    75c0:	f3 c3                	repz retq 
    75c2:	66 2e 0f 1f 84 00 00 	nopw   %cs:0x0(%rax,%rax,1)
    75c9:	00 00 00 
    75cc:	0f 1f 40 00          	nopl   0x0(%rax)

00000000000075d0 <_Z20_pthread_wakeup_joinPv>:
    75d0:	f3 c3                	repz retq 
    75d2:	66 2e 0f 1f 84 00 00 	nopw   %cs:0x0(%rax,%rax,1)
    75d9:	00 00 00 
    75dc:	0f 1f 40 00          	nopl   0x0(%rax)

00000000000075e0 <_Z24_pthread_tls_destructorsv>:
    75e0:	f3 c3                	repz retq 
    75e2:	66 2e 0f 1f 84 00 00 	nopw   %cs:0x0(%rax,%rax,1)
    75e9:	00 00 00 
    75ec:	0f 1f 40 00          	nopl   0x0(%rax)

00000000000075f0 <do_init_thread>:
    75f0:	41 57                	push   %r15
    75f2:	41 56                	push   %r14
    75f4:	ba a0 00 00 00       	mov    $0xa0,%edx
    75f9:	41 55                	push   %r13
    75fb:	41 54                	push   %r12
    75fd:	41 89 f4             	mov    %esi,%r12d
    7600:	55                   	push   %rbp
    7601:	53                   	push   %rbx
    7602:	48 89 fd             	mov    %rdi,%rbp
    7605:	48 83 ec 28          	sub    $0x28,%rsp
    7609:	64 48 8b 04 25 28 00 	mov    %fs:0x28,%rax
    7610:	00 00 
    7612:	48 89 44 24 18       	mov    %rax,0x18(%rsp)
    7617:	31 c0                	xor    %eax,%eax
    7619:	48 8d 05 a0 6a 00 00 	lea    0x6aa0(%rip),%rax        # e0c0 <g_global_data>
    7620:	48 8b 58 48          	mov    0x48(%rax),%rbx
    7624:	48 8d 70 48          	lea    0x48(%rax),%rsi
    7628:	48 01 fb             	add    %rdi,%rbx
    762b:	48 89 df             	mov    %rbx,%rdi
    762e:	4c 8b 7b 28          	mov    0x28(%rbx),%r15
    7632:	4c 8b 73 30          	mov    0x30(%rbx),%r14
    7636:	4c 8b ab 98 00 00 00 	mov    0x98(%rbx),%r13
    763d:	e8 3e 55 00 00       	callq  cb80 <memcpy>
    7642:	48 8b 53 18          	mov    0x18(%rbx),%rdx
    7646:	48 8d 85 50 fd ff ff 	lea    -0x2b0(%rbp),%rax
    764d:	48 01 2b             	add    %rbp,(%rbx)
    7650:	48 01 6b 20          	add    %rbp,0x20(%rbx)
    7654:	4c 89 7b 28          	mov    %r15,0x28(%rbx)
    7658:	48 01 6b 58          	add    %rbp,0x58(%rbx)
    765c:	4c 89 73 30          	mov    %r14,0x30(%rbx)
    7660:	48 01 ea             	add    %rbp,%rdx
    7663:	48 01 6b 50          	add    %rbp,0x50(%rbx)
    7667:	48 89 53 18          	mov    %rdx,0x18(%rbx)
    766b:	48 89 93 98 00 00 00 	mov    %rdx,0x98(%rbx)
    7672:	48 8b 53 08          	mov    0x8(%rbx),%rdx
    7676:	48 01 c2             	add    %rax,%rdx
    7679:	48 03 43 10          	add    0x10(%rbx),%rax
    767d:	48 89 53 08          	mov    %rdx,0x8(%rbx)
    7681:	48 89 43 10          	mov    %rax,0x10(%rbx)
    7685:	48 8d 05 8c a7 00 00 	lea    0xa78c(%rip),%rax        # 11e18 <__intel_security_cookie>
    768c:	48 8b 00             	mov    (%rax),%rax
    768f:	48 89 85 58 fd fe ff 	mov    %rax,-0x102a8(%rbp)
    7696:	48 8d 05 8b a7 00 00 	lea    0xa78b(%rip),%rax        # 11e28 <EDMM_supported>
    769d:	8b 00                	mov    (%rax),%eax
    769f:	85 c0                	test   %eax,%eax
    76a1:	0f 84 89 00 00 00    	je     7730 <do_init_thread+0x140>
    76a7:	45 84 e4             	test   %r12b,%r12b
    76aa:	0f 84 90 00 00 00    	je     7740 <do_init_thread+0x150>
    76b0:	4d 85 ed             	test   %r13,%r13
    76b3:	48 c7 43 30 01 00 00 	movq   $0x1,0x30(%rbx)
    76ba:	00 
    76bb:	75 78                	jne    7735 <do_init_thread+0x145>
    76bd:	e8 ce f4 ff ff       	callq  6b90 <get_dynamic_stack_max_page>
    76c2:	89 c0                	mov    %eax,%eax
    76c4:	48 c1 e0 0c          	shl    $0xc,%rax
    76c8:	48 01 83 98 00 00 00 	add    %rax,0x98(%rbx)
    76cf:	90                   	nop
    76d0:	48 8d 3d 29 89 ff ff 	lea    -0x76d7(%rip),%rdi        # 0 <__ImageBase>
    76d7:	48 8d 54 24 10       	lea    0x10(%rsp),%rdx
    76dc:	48 8d 74 24 08       	lea    0x8(%rsp),%rsi
    76e1:	48 c7 44 24 08 00 00 	movq   $0x0,0x8(%rsp)
    76e8:	00 00 
    76ea:	48 c7 44 24 10 00 00 	movq   $0x0,0x10(%rsp)
    76f1:	00 00 
    76f3:	e8 58 15 00 00       	callq  8c50 <elf_tls_info>
    76f8:	85 c0                	test   %eax,%eax
    76fa:	ba 01 00 00 00       	mov    $0x1,%edx
    76ff:	75 0a                	jne    770b <do_init_thread+0x11b>
    7701:	48 83 7c 24 08 00    	cmpq   $0x0,0x8(%rsp)
    7707:	75 57                	jne    7760 <do_init_thread+0x170>
    7709:	31 d2                	xor    %edx,%edx
    770b:	48 8b 4c 24 18       	mov    0x18(%rsp),%rcx
    7710:	64 48 33 0c 25 28 00 	xor    %fs:0x28,%rcx
    7717:	00 00 
    7719:	89 d0                	mov    %edx,%eax
    771b:	0f 85 8c 00 00 00    	jne    77ad <do_init_thread+0x1bd>
    7721:	48 83 c4 28          	add    $0x28,%rsp
    7725:	5b                   	pop    %rbx
    7726:	5d                   	pop    %rbp
    7727:	41 5c                	pop    %r12
    7729:	41 5d                	pop    %r13
    772b:	41 5e                	pop    %r14
    772d:	41 5f                	pop    %r15
    772f:	c3                   	retq   
    7730:	4d 85 ed             	test   %r13,%r13
    7733:	74 9b                	je     76d0 <do_init_thread+0xe0>
    7735:	4c 89 ab 98 00 00 00 	mov    %r13,0x98(%rbx)
    773c:	eb 92                	jmp    76d0 <do_init_thread+0xe0>
    773e:	66 90                	xchg   %ax,%ax
    7740:	4d 85 ed             	test   %r13,%r13
    7743:	75 f0                	jne    7735 <do_init_thread+0x145>
    7745:	48 89 ef             	mov    %rbp,%rdi
    7748:	e8 63 f3 ff ff       	callq  6ab0 <is_dynamic_thread>
    774d:	85 c0                	test   %eax,%eax
    774f:	0f 85 68 ff ff ff    	jne    76bd <do_init_thread+0xcd>
    7755:	e9 76 ff ff ff       	jmpq   76d0 <do_init_thread+0xe0>
    775a:	66 0f 1f 44 00 00    	nopw   0x0(%rax,%rax,1)
    7760:	48 8b 03             	mov    (%rbx),%rax
    7763:	48 8b 7b 50          	mov    0x50(%rbx),%rdi
    7767:	31 f6                	xor    %esi,%esi
    7769:	48 8d 90 ff 0f 00 00 	lea    0xfff(%rax),%rdx
    7770:	48 29 fa             	sub    %rdi,%rdx
    7773:	48 81 e7 00 f0 ff ff 	and    $0xfffffffffffff000,%rdi
    777a:	48 81 e2 00 f0 ff ff 	and    $0xfffffffffffff000,%rdx
    7781:	e8 47 54 00 00       	callq  cbcd <memset>
    7786:	48 8b 7b 50          	mov    0x50(%rbx),%rdi
    778a:	48 8b 03             	mov    (%rbx),%rax
    778d:	48 8b 54 24 10       	mov    0x10(%rsp),%rdx
    7792:	48 29 f8             	sub    %rdi,%rax
    7795:	48 39 c2             	cmp    %rax,%rdx
    7798:	0f 87 6b ff ff ff    	ja     7709 <do_init_thread+0x119>
    779e:	48 8b 74 24 08       	mov    0x8(%rsp),%rsi
    77a3:	e8 d8 53 00 00       	callq  cb80 <memcpy>
    77a8:	e9 5c ff ff ff       	jmpq   7709 <do_init_thread+0x119>
    77ad:	e8 5e 1c 00 00       	callq  9410 <__stack_chk_fail>
    77b2:	66 2e 0f 1f 84 00 00 	nopw   %cs:0x0(%rax,%rax,1)
    77b9:	00 00 00 
    77bc:	0f 1f 40 00          	nopl   0x0(%rax)

00000000000077c0 <do_ecall>:
    77c0:	55                   	push   %rbp
    77c1:	53                   	push   %rbx
    77c2:	48 89 d5             	mov    %rdx,%rbp
    77c5:	bb 01 00 00 00       	mov    $0x1,%ebx
    77ca:	48 83 ec 78          	sub    $0x78,%rsp
    77ce:	64 48 8b 04 25 28 00 	mov    %fs:0x28,%rax
    77d5:	00 00 
    77d7:	48 89 44 24 68       	mov    %rax,0x68(%rsp)
    77dc:	31 c0                	xor    %eax,%eax
    77de:	89 7c 24 14          	mov    %edi,0x14(%rsp)
    77e2:	48 89 74 24 08       	mov    %rsi,0x8(%rsp)
    77e7:	e8 e2 61 00 00       	callq  d9ce <get_enclave_state>
    77ec:	83 f8 02             	cmp    $0x2,%eax
    77ef:	74 1f                	je     7810 <do_ecall+0x50>
    77f1:	48 8b 4c 24 68       	mov    0x68(%rsp),%rcx
    77f6:	64 48 33 0c 25 28 00 	xor    %fs:0x28,%rcx
    77fd:	00 00 
    77ff:	89 d8                	mov    %ebx,%eax
    7801:	0f 85 51 01 00 00    	jne    7958 <do_ecall+0x198>
    7807:	48 83 c4 78          	add    $0x78,%rsp
    780b:	5b                   	pop    %rbx
    780c:	5d                   	pop    %rbp
    780d:	c3                   	retq   
    780e:	66 90                	xchg   %ax,%ax
    7810:	e8 ec 61 00 00       	callq  da01 <get_thread_data>
    7815:	48 85 c0             	test   %rax,%rax
    7818:	74 4a                	je     7864 <do_ecall+0xa4>
    781a:	48 8b 48 08          	mov    0x8(%rax),%rcx
    781e:	48 39 48 10          	cmp    %rcx,0x10(%rax)
    7822:	74 2c                	je     7850 <do_ecall+0x90>
    7824:	e8 d8 61 00 00       	callq  da01 <get_thread_data>
    7829:	48 8b 50 08          	mov    0x8(%rax),%rdx
    782d:	48 39 50 10          	cmp    %rdx,0x10(%rax)
    7831:	48 89 44 24 18       	mov    %rax,0x18(%rsp)
    7836:	74 48                	je     7880 <do_ecall+0xc0>
    7838:	48 8b 74 24 08       	mov    0x8(%rsp),%rsi
    783d:	8b 7c 24 14          	mov    0x14(%rsp),%edi
    7841:	e8 9a fb ff ff       	callq  73e0 <_ZL10trts_ecalljPv>
    7846:	89 c3                	mov    %eax,%ebx
    7848:	eb a7                	jmp    77f1 <do_ecall+0x31>
    784a:	66 0f 1f 44 00 00    	nopw   0x0(%rax,%rax,1)
    7850:	48 8d 05 69 68 00 00 	lea    0x6869(%rip),%rax        # e0c0 <g_global_data>
    7857:	48 8b 40 38          	mov    0x38(%rax),%rax
    785b:	48 85 c0             	test   %rax,%rax
    785e:	0f 84 7c 00 00 00    	je     78e0 <do_ecall+0x120>
    7864:	31 f6                	xor    %esi,%esi
    7866:	48 89 ef             	mov    %rbp,%rdi
    7869:	e8 82 fd ff ff       	callq  75f0 <do_init_thread>
    786e:	85 c0                	test   %eax,%eax
    7870:	89 c3                	mov    %eax,%ebx
    7872:	74 b0                	je     7824 <do_ecall+0x64>
    7874:	e9 78 ff ff ff       	jmpq   77f1 <do_ecall+0x31>
    7879:	0f 1f 80 00 00 00 00 	nopl   0x0(%rax)
    7880:	e8 0b fd ff ff       	callq  7590 <_Z16_pthread_enabledv>
    7885:	84 c0                	test   %al,%al
    7887:	74 77                	je     7900 <do_ecall+0x140>
    7889:	66 0f ef c0          	pxor   %xmm0,%xmm0
    788d:	48 8d 7c 24 20       	lea    0x20(%rsp),%rdi
    7892:	0f 29 44 24 20       	movaps %xmm0,0x20(%rsp)
    7897:	0f 29 44 24 30       	movaps %xmm0,0x30(%rsp)
    789c:	0f 29 44 24 40       	movaps %xmm0,0x40(%rsp)
    78a1:	0f 29 44 24 50       	movaps %xmm0,0x50(%rsp)
    78a6:	e8 6e 55 00 00       	callq  ce19 <setjmp>
    78ab:	85 c0                	test   %eax,%eax
    78ad:	74 71                	je     7920 <do_ecall+0x160>
    78af:	48 8b 74 24 18       	mov    0x18(%rsp),%rsi
    78b4:	bb 09 00 00 00       	mov    $0x9,%ebx
    78b9:	48 8b 46 10          	mov    0x10(%rsi),%rax
    78bd:	48 89 46 08          	mov    %rax,0x8(%rsi)
    78c1:	bf 09 00 00 00       	mov    $0x9,%edi
    78c6:	e8 d5 fc ff ff       	callq  75a0 <_Z24_pthread_tls_store_state9_status_t>
    78cb:	e8 10 fd ff ff       	callq  75e0 <_Z24_pthread_tls_destructorsv>
    78d0:	48 8b 7c 24 08       	mov    0x8(%rsp),%rdi
    78d5:	e8 f6 fc ff ff       	callq  75d0 <_Z20_pthread_wakeup_joinPv>
    78da:	e9 12 ff ff ff       	jmpq   77f1 <do_ecall+0x31>
    78df:	90                   	nop
    78e0:	e8 cb fc ff ff       	callq  75b0 <_Z22_pthread_tls_get_statev>
    78e5:	83 f8 09             	cmp    $0x9,%eax
    78e8:	0f 84 76 ff ff ff    	je     7864 <do_ecall+0xa4>
    78ee:	83 7c 24 14 fa       	cmpl   $0xfffffffa,0x14(%rsp)
    78f3:	0f 85 2b ff ff ff    	jne    7824 <do_ecall+0x64>
    78f9:	e9 66 ff ff ff       	jmpq   7864 <do_ecall+0xa4>
    78fe:	66 90                	xchg   %ax,%ax
    7900:	0f c7 f0             	rdrand %eax
    7903:	73 fb                	jae    7900 <do_ecall+0x140>
    7905:	48 8b 74 24 08       	mov    0x8(%rsp),%rsi
    790a:	8b 7c 24 14          	mov    0x14(%rsp),%edi
    790e:	e8 6d fc ff ff       	callq  7580 <_Z30_random_stack_noinline_wrapperI9_status_tJjPvEJRiRS1_EET_PFS4_DpT0_EDpOT1_.isra.0.constprop.3>
    7913:	89 c3                	mov    %eax,%ebx
    7915:	e9 d7 fe ff ff       	jmpq   77f1 <do_ecall+0x31>
    791a:	66 0f 1f 44 00 00    	nopw   0x0(%rax,%rax,1)
    7920:	48 8d 7c 24 20       	lea    0x20(%rsp),%rdi
    7925:	e8 96 fc ff ff       	callq  75c0 <_Z26_pthread_tls_store_contextPv>
    792a:	0f c7 f0             	rdrand %eax
    792d:	73 fb                	jae    792a <do_ecall+0x16a>
    792f:	8b 6c 24 14          	mov    0x14(%rsp),%ebp
    7933:	48 8b 74 24 08       	mov    0x8(%rsp),%rsi
    7938:	89 ef                	mov    %ebp,%edi
    793a:	e8 41 fc ff ff       	callq  7580 <_Z30_random_stack_noinline_wrapperI9_status_tJjPvEJRiRS1_EET_PFS4_DpT0_EDpOT1_.isra.0.constprop.3>
    793f:	83 fd fa             	cmp    $0xfffffffa,%ebp
    7942:	89 c3                	mov    %eax,%ebx
    7944:	0f 84 77 ff ff ff    	je     78c1 <do_ecall+0x101>
    794a:	83 fb 09             	cmp    $0x9,%ebx
    794d:	0f 85 78 ff ff ff    	jne    78cb <do_ecall+0x10b>
    7953:	e9 69 ff ff ff       	jmpq   78c1 <do_ecall+0x101>
    7958:	e8 b3 1a 00 00       	callq  9410 <__stack_chk_fail>
    795d:	0f 1f 00             	nopl   (%rax)

0000000000007960 <do_ecall_add_thread>:
    7960:	55                   	push   %rbp
    7961:	53                   	push   %rbx
    7962:	48 89 fb             	mov    %rdi,%rbx
    7965:	48 83 ec 08          	sub    $0x8,%rsp
    7969:	e8 72 08 00 00       	callq  81e0 <is_utility_thread>
    796e:	48 85 db             	test   %rbx,%rbx
    7971:	74 04                	je     7977 <do_ecall_add_thread+0x17>
    7973:	3c 01                	cmp    $0x1,%al
    7975:	74 11                	je     7988 <do_ecall_add_thread+0x28>
    7977:	bb 01 00 00 00       	mov    $0x1,%ebx
    797c:	48 83 c4 08          	add    $0x8,%rsp
    7980:	89 d8                	mov    %ebx,%eax
    7982:	5b                   	pop    %rbx
    7983:	5d                   	pop    %rbp
    7984:	c3                   	retq   
    7985:	0f 1f 00             	nopl   (%rax)
    7988:	be 08 00 00 00       	mov    $0x8,%esi
    798d:	48 89 df             	mov    %rbx,%rdi
    7990:	e8 4b e9 ff ff       	callq  62e0 <sgx_is_outside_enclave>
    7995:	85 c0                	test   %eax,%eax
    7997:	74 de                	je     7977 <do_ecall_add_thread+0x17>
    7999:	48 8b 2b             	mov    (%rbx),%rbp
    799c:	48 85 ed             	test   %rbp,%rbp
    799f:	74 d6                	je     7977 <do_ecall_add_thread+0x17>
    79a1:	48 89 ef             	mov    %rbp,%rdi
    79a4:	0f ae e8             	lfence 
    79a7:	e8 84 f8 ff ff       	callq  7230 <_ZL11do_save_tcsPv>
    79ac:	85 c0                	test   %eax,%eax
    79ae:	89 c3                	mov    %eax,%ebx
    79b0:	75 ca                	jne    797c <do_ecall_add_thread+0x1c>
    79b2:	48 89 ef             	mov    %rbp,%rdi
    79b5:	e8 36 f6 ff ff       	callq  6ff0 <do_add_thread>
    79ba:	85 c0                	test   %eax,%eax
    79bc:	89 c3                	mov    %eax,%ebx
    79be:	74 bc                	je     797c <do_ecall_add_thread+0x1c>
    79c0:	e8 1b 08 00 00       	callq  81e0 <is_utility_thread>
    79c5:	84 c0                	test   %al,%al
    79c7:	74 b3                	je     797c <do_ecall_add_thread+0x1c>
    79c9:	48 8b 15 00 a7 00 00 	mov    0xa700(%rip),%rdx        # 120d0 <_ZL10g_tcs_node>
    79d0:	48 85 d2             	test   %rdx,%rdx
    79d3:	74 a7                	je     797c <do_ecall_add_thread+0x1c>
    79d5:	48 8b 0d ec a6 00 00 	mov    0xa6ec(%rip),%rcx        # 120c8 <_ZL12g_tcs_cookie>
    79dc:	48 8b 32             	mov    (%rdx),%rsi
    79df:	48 8b 42 08          	mov    0x8(%rdx),%rax
    79e3:	48 31 ce             	xor    %rcx,%rsi
    79e6:	48 39 f5             	cmp    %rsi,%rbp
    79e9:	74 42                	je     7a2d <do_ecall_add_thread+0xcd>
    79eb:	48 85 c0             	test   %rax,%rax
    79ee:	74 8c                	je     797c <do_ecall_add_thread+0x1c>
    79f0:	48 8b 30             	mov    (%rax),%rsi
    79f3:	48 31 ce             	xor    %rcx,%rsi
    79f6:	48 39 f5             	cmp    %rsi,%rbp
    79f9:	75 08                	jne    7a03 <do_ecall_add_thread+0xa3>
    79fb:	eb 44                	jmp    7a41 <do_ecall_add_thread+0xe1>
    79fd:	0f 1f 00             	nopl   (%rax)
    7a00:	48 89 f8             	mov    %rdi,%rax
    7a03:	48 8b 78 08          	mov    0x8(%rax),%rdi
    7a07:	48 85 ff             	test   %rdi,%rdi
    7a0a:	0f 84 6c ff ff ff    	je     797c <do_ecall_add_thread+0x1c>
    7a10:	48 8b 17             	mov    (%rdi),%rdx
    7a13:	48 31 ca             	xor    %rcx,%rdx
    7a16:	48 39 d5             	cmp    %rdx,%rbp
    7a19:	75 e5                	jne    7a00 <do_ecall_add_thread+0xa0>
    7a1b:	48 8b 57 08          	mov    0x8(%rdi),%rdx
    7a1f:	48 89 50 08          	mov    %rdx,0x8(%rax)
    7a23:	e8 88 3c 00 00       	callq  b6b0 <dlfree>
    7a28:	e9 4f ff ff ff       	jmpq   797c <do_ecall_add_thread+0x1c>
    7a2d:	48 89 d7             	mov    %rdx,%rdi
    7a30:	48 89 05 99 a6 00 00 	mov    %rax,0xa699(%rip)        # 120d0 <_ZL10g_tcs_node>
    7a37:	e8 74 3c 00 00       	callq  b6b0 <dlfree>
    7a3c:	e9 3b ff ff ff       	jmpq   797c <do_ecall_add_thread+0x1c>
    7a41:	48 89 c7             	mov    %rax,%rdi
    7a44:	48 89 d0             	mov    %rdx,%rax
    7a47:	eb d2                	jmp    7a1b <do_ecall_add_thread+0xbb>
    7a49:	0f 1f 80 00 00 00 00 	nopl   0x0(%rax)

0000000000007a50 <do_uninit_enclave>:
    7a50:	48 8d 05 d1 a3 00 00 	lea    0xa3d1(%rip),%rax        # 11e28 <EDMM_supported>
    7a57:	41 54                	push   %r12
    7a59:	55                   	push   %rbp
    7a5a:	53                   	push   %rbx
    7a5b:	8b 00                	mov    (%rax),%eax
    7a5d:	85 c0                	test   %eax,%eax
    7a5f:	0f 84 b0 00 00 00    	je     7b15 <do_uninit_enclave+0xc5>
    7a65:	48 89 fd             	mov    %rdi,%rbp
    7a68:	e8 73 07 00 00       	callq  81e0 <is_utility_thread>
    7a6d:	84 c0                	test   %al,%al
    7a6f:	0f 84 93 00 00 00    	je     7b08 <do_uninit_enclave+0xb8>
    7a75:	f0 83 0d 43 a6 00 00 	lock orl $0x1,0xa643(%rip)        # 120c0 <g_uninit_flag>
    7a7c:	01 
    7a7d:	48 8b 1d 4c a6 00 00 	mov    0xa64c(%rip),%rbx        # 120d0 <_ZL10g_tcs_node>
    7a84:	48 c7 05 41 a6 00 00 	movq   $0x0,0xa641(%rip)        # 120d0 <_ZL10g_tcs_node>
    7a8b:	00 00 00 00 
    7a8f:	48 85 db             	test   %rbx,%rbx
    7a92:	74 3c                	je     7ad0 <do_uninit_enclave+0x80>
    7a94:	0f 1f 40 00          	nopl   0x0(%rax)
    7a98:	48 8b 33             	mov    (%rbx),%rsi
    7a9b:	48 33 35 26 a6 00 00 	xor    0xa626(%rip),%rsi        # 120c8 <_ZL12g_tcs_cookie>
    7aa2:	48 39 f5             	cmp    %rsi,%rbp
    7aa5:	74 15                	je     7abc <do_uninit_enclave+0x6c>
    7aa7:	48 8d 96 00 10 00 00 	lea    0x1000(%rsi),%rdx
    7aae:	bf 10 04 00 00       	mov    $0x410,%edi
    7ab3:	e8 58 f1 ff ff       	callq  6c10 <sgx_accept_forward>
    7ab8:	85 c0                	test   %eax,%eax
    7aba:	75 59                	jne    7b15 <do_uninit_enclave+0xc5>
    7abc:	4c 8b 63 08          	mov    0x8(%rbx),%r12
    7ac0:	48 89 df             	mov    %rbx,%rdi
    7ac3:	e8 e8 3b 00 00       	callq  b6b0 <dlfree>
    7ac8:	4c 89 e3             	mov    %r12,%rbx
    7acb:	48 85 db             	test   %rbx,%rbx
    7ace:	75 c8                	jne    7a98 <do_uninit_enclave+0x48>
    7ad0:	48 8d 3d ed a5 00 00 	lea    0xa5ed(%rip),%rdi        # 120c4 <_ZL10g_ife_lock>
    7ad7:	e8 d4 52 00 00       	callq  cdb0 <sgx_spin_lock>
    7adc:	0f b6 05 29 a5 00 00 	movzbl 0xa529(%rip),%eax        # 1200c <_ZL16g_is_first_ecall>
    7ae3:	84 c0                	test   %al,%al
    7ae5:	74 49                	je     7b30 <do_uninit_enclave+0xe0>
    7ae7:	48 8d 3d d6 a5 00 00 	lea    0xa5d6(%rip),%rdi        # 120c4 <_ZL10g_ife_lock>
    7aee:	e8 1d 53 00 00       	callq  ce10 <sgx_spin_unlock>
    7af3:	bf 03 00 00 00       	mov    $0x3,%edi
    7af8:	e8 de 5e 00 00       	callq  d9db <set_enclave_state>
    7afd:	5b                   	pop    %rbx
    7afe:	31 c0                	xor    %eax,%eax
    7b00:	5d                   	pop    %rbp
    7b01:	41 5c                	pop    %r12
    7b03:	c3                   	retq   
    7b04:	0f 1f 40 00          	nopl   0x0(%rax)
    7b08:	e8 03 f0 ff ff       	callq  6b10 <is_dynamic_thread_exist>
    7b0d:	85 c0                	test   %eax,%eax
    7b0f:	0f 84 60 ff ff ff    	je     7a75 <do_uninit_enclave+0x25>
    7b15:	bf 03 00 00 00       	mov    $0x3,%edi
    7b1a:	e8 bc 5e 00 00       	callq  d9db <set_enclave_state>
    7b1f:	5b                   	pop    %rbx
    7b20:	b8 01 00 00 00       	mov    $0x1,%eax
    7b25:	5d                   	pop    %rbp
    7b26:	41 5c                	pop    %r12
    7b28:	c3                   	retq   
    7b29:	0f 1f 80 00 00 00 00 	nopl   0x0(%rax)
    7b30:	e8 db 17 00 00       	callq  9310 <uninit_global_object>
    7b35:	eb b0                	jmp    7ae7 <do_uninit_enclave+0x97>
    7b37:	66 0f 1f 84 00 00 00 	nopw   0x0(%rax,%rax,1)
    7b3e:	00 00 

0000000000007b40 <trts_mprotect>:
    7b40:	4c 8d 54 24 08       	lea    0x8(%rsp),%r10
    7b45:	48 83 e4 c0          	and    $0xffffffffffffffc0,%rsp
    7b49:	41 ff 72 f8          	pushq  -0x8(%r10)
    7b4d:	55                   	push   %rbp
    7b4e:	48 89 e5             	mov    %rsp,%rbp
    7b51:	41 56                	push   %r14
    7b53:	41 55                	push   %r13
    7b55:	41 54                	push   %r12
    7b57:	41 52                	push   %r10
    7b59:	53                   	push   %rbx
    7b5a:	48 81 ec 88 00 00 00 	sub    $0x88,%rsp
    7b61:	64 48 8b 04 25 28 00 	mov    %fs:0x28,%rax
    7b68:	00 00 
    7b6a:	48 89 45 c8          	mov    %rax,-0x38(%rbp)
    7b6e:	31 c0                	xor    %eax,%eax
    7b70:	f7 c7 ff 0f 00 00    	test   $0xfff,%edi
    7b76:	b8 02 00 00 00       	mov    $0x2,%eax
    7b7b:	0f 85 8f 00 00 00    	jne    7c10 <trts_mprotect+0xd0>
    7b81:	48 85 f6             	test   %rsi,%rsi
    7b84:	49 89 f4             	mov    %rsi,%r12
    7b87:	0f 84 83 00 00 00    	je     7c10 <trts_mprotect+0xd0>
    7b8d:	f7 c6 ff 0f 00 00    	test   $0xfff,%esi
    7b93:	75 7b                	jne    7c10 <trts_mprotect+0xd0>
    7b95:	48 8d 05 88 a2 00 00 	lea    0xa288(%rip),%rax        # 11e24 <g_sdk_version>
    7b9c:	48 89 fb             	mov    %rdi,%rbx
    7b9f:	49 89 d5             	mov    %rdx,%r13
    7ba2:	83 38 01             	cmpl   $0x1,(%rax)
    7ba5:	0f 84 8d 00 00 00    	je     7c38 <trts_mprotect+0xf8>
    7bab:	4c 8d b5 50 ff ff ff 	lea    -0xb0(%rbp),%r14
    7bb2:	4c 89 e8             	mov    %r13,%rax
    7bb5:	31 f6                	xor    %esi,%esi
    7bb7:	48 0d 20 02 00 00    	or     $0x220,%rax
    7bbd:	ba 38 00 00 00       	mov    $0x38,%edx
    7bc2:	49 01 dc             	add    %rbx,%r12
    7bc5:	49 8d 7e 08          	lea    0x8(%r14),%rdi
    7bc9:	48 89 85 50 ff ff ff 	mov    %rax,-0xb0(%rbp)
    7bd0:	41 83 e5 06          	and    $0x6,%r13d
    7bd4:	e8 f4 4f 00 00       	callq  cbcd <memset>
    7bd9:	4c 39 e3             	cmp    %r12,%rbx
    7bdc:	73 2e                	jae    7c0c <trts_mprotect+0xcc>
    7bde:	66 90                	xchg   %ax,%ax
    7be0:	48 89 de             	mov    %rbx,%rsi
    7be3:	4c 89 f7             	mov    %r14,%rdi
    7be6:	e8 11 61 00 00       	callq  dcfc <do_emodpe>
    7beb:	49 83 fd 06          	cmp    $0x6,%r13
    7bef:	74 0f                	je     7c00 <trts_mprotect+0xc0>
    7bf1:	48 89 de             	mov    %rbx,%rsi
    7bf4:	4c 89 f7             	mov    %r14,%rdi
    7bf7:	e8 e6 60 00 00       	callq  dce2 <do_eaccept>
    7bfc:	85 c0                	test   %eax,%eax
    7bfe:	75 10                	jne    7c10 <trts_mprotect+0xd0>
    7c00:	48 81 c3 00 10 00 00 	add    $0x1000,%rbx
    7c07:	4c 39 e3             	cmp    %r12,%rbx
    7c0a:	72 d4                	jb     7be0 <trts_mprotect+0xa0>
    7c0c:	31 c0                	xor    %eax,%eax
    7c0e:	66 90                	xchg   %ax,%ax
    7c10:	48 8b 4d c8          	mov    -0x38(%rbp),%rcx
    7c14:	64 48 33 0c 25 28 00 	xor    %fs:0x28,%rcx
    7c1b:	00 00 
    7c1d:	75 2d                	jne    7c4c <trts_mprotect+0x10c>
    7c1f:	48 81 c4 88 00 00 00 	add    $0x88,%rsp
    7c26:	5b                   	pop    %rbx
    7c27:	41 5a                	pop    %r10
    7c29:	41 5c                	pop    %r12
    7c2b:	41 5d                	pop    %r13
    7c2d:	41 5e                	pop    %r14
    7c2f:	5d                   	pop    %rbp
    7c30:	49 8d 62 f8          	lea    -0x8(%r10),%rsp
    7c34:	c3                   	retq   
    7c35:	0f 1f 00             	nopl   (%rax)
    7c38:	b9 fc ff ff ff       	mov    $0xfffffffc,%ecx
    7c3d:	e8 1e 00 00 00       	callq  7c60 <change_permissions_ocall>
    7c42:	85 c0                	test   %eax,%eax
    7c44:	0f 84 61 ff ff ff    	je     7bab <trts_mprotect+0x6b>
    7c4a:	eb c4                	jmp    7c10 <trts_mprotect+0xd0>
    7c4c:	e8 bf 17 00 00       	callq  9410 <__stack_chk_fail>
    7c51:	66 2e 0f 1f 84 00 00 	nopw   %cs:0x0(%rax,%rax,1)
    7c58:	00 00 00 
    7c5b:	0f 1f 44 00 00       	nopl   0x0(%rax,%rax,1)

0000000000007c60 <change_permissions_ocall>:
    7c60:	41 55                	push   %r13
    7c62:	41 54                	push   %r12
    7c64:	49 89 fd             	mov    %rdi,%r13
    7c67:	55                   	push   %rbp
    7c68:	53                   	push   %rbx
    7c69:	bf 18 00 00 00       	mov    $0x18,%edi
    7c6e:	49 89 f4             	mov    %rsi,%r12
    7c71:	48 89 d5             	mov    %rdx,%rbp
    7c74:	89 cb                	mov    %ecx,%ebx
    7c76:	48 83 ec 08          	sub    $0x8,%rsp
    7c7a:	e8 b1 e6 ff ff       	callq  6330 <sgx_ocalloc>
    7c7f:	48 85 c0             	test   %rax,%rax
    7c82:	74 2c                	je     7cb0 <change_permissions_ocall+0x50>
    7c84:	89 df                	mov    %ebx,%edi
    7c86:	4c 89 28             	mov    %r13,(%rax)
    7c89:	4c 89 60 08          	mov    %r12,0x8(%rax)
    7c8d:	48 89 68 10          	mov    %rbp,0x10(%rax)
    7c91:	48 89 c6             	mov    %rax,%rsi
    7c94:	e8 37 00 00 00       	callq  7cd0 <sgx_ocall>
    7c99:	89 c3                	mov    %eax,%ebx
    7c9b:	e8 80 e7 ff ff       	callq  6420 <sgx_ocfree>
    7ca0:	48 83 c4 08          	add    $0x8,%rsp
    7ca4:	89 d8                	mov    %ebx,%eax
    7ca6:	5b                   	pop    %rbx
    7ca7:	5d                   	pop    %rbp
    7ca8:	41 5c                	pop    %r12
    7caa:	41 5d                	pop    %r13
    7cac:	c3                   	retq   
    7cad:	0f 1f 00             	nopl   (%rax)
    7cb0:	e8 6b e7 ff ff       	callq  6420 <sgx_ocfree>
    7cb5:	bb 01 00 00 00       	mov    $0x1,%ebx
    7cba:	48 83 c4 08          	add    $0x8,%rsp
    7cbe:	89 d8                	mov    %ebx,%eax
    7cc0:	5b                   	pop    %rbx
    7cc1:	5d                   	pop    %rbp
    7cc2:	41 5c                	pop    %r12
    7cc4:	41 5d                	pop    %r13
    7cc6:	c3                   	retq   
    7cc7:	66 0f 1f 84 00 00 00 	nopw   0x0(%rax,%rax,1)
    7cce:	00 00 

0000000000007cd0 <sgx_ocall>:
    7cd0:	8d 47 05             	lea    0x5(%rdi),%eax
    7cd3:	83 f8 03             	cmp    $0x3,%eax
    7cd6:	76 12                	jbe    7cea <sgx_ocall+0x1a>
    7cd8:	85 ff                	test   %edi,%edi
    7cda:	74 0e                	je     7cea <sgx_ocall+0x1a>
    7cdc:	48 8d 15 1d 63 00 00 	lea    0x631d(%rip),%rdx        # e000 <g_dyn_entry_table>
    7ce3:	89 f8                	mov    %edi,%eax
    7ce5:	48 3b 02             	cmp    (%rdx),%rax
    7ce8:	73 06                	jae    7cf0 <sgx_ocall+0x20>
    7cea:	e9 46 5f 00 00       	jmpq   dc35 <__morestack>
    7cef:	90                   	nop
    7cf0:	b8 01 10 00 00       	mov    $0x1001,%eax
    7cf5:	c3                   	retq   
    7cf6:	66 2e 0f 1f 84 00 00 	nopw   %cs:0x0(%rax,%rax,1)
    7cfd:	00 00 00 

0000000000007d00 <update_ocall_lastsp>:
    7d00:	53                   	push   %rbx
    7d01:	48 89 fb             	mov    %rdi,%rbx
    7d04:	e8 f8 5c 00 00       	callq  da01 <get_thread_data>
    7d09:	48 8b 50 08          	mov    0x8(%rax),%rdx
    7d0d:	48 39 50 10          	cmp    %rdx,0x10(%rax)
    7d11:	48 89 53 30          	mov    %rdx,0x30(%rbx)
    7d15:	74 21                	je     7d38 <update_ocall_lastsp+0x38>
    7d17:	48 8b b2 90 00 00 00 	mov    0x90(%rdx),%rsi
    7d1e:	48 8d 4e 01          	lea    0x1(%rsi),%rcx
    7d22:	48 89 8b 90 00 00 00 	mov    %rcx,0x90(%rbx)
    7d29:	48 89 58 08          	mov    %rbx,0x8(%rax)
    7d2d:	48 89 d0             	mov    %rdx,%rax
    7d30:	5b                   	pop    %rbx
    7d31:	c3                   	retq   
    7d32:	66 0f 1f 44 00 00    	nopw   0x0(%rax,%rax,1)
    7d38:	48 c7 83 90 00 00 00 	movq   $0x1,0x90(%rbx)
    7d3f:	01 00 00 00 
    7d43:	48 89 58 08          	mov    %rbx,0x8(%rax)
    7d47:	48 89 d0             	mov    %rdx,%rax
    7d4a:	5b                   	pop    %rbx
    7d4b:	c3                   	retq   
    7d4c:	0f 1f 40 00          	nopl   0x0(%rax)

0000000000007d50 <do_oret>:
    7d50:	53                   	push   %rbx
    7d51:	48 89 fb             	mov    %rdi,%rbx
    7d54:	48 83 ec 10          	sub    $0x10,%rsp
    7d58:	64 48 8b 04 25 28 00 	mov    %fs:0x28,%rax
    7d5f:	00 00 
    7d61:	48 89 44 24 08       	mov    %rax,0x8(%rsp)
    7d66:	31 c0                	xor    %eax,%eax
    7d68:	e8 94 5c 00 00       	callq  da01 <get_thread_data>
    7d6d:	48 8b 78 08          	mov    0x8(%rax),%rdi
    7d71:	48 85 ff             	test   %rdi,%rdi
    7d74:	48 89 3c 24          	mov    %rdi,(%rsp)
    7d78:	74 46                	je     7dc0 <do_oret+0x70>
    7d7a:	48 89 e2             	mov    %rsp,%rdx
    7d7d:	48 39 fa             	cmp    %rdi,%rdx
    7d80:	73 3e                	jae    7dc0 <do_oret+0x70>
    7d82:	48 8b 50 10          	mov    0x10(%rax),%rdx
    7d86:	48 8d 8a 10 ff ff ff 	lea    -0xf0(%rdx),%rcx
    7d8d:	48 39 f9             	cmp    %rdi,%rcx
    7d90:	72 2e                	jb     7dc0 <do_oret+0x70>
    7d92:	48 81 7f 20 44 49 43 	cmpq   $0x4f434944,0x20(%rdi)
    7d99:	4f 
    7d9a:	75 24                	jne    7dc0 <do_oret+0x70>
    7d9c:	48 8b 4f 30          	mov    0x30(%rdi),%rcx
    7da0:	48 39 ca             	cmp    %rcx,%rdx
    7da3:	72 1b                	jb     7dc0 <do_oret+0x70>
    7da5:	48 39 f9             	cmp    %rdi,%rcx
    7da8:	76 16                	jbe    7dc0 <do_oret+0x70>
    7daa:	48 89 48 08          	mov    %rcx,0x8(%rax)
    7dae:	48 89 de             	mov    %rbx,%rsi
    7db1:	e8 8e 5e 00 00       	callq  dc44 <asm_oret>
    7db6:	66 2e 0f 1f 84 00 00 	nopw   %cs:0x0(%rax,%rax,1)
    7dbd:	00 00 00 
    7dc0:	48 8b 74 24 08       	mov    0x8(%rsp),%rsi
    7dc5:	64 48 33 34 25 28 00 	xor    %fs:0x28,%rsi
    7dcc:	00 00 
    7dce:	b8 01 00 00 00       	mov    $0x1,%eax
    7dd3:	75 06                	jne    7ddb <do_oret+0x8b>
    7dd5:	48 83 c4 10          	add    $0x10,%rsp
    7dd9:	5b                   	pop    %rbx
    7dda:	c3                   	retq   
    7ddb:	e8 30 16 00 00       	callq  9410 <__stack_chk_fail>

0000000000007de0 <trim_range_ocall>:
    7de0:	55                   	push   %rbp
    7de1:	53                   	push   %rbx
    7de2:	48 89 fd             	mov    %rdi,%rbp
    7de5:	bf 10 00 00 00       	mov    $0x10,%edi
    7dea:	48 89 f3             	mov    %rsi,%rbx
    7ded:	48 83 ec 08          	sub    $0x8,%rsp
    7df1:	e8 3a e5 ff ff       	callq  6330 <sgx_ocalloc>
    7df6:	48 85 c0             	test   %rax,%rax
    7df9:	74 25                	je     7e20 <trim_range_ocall+0x40>
    7dfb:	48 89 28             	mov    %rbp,(%rax)
    7dfe:	48 89 58 08          	mov    %rbx,0x8(%rax)
    7e02:	48 89 c6             	mov    %rax,%rsi
    7e05:	bf fe ff ff ff       	mov    $0xfffffffe,%edi
    7e0a:	e8 c1 fe ff ff       	callq  7cd0 <sgx_ocall>
    7e0f:	89 c3                	mov    %eax,%ebx
    7e11:	e8 0a e6 ff ff       	callq  6420 <sgx_ocfree>
    7e16:	48 83 c4 08          	add    $0x8,%rsp
    7e1a:	89 d8                	mov    %ebx,%eax
    7e1c:	5b                   	pop    %rbx
    7e1d:	5d                   	pop    %rbp
    7e1e:	c3                   	retq   
    7e1f:	90                   	nop
    7e20:	e8 fb e5 ff ff       	callq  6420 <sgx_ocfree>
    7e25:	bb 01 00 00 00       	mov    $0x1,%ebx
    7e2a:	48 83 c4 08          	add    $0x8,%rsp
    7e2e:	89 d8                	mov    %ebx,%eax
    7e30:	5b                   	pop    %rbx
    7e31:	5d                   	pop    %rbp
    7e32:	c3                   	retq   
    7e33:	66 2e 0f 1f 84 00 00 	nopw   %cs:0x0(%rax,%rax,1)
    7e3a:	00 00 00 
    7e3d:	0f 1f 00             	nopl   (%rax)

0000000000007e40 <trim_range_commit_ocall>:
    7e40:	53                   	push   %rbx
    7e41:	48 89 fb             	mov    %rdi,%rbx
    7e44:	bf 08 00 00 00       	mov    $0x8,%edi
    7e49:	e8 e2 e4 ff ff       	callq  6330 <sgx_ocalloc>
    7e4e:	48 85 c0             	test   %rax,%rax
    7e51:	74 1d                	je     7e70 <trim_range_commit_ocall+0x30>
    7e53:	48 89 18             	mov    %rbx,(%rax)
    7e56:	48 89 c6             	mov    %rax,%rsi
    7e59:	bf fd ff ff ff       	mov    $0xfffffffd,%edi
    7e5e:	e8 6d fe ff ff       	callq  7cd0 <sgx_ocall>
    7e63:	89 c3                	mov    %eax,%ebx
    7e65:	e8 b6 e5 ff ff       	callq  6420 <sgx_ocfree>
    7e6a:	89 d8                	mov    %ebx,%eax
    7e6c:	5b                   	pop    %rbx
    7e6d:	c3                   	retq   
    7e6e:	66 90                	xchg   %ax,%ax
    7e70:	bb 01 00 00 00       	mov    $0x1,%ebx
    7e75:	e8 a6 e5 ff ff       	callq  6420 <sgx_ocfree>
    7e7a:	89 d8                	mov    %ebx,%eax
    7e7c:	5b                   	pop    %rbx
    7e7d:	c3                   	retq   
    7e7e:	66 90                	xchg   %ax,%ax

0000000000007e80 <get_enclave_size>:
    7e80:	48 8d 05 39 62 00 00 	lea    0x6239(%rip),%rax        # e0c0 <g_global_data>
    7e87:	48 8b 40 08          	mov    0x8(%rax),%rax
    7e8b:	c3                   	retq   
    7e8c:	0f 1f 40 00          	nopl   0x0(%rax)

0000000000007e90 <get_enclave_end>:
    7e90:	48 83 ec 08          	sub    $0x8,%rsp
    7e94:	e8 2d 5b 00 00       	callq  d9c6 <get_enclave_base>
    7e99:	48 8d 15 20 62 00 00 	lea    0x6220(%rip),%rdx        # e0c0 <g_global_data>
    7ea0:	48 8b 52 08          	mov    0x8(%rdx),%rdx
    7ea4:	48 83 c4 08          	add    $0x8,%rsp
    7ea8:	48 8d 44 10 ff       	lea    -0x1(%rax,%rdx,1),%rax
    7ead:	c3                   	retq   
    7eae:	66 90                	xchg   %ax,%ax

0000000000007eb0 <get_heap_base>:
    7eb0:	48 8d 05 09 62 00 00 	lea    0x6209(%rip),%rax        # e0c0 <g_global_data>
    7eb7:	48 8b 40 10          	mov    0x10(%rax),%rax
    7ebb:	48 03 05 06 a1 00 00 	add    0xa106(%rip),%rax        # 11fc8 <_GLOBAL_OFFSET_TABLE_+0x18>
    7ec2:	c3                   	retq   
    7ec3:	66 2e 0f 1f 84 00 00 	nopw   %cs:0x0(%rax,%rax,1)
    7eca:	00 00 00 
    7ecd:	0f 1f 00             	nopl   (%rax)

0000000000007ed0 <get_heap_size>:
    7ed0:	48 8d 15 51 9f 00 00 	lea    0x9f51(%rip),%rdx        # 11e28 <EDMM_supported>
    7ed7:	48 8d 35 e2 61 00 00 	lea    0x61e2(%rip),%rsi        # e0c0 <g_global_data>
    7ede:	8b 12                	mov    (%rdx),%edx
    7ee0:	48 8b 46 18          	mov    0x18(%rsi),%rax
    7ee4:	85 d2                	test   %edx,%edx
    7ee6:	74 40                	je     7f28 <get_heap_size+0x58>
    7ee8:	8b 96 30 01 00 00    	mov    0x130(%rsi),%edx
    7eee:	85 d2                	test   %edx,%edx
    7ef0:	74 36                	je     7f28 <get_heap_size+0x58>
    7ef2:	31 c9                	xor    %ecx,%ecx
    7ef4:	0f 1f 40 00          	nopl   0x0(%rax)
    7ef8:	89 ca                	mov    %ecx,%edx
    7efa:	48 c1 e2 05          	shl    $0x5,%rdx
    7efe:	48 01 f2             	add    %rsi,%rdx
    7f01:	0f b7 ba 38 01 00 00 	movzwl 0x138(%rdx),%edi
    7f08:	66 83 ff 03          	cmp    $0x3,%di
    7f0c:	75 0d                	jne    7f1b <get_heap_size+0x4b>
    7f0e:	8b 92 3c 01 00 00    	mov    0x13c(%rdx),%edx
    7f14:	48 c1 e2 0c          	shl    $0xc,%rdx
    7f18:	48 01 d0             	add    %rdx,%rax
    7f1b:	8b 96 30 01 00 00    	mov    0x130(%rsi),%edx
    7f21:	83 c1 01             	add    $0x1,%ecx
    7f24:	39 ca                	cmp    %ecx,%edx
    7f26:	77 d0                	ja     7ef8 <get_heap_size+0x28>
    7f28:	f3 c3                	repz retq 
    7f2a:	66 0f 1f 44 00 00    	nopw   0x0(%rax,%rax,1)

0000000000007f30 <get_heap_min_size>:
    7f30:	48 8d 0d 89 61 00 00 	lea    0x6189(%rip),%rcx        # e0c0 <g_global_data>
    7f37:	8b 81 30 01 00 00    	mov    0x130(%rcx),%eax
    7f3d:	85 c0                	test   %eax,%eax
    7f3f:	74 3d                	je     7f7e <get_heap_min_size+0x4e>
    7f41:	0f b7 81 38 01 00 00 	movzwl 0x138(%rcx),%eax
    7f48:	66 83 f8 01          	cmp    $0x1,%ax
    7f4c:	74 3a                	je     7f88 <get_heap_min_size+0x58>
    7f4e:	31 c0                	xor    %eax,%eax
    7f50:	eb 1f                	jmp    7f71 <get_heap_min_size+0x41>
    7f52:	66 0f 1f 44 00 00    	nopw   0x0(%rax,%rax,1)
    7f58:	89 c6                	mov    %eax,%esi
    7f5a:	48 89 f2             	mov    %rsi,%rdx
    7f5d:	48 c1 e2 05          	shl    $0x5,%rdx
    7f61:	48 01 ca             	add    %rcx,%rdx
    7f64:	0f b7 92 38 01 00 00 	movzwl 0x138(%rdx),%edx
    7f6b:	66 83 fa 01          	cmp    $0x1,%dx
    7f6f:	74 19                	je     7f8a <get_heap_min_size+0x5a>
    7f71:	8b 91 30 01 00 00    	mov    0x130(%rcx),%edx
    7f77:	83 c0 01             	add    $0x1,%eax
    7f7a:	39 c2                	cmp    %eax,%edx
    7f7c:	77 da                	ja     7f58 <get_heap_min_size+0x28>
    7f7e:	31 c0                	xor    %eax,%eax
    7f80:	c3                   	retq   
    7f81:	0f 1f 80 00 00 00 00 	nopl   0x0(%rax)
    7f88:	31 f6                	xor    %esi,%esi
    7f8a:	48 c1 e6 05          	shl    $0x5,%rsi
    7f8e:	48 01 f1             	add    %rsi,%rcx
    7f91:	8b 81 3c 01 00 00    	mov    0x13c(%rcx),%eax
    7f97:	48 c1 e0 0c          	shl    $0xc,%rax
    7f9b:	c3                   	retq   
    7f9c:	0f 1f 40 00          	nopl   0x0(%rax)

0000000000007fa0 <get_rsrv_base>:
    7fa0:	48 8d 05 19 61 00 00 	lea    0x6119(%rip),%rax        # e0c0 <g_global_data>
    7fa7:	48 8b 40 20          	mov    0x20(%rax),%rax
    7fab:	48 03 05 16 a0 00 00 	add    0xa016(%rip),%rax        # 11fc8 <_GLOBAL_OFFSET_TABLE_+0x18>
    7fb2:	c3                   	retq   
    7fb3:	66 2e 0f 1f 84 00 00 	nopw   %cs:0x0(%rax,%rax,1)
    7fba:	00 00 00 
    7fbd:	0f 1f 00             	nopl   (%rax)

0000000000007fc0 <get_rsrv_end>:
    7fc0:	48 8d 05 61 9e 00 00 	lea    0x9e61(%rip),%rax        # 11e28 <EDMM_supported>
    7fc7:	48 8d 0d f2 60 00 00 	lea    0x60f2(%rip),%rcx        # e0c0 <g_global_data>
    7fce:	8b 00                	mov    (%rax),%eax
    7fd0:	4c 8b 41 20          	mov    0x20(%rcx),%r8
    7fd4:	4c 03 05 ed 9f 00 00 	add    0x9fed(%rip),%r8        # 11fc8 <_GLOBAL_OFFSET_TABLE_+0x18>
    7fdb:	48 8b 79 28          	mov    0x28(%rcx),%rdi
    7fdf:	85 c0                	test   %eax,%eax
    7fe1:	74 3d                	je     8020 <get_rsrv_end+0x60>
    7fe3:	8b 81 30 01 00 00    	mov    0x130(%rcx),%eax
    7fe9:	85 c0                	test   %eax,%eax
    7feb:	74 33                	je     8020 <get_rsrv_end+0x60>
    7fed:	31 d2                	xor    %edx,%edx
    7fef:	90                   	nop
    7ff0:	89 d0                	mov    %edx,%eax
    7ff2:	48 c1 e0 05          	shl    $0x5,%rax
    7ff6:	48 01 c8             	add    %rcx,%rax
    7ff9:	0f b7 b0 38 01 00 00 	movzwl 0x138(%rax),%esi
    8000:	66 83 fe 16          	cmp    $0x16,%si
    8004:	75 0d                	jne    8013 <get_rsrv_end+0x53>
    8006:	8b 80 3c 01 00 00    	mov    0x13c(%rax),%eax
    800c:	48 c1 e0 0c          	shl    $0xc,%rax
    8010:	48 01 c7             	add    %rax,%rdi
    8013:	8b 81 30 01 00 00    	mov    0x130(%rcx),%eax
    8019:	83 c2 01             	add    $0x1,%edx
    801c:	39 d0                	cmp    %edx,%eax
    801e:	77 d0                	ja     7ff0 <get_rsrv_end+0x30>
    8020:	4a 8d 44 07 ff       	lea    -0x1(%rdi,%r8,1),%rax
    8025:	c3                   	retq   
    8026:	66 2e 0f 1f 84 00 00 	nopw   %cs:0x0(%rax,%rax,1)
    802d:	00 00 00 

0000000000008030 <get_rsrv_size>:
    8030:	48 8d 15 f1 9d 00 00 	lea    0x9df1(%rip),%rdx        # 11e28 <EDMM_supported>
    8037:	48 8d 35 82 60 00 00 	lea    0x6082(%rip),%rsi        # e0c0 <g_global_data>
    803e:	8b 12                	mov    (%rdx),%edx
    8040:	48 8b 46 28          	mov    0x28(%rsi),%rax
    8044:	85 d2                	test   %edx,%edx
    8046:	74 40                	je     8088 <get_rsrv_size+0x58>
    8048:	8b 96 30 01 00 00    	mov    0x130(%rsi),%edx
    804e:	85 d2                	test   %edx,%edx
    8050:	74 36                	je     8088 <get_rsrv_size+0x58>
    8052:	31 c9                	xor    %ecx,%ecx
    8054:	0f 1f 40 00          	nopl   0x0(%rax)
    8058:	89 ca                	mov    %ecx,%edx
    805a:	48 c1 e2 05          	shl    $0x5,%rdx
    805e:	48 01 f2             	add    %rsi,%rdx
    8061:	0f b7 ba 38 01 00 00 	movzwl 0x138(%rdx),%edi
    8068:	66 83 ff 16          	cmp    $0x16,%di
    806c:	75 0d                	jne    807b <get_rsrv_size+0x4b>
    806e:	8b 92 3c 01 00 00    	mov    0x13c(%rdx),%edx
    8074:	48 c1 e2 0c          	shl    $0xc,%rdx
    8078:	48 01 d0             	add    %rdx,%rax
    807b:	8b 96 30 01 00 00    	mov    0x130(%rsi),%edx
    8081:	83 c1 01             	add    $0x1,%ecx
    8084:	39 ca                	cmp    %ecx,%edx
    8086:	77 d0                	ja     8058 <get_rsrv_size+0x28>
    8088:	f3 c3                	repz retq 
    808a:	66 0f 1f 44 00 00    	nopw   0x0(%rax,%rax,1)

0000000000008090 <get_rsrv_min_size>:
    8090:	48 8d 0d 29 60 00 00 	lea    0x6029(%rip),%rcx        # e0c0 <g_global_data>
    8097:	8b 81 30 01 00 00    	mov    0x130(%rcx),%eax
    809d:	85 c0                	test   %eax,%eax
    809f:	74 3d                	je     80de <get_rsrv_min_size+0x4e>
    80a1:	0f b7 81 38 01 00 00 	movzwl 0x138(%rcx),%eax
    80a8:	66 83 f8 14          	cmp    $0x14,%ax
    80ac:	74 3a                	je     80e8 <get_rsrv_min_size+0x58>
    80ae:	31 c0                	xor    %eax,%eax
    80b0:	eb 1f                	jmp    80d1 <get_rsrv_min_size+0x41>
    80b2:	66 0f 1f 44 00 00    	nopw   0x0(%rax,%rax,1)
    80b8:	89 c6                	mov    %eax,%esi
    80ba:	48 89 f2             	mov    %rsi,%rdx
    80bd:	48 c1 e2 05          	shl    $0x5,%rdx
    80c1:	48 01 ca             	add    %rcx,%rdx
    80c4:	0f b7 92 38 01 00 00 	movzwl 0x138(%rdx),%edx
    80cb:	66 83 fa 14          	cmp    $0x14,%dx
    80cf:	74 19                	je     80ea <get_rsrv_min_size+0x5a>
    80d1:	8b 91 30 01 00 00    	mov    0x130(%rcx),%edx
    80d7:	83 c0 01             	add    $0x1,%eax
    80da:	39 c2                	cmp    %eax,%edx
    80dc:	77 da                	ja     80b8 <get_rsrv_min_size+0x28>
    80de:	31 c0                	xor    %eax,%eax
    80e0:	c3                   	retq   
    80e1:	0f 1f 80 00 00 00 00 	nopl   0x0(%rax)
    80e8:	31 f6                	xor    %esi,%esi
    80ea:	48 c1 e6 05          	shl    $0x5,%rsi
    80ee:	48 01 f1             	add    %rsi,%rcx
    80f1:	8b 81 3c 01 00 00    	mov    0x13c(%rcx),%eax
    80f7:	48 c1 e0 0c          	shl    $0xc,%rax
    80fb:	c3                   	retq   
    80fc:	0f 1f 40 00          	nopl   0x0(%rax)

0000000000008100 <get_errno_addr>:
    8100:	48 83 ec 08          	sub    $0x8,%rsp
    8104:	e8 f8 58 00 00       	callq  da01 <get_thread_data>
    8109:	48 83 c4 08          	add    $0x8,%rsp
    810d:	48 83 c0 40          	add    $0x40,%rax
    8111:	c3                   	retq   
    8112:	66 2e 0f 1f 84 00 00 	nopw   %cs:0x0(%rax,%rax,1)
    8119:	00 00 00 
    811c:	0f 1f 40 00          	nopl   0x0(%rax)

0000000000008120 <feature_supported>:
    8120:	31 c0                	xor    %eax,%eax
    8122:	48 85 ff             	test   %rdi,%rdi
    8125:	74 3b                	je     8162 <feature_supported+0x42>
    8127:	31 d2                	xor    %edx,%edx
    8129:	eb 0d                	jmp    8138 <feature_supported+0x18>
    812b:	0f 1f 44 00 00       	nopl   0x0(%rax,%rax,1)
    8130:	48 85 c0             	test   %rax,%rax
    8133:	44 89 c2             	mov    %r8d,%edx
    8136:	78 28                	js     8160 <feature_supported+0x40>
    8138:	44 8d 42 01          	lea    0x1(%rdx),%r8d
    813c:	89 d0                	mov    %edx,%eax
    813e:	48 8b 04 c7          	mov    (%rdi,%rax,8),%rax
    8142:	45 89 c1             	mov    %r8d,%r9d
    8145:	41 c1 e1 06          	shl    $0x6,%r9d
    8149:	44 39 ce             	cmp    %r9d,%esi
    814c:	73 e2                	jae    8130 <feature_supported+0x10>
    814e:	c1 e2 06             	shl    $0x6,%edx
    8151:	89 f1                	mov    %esi,%ecx
    8153:	29 d1                	sub    %edx,%ecx
    8155:	48 d3 e8             	shr    %cl,%rax
    8158:	83 e0 01             	and    $0x1,%eax
    815b:	c3                   	retq   
    815c:	0f 1f 40 00          	nopl   0x0(%rax)
    8160:	31 c0                	xor    %eax,%eax
    8162:	f3 c3                	repz retq 
    8164:	66 2e 0f 1f 84 00 00 	nopw   %cs:0x0(%rax,%rax,1)
    816b:	00 00 00 
    816e:	66 90                	xchg   %ax,%ax

0000000000008170 <is_stack_addr>:
    8170:	55                   	push   %rbp
    8171:	53                   	push   %rbx
    8172:	48 89 f5             	mov    %rsi,%rbp
    8175:	48 89 fb             	mov    %rdi,%rbx
    8178:	48 83 ec 08          	sub    $0x8,%rsp
    817c:	e8 80 58 00 00       	callq  da01 <get_thread_data>
    8181:	31 c9                	xor    %ecx,%ecx
    8183:	48 01 dd             	add    %rbx,%rbp
    8186:	0f 92 c1             	setb   %cl
    8189:	48 3b 68 10          	cmp    0x10(%rax),%rbp
    818d:	0f 96 c2             	setbe  %dl
    8190:	48 39 58 18          	cmp    %rbx,0x18(%rax)
    8194:	0f 96 c0             	setbe  %al
    8197:	21 d0                	and    %edx,%eax
    8199:	48 85 c9             	test   %rcx,%rcx
    819c:	0f 94 c2             	sete   %dl
    819f:	48 83 c4 08          	add    $0x8,%rsp
    81a3:	21 d0                	and    %edx,%eax
    81a5:	5b                   	pop    %rbx
    81a6:	5d                   	pop    %rbp
    81a7:	c3                   	retq   
    81a8:	0f 1f 84 00 00 00 00 	nopl   0x0(%rax,%rax,1)
    81af:	00 

00000000000081b0 <is_valid_sp>:
    81b0:	40 f6 c7 07          	test   $0x7,%dil
    81b4:	74 0a                	je     81c0 <is_valid_sp+0x10>
    81b6:	31 c0                	xor    %eax,%eax
    81b8:	c3                   	retq   
    81b9:	0f 1f 80 00 00 00 00 	nopl   0x0(%rax)
    81c0:	53                   	push   %rbx
    81c1:	48 89 fb             	mov    %rdi,%rbx
    81c4:	e8 38 58 00 00       	callq  da01 <get_thread_data>
    81c9:	48 3b 58 10          	cmp    0x10(%rax),%rbx
    81cd:	0f 96 c2             	setbe  %dl
    81d0:	48 3b 58 18          	cmp    0x18(%rax),%rbx
    81d4:	5b                   	pop    %rbx
    81d5:	0f 93 c0             	setae  %al
    81d8:	21 d0                	and    %edx,%eax
    81da:	c3                   	retq   
    81db:	0f 1f 44 00 00       	nopl   0x0(%rax,%rax,1)

00000000000081e0 <is_utility_thread>:
    81e0:	48 83 ec 08          	sub    $0x8,%rsp
    81e4:	e8 18 58 00 00       	callq  da01 <get_thread_data>
    81e9:	31 d2                	xor    %edx,%edx
    81eb:	48 85 c0             	test   %rax,%rax
    81ee:	74 07                	je     81f7 <is_utility_thread+0x17>
    81f0:	48 8b 50 30          	mov    0x30(%rax),%rdx
    81f4:	83 e2 01             	and    $0x1,%edx
    81f7:	89 d0                	mov    %edx,%eax
    81f9:	48 83 c4 08          	add    $0x8,%rsp
    81fd:	c3                   	retq   
    81fe:	66 90                	xchg   %ax,%ax

0000000000008200 <get_max_tcs_num>:
    8200:	48 8d 05 b9 5e 00 00 	lea    0x5eb9(%rip),%rax        # e0c0 <g_global_data>
    8207:	48 8b 40 40          	mov    0x40(%rax),%rax
    820b:	c3                   	retq   
    820c:	0f 1f 40 00          	nopl   0x0(%rax)

0000000000008210 <internal_handle_exception>:
    8210:	41 56                	push   %r14
    8212:	41 55                	push   %r13
    8214:	41 54                	push   %r12
    8216:	55                   	push   %rbp
    8217:	48 89 fd             	mov    %rdi,%rbp
    821a:	53                   	push   %rbx
    821b:	e8 e1 57 00 00       	callq  da01 <get_thread_data>
    8220:	49 89 c4             	mov    %rax,%r12
    8223:	48 8b 40 60          	mov    0x60(%rax),%rax
    8227:	48 85 c0             	test   %rax,%rax
    822a:	79 0e                	jns    823a <internal_handle_exception+0x2a>
    822c:	49 c7 44 24 60 ff ff 	movq   $0xffffffffffffffff,0x60(%r12)
    8233:	ff ff 
    8235:	e8 f6 5a 00 00       	callq  dd30 <abort>
    823a:	48 83 c0 01          	add    $0x1,%rax
    823e:	48 8d 3d 9b 9e 00 00 	lea    0x9e9b(%rip),%rdi        # 120e0 <_ZL14g_handler_lock>
    8245:	49 89 44 24 60       	mov    %rax,0x60(%r12)
    824a:	e8 61 4b 00 00       	callq  cdb0 <sgx_spin_lock>
    824f:	48 8b 05 92 9e 00 00 	mov    0x9e92(%rip),%rax        # 120e8 <_ZL12g_first_node>
    8256:	48 85 c0             	test   %rax,%rax
    8259:	0f 84 e7 00 00 00    	je     8346 <internal_handle_exception+0x136>
    825f:	31 db                	xor    %ebx,%ebx
    8261:	0f 1f 80 00 00 00 00 	nopl   0x0(%rax)
    8268:	48 8b 40 08          	mov    0x8(%rax),%rax
    826c:	48 83 c3 08          	add    $0x8,%rbx
    8270:	48 85 c0             	test   %rax,%rax
    8273:	75 f3                	jne    8268 <internal_handle_exception+0x58>
    8275:	48 85 db             	test   %rbx,%rbx
    8278:	0f 84 c8 00 00 00    	je     8346 <internal_handle_exception+0x136>
    827e:	48 89 df             	mov    %rbx,%rdi
    8281:	e8 0a 1a 00 00       	callq  9c90 <dlmalloc>
    8286:	48 85 c0             	test   %rax,%rax
    8289:	49 89 c5             	mov    %rax,%r13
    828c:	0f 84 d8 00 00 00    	je     836a <internal_handle_exception+0x15a>
    8292:	48 8b 05 4f 9e 00 00 	mov    0x9e4f(%rip),%rax        # 120e8 <_ZL12g_first_node>
    8299:	48 85 c0             	test   %rax,%rax
    829c:	74 1e                	je     82bc <internal_handle_exception+0xac>
    829e:	4c 89 ea             	mov    %r13,%rdx
    82a1:	0f 1f 80 00 00 00 00 	nopl   0x0(%rax)
    82a8:	48 8b 08             	mov    (%rax),%rcx
    82ab:	48 8b 40 08          	mov    0x8(%rax),%rax
    82af:	48 83 c2 08          	add    $0x8,%rdx
    82b3:	48 89 4a f8          	mov    %rcx,-0x8(%rdx)
    82b7:	48 85 c0             	test   %rax,%rax
    82ba:	75 ec                	jne    82a8 <internal_handle_exception+0x98>
    82bc:	48 8d 3d 1d 9e 00 00 	lea    0x9e1d(%rip),%rdi        # 120e0 <_ZL14g_handler_lock>
    82c3:	e8 48 4b 00 00       	callq  ce10 <sgx_spin_unlock>
    82c8:	48 85 db             	test   %rbx,%rbx
    82cb:	74 55                	je     8322 <internal_handle_exception+0x112>
    82cd:	4d 89 ee             	mov    %r13,%r14
    82d0:	eb 10                	jmp    82e2 <internal_handle_exception+0xd2>
    82d2:	66 0f 1f 44 00 00    	nopw   0x0(%rax,%rax,1)
    82d8:	49 83 c6 08          	add    $0x8,%r14
    82dc:	48 83 eb 08          	sub    $0x8,%rbx
    82e0:	74 40                	je     8322 <internal_handle_exception+0x112>
    82e2:	49 8b 06             	mov    (%r14),%rax
    82e5:	48 33 05 ec 9d 00 00 	xor    0x9dec(%rip),%rax        # 120d8 <_ZL12g_veh_cookie>
    82ec:	48 89 ef             	mov    %rbp,%rdi
    82ef:	ff d0                	callq  *%rax
    82f1:	83 f8 ff             	cmp    $0xffffffff,%eax
    82f4:	75 e2                	jne    82d8 <internal_handle_exception+0xc8>
    82f6:	4c 89 ef             	mov    %r13,%rdi
    82f9:	e8 b2 33 00 00       	callq  b6b0 <dlfree>
    82fe:	48 8b 7d 20          	mov    0x20(%rbp),%rdi
    8302:	e8 a9 fe ff ff       	callq  81b0 <is_valid_sp>
    8307:	84 c0                	test   %al,%al
    8309:	0f 84 1d ff ff ff    	je     822c <internal_handle_exception+0x1c>
    830f:	49 83 6c 24 60 01    	subq   $0x1,0x60(%r12)
    8315:	48 89 ef             	mov    %rbp,%rdi
    8318:	e8 22 5a 00 00       	callq  dd3f <continue_execution>
    831d:	e9 0a ff ff ff       	jmpq   822c <internal_handle_exception+0x1c>
    8322:	4c 89 ef             	mov    %r13,%rdi
    8325:	e8 86 33 00 00       	callq  b6b0 <dlfree>
    832a:	48 8b 7d 20          	mov    0x20(%rbp),%rdi
    832e:	e8 7d fe ff ff       	callq  81b0 <is_valid_sp>
    8333:	84 c0                	test   %al,%al
    8335:	0f 84 f1 fe ff ff    	je     822c <internal_handle_exception+0x1c>
    833b:	49 c7 44 24 60 ff ff 	movq   $0xffffffffffffffff,0x60(%r12)
    8342:	ff ff 
    8344:	eb cf                	jmp    8315 <internal_handle_exception+0x105>
    8346:	48 8d 3d 93 9d 00 00 	lea    0x9d93(%rip),%rdi        # 120e0 <_ZL14g_handler_lock>
    834d:	31 db                	xor    %ebx,%ebx
    834f:	e8 bc 4a 00 00       	callq  ce10 <sgx_spin_unlock>
    8354:	49 c7 44 24 60 ff ff 	movq   $0xffffffffffffffff,0x60(%r12)
    835b:	ff ff 
    835d:	48 89 ef             	mov    %rbp,%rdi
    8360:	e8 da 59 00 00       	callq  dd3f <continue_execution>
    8365:	e9 14 ff ff ff       	jmpq   827e <internal_handle_exception+0x6e>
    836a:	48 8d 3d 6f 9d 00 00 	lea    0x9d6f(%rip),%rdi        # 120e0 <_ZL14g_handler_lock>
    8371:	e8 9a 4a 00 00       	callq  ce10 <sgx_spin_unlock>
    8376:	e9 b1 fe ff ff       	jmpq   822c <internal_handle_exception+0x1c>
    837b:	0f 1f 44 00 00       	nopl   0x0(%rax,%rax,1)

0000000000008380 <sgx_register_exception_handler>:
    8380:	41 54                	push   %r12
    8382:	55                   	push   %rbp
    8383:	41 89 fc             	mov    %edi,%r12d
    8386:	53                   	push   %rbx
    8387:	48 89 f5             	mov    %rsi,%rbp
    838a:	48 83 ec 10          	sub    $0x10,%rsp
    838e:	64 48 8b 04 25 28 00 	mov    %fs:0x28,%rax
    8395:	00 00 
    8397:	48 89 44 24 08       	mov    %rax,0x8(%rsp)
    839c:	31 c0                	xor    %eax,%eax
    839e:	48 83 3d 32 9d 00 00 	cmpq   $0x0,0x9d32(%rip)        # 120d8 <_ZL12g_veh_cookie>
    83a5:	00 
    83a6:	0f 84 ac 00 00 00    	je     8458 <sgx_register_exception_handler+0xd8>
    83ac:	31 f6                	xor    %esi,%esi
    83ae:	48 89 ef             	mov    %rbp,%rdi
    83b1:	e8 da de ff ff       	callq  6290 <sgx_is_within_enclave>
    83b6:	85 c0                	test   %eax,%eax
    83b8:	0f 84 c2 00 00 00    	je     8480 <sgx_register_exception_handler+0x100>
    83be:	bf 10 00 00 00       	mov    $0x10,%edi
    83c3:	e8 c8 18 00 00       	callq  9c90 <dlmalloc>
    83c8:	48 85 c0             	test   %rax,%rax
    83cb:	48 89 c3             	mov    %rax,%rbx
    83ce:	0f 84 ac 00 00 00    	je     8480 <sgx_register_exception_handler+0x100>
    83d4:	48 33 2d fd 9c 00 00 	xor    0x9cfd(%rip),%rbp        # 120d8 <_ZL12g_veh_cookie>
    83db:	48 8d 3d fe 9c 00 00 	lea    0x9cfe(%rip),%rdi        # 120e0 <_ZL14g_handler_lock>
    83e2:	48 89 28             	mov    %rbp,(%rax)
    83e5:	e8 c6 49 00 00       	callq  cdb0 <sgx_spin_lock>
    83ea:	48 8b 05 f7 9c 00 00 	mov    0x9cf7(%rip),%rax        # 120e8 <_ZL12g_first_node>
    83f1:	48 85 c0             	test   %rax,%rax
    83f4:	74 05                	je     83fb <sgx_register_exception_handler+0x7b>
    83f6:	45 85 e4             	test   %r12d,%r12d
    83f9:	74 40                	je     843b <sgx_register_exception_handler+0xbb>
    83fb:	48 89 43 08          	mov    %rax,0x8(%rbx)
    83ff:	48 89 1d e2 9c 00 00 	mov    %rbx,0x9ce2(%rip)        # 120e8 <_ZL12g_first_node>
    8406:	48 8d 3d d3 9c 00 00 	lea    0x9cd3(%rip),%rdi        # 120e0 <_ZL14g_handler_lock>
    840d:	e8 fe 49 00 00       	callq  ce10 <sgx_spin_unlock>
    8412:	48 8b 4c 24 08       	mov    0x8(%rsp),%rcx
    8417:	64 48 33 0c 25 28 00 	xor    %fs:0x28,%rcx
    841e:	00 00 
    8420:	48 89 d8             	mov    %rbx,%rax
    8423:	0f 85 91 00 00 00    	jne    84ba <sgx_register_exception_handler+0x13a>
    8429:	48 83 c4 10          	add    $0x10,%rsp
    842d:	5b                   	pop    %rbx
    842e:	5d                   	pop    %rbp
    842f:	41 5c                	pop    %r12
    8431:	c3                   	retq   
    8432:	66 0f 1f 44 00 00    	nopw   0x0(%rax,%rax,1)
    8438:	48 89 d0             	mov    %rdx,%rax
    843b:	48 8b 50 08          	mov    0x8(%rax),%rdx
    843f:	48 85 d2             	test   %rdx,%rdx
    8442:	75 f4                	jne    8438 <sgx_register_exception_handler+0xb8>
    8444:	48 c7 43 08 00 00 00 	movq   $0x0,0x8(%rbx)
    844b:	00 
    844c:	48 89 58 08          	mov    %rbx,0x8(%rax)
    8450:	eb b4                	jmp    8406 <sgx_register_exception_handler+0x86>
    8452:	66 0f 1f 44 00 00    	nopw   0x0(%rax,%rax,1)
    8458:	48 c7 04 24 00 00 00 	movq   $0x0,(%rsp)
    845f:	00 
    8460:	48 89 e3             	mov    %rsp,%rbx
    8463:	eb 0a                	jmp    846f <sgx_register_exception_handler+0xef>
    8465:	0f 1f 00             	nopl   (%rax)
    8468:	48 83 3c 24 00       	cmpq   $0x0,(%rsp)
    846d:	75 19                	jne    8488 <sgx_register_exception_handler+0x108>
    846f:	be 08 00 00 00       	mov    $0x8,%esi
    8474:	48 89 df             	mov    %rbx,%rdi
    8477:	e8 f4 df ff ff       	callq  6470 <sgx_read_rand>
    847c:	85 c0                	test   %eax,%eax
    847e:	74 e8                	je     8468 <sgx_register_exception_handler+0xe8>
    8480:	31 db                	xor    %ebx,%ebx
    8482:	eb 8e                	jmp    8412 <sgx_register_exception_handler+0x92>
    8484:	0f 1f 40 00          	nopl   0x0(%rax)
    8488:	48 8d 3d 51 9c 00 00 	lea    0x9c51(%rip),%rdi        # 120e0 <_ZL14g_handler_lock>
    848f:	e8 1c 49 00 00       	callq  cdb0 <sgx_spin_lock>
    8494:	48 83 3d 3c 9c 00 00 	cmpq   $0x0,0x9c3c(%rip)        # 120d8 <_ZL12g_veh_cookie>
    849b:	00 
    849c:	75 0b                	jne    84a9 <sgx_register_exception_handler+0x129>
    849e:	48 8b 04 24          	mov    (%rsp),%rax
    84a2:	48 89 05 2f 9c 00 00 	mov    %rax,0x9c2f(%rip)        # 120d8 <_ZL12g_veh_cookie>
    84a9:	48 8d 3d 30 9c 00 00 	lea    0x9c30(%rip),%rdi        # 120e0 <_ZL14g_handler_lock>
    84b0:	e8 5b 49 00 00       	callq  ce10 <sgx_spin_unlock>
    84b5:	e9 f2 fe ff ff       	jmpq   83ac <sgx_register_exception_handler+0x2c>
    84ba:	e8 51 0f 00 00       	callq  9410 <__stack_chk_fail>
    84bf:	90                   	nop

00000000000084c0 <sgx_unregister_exception_handler>:
    84c0:	31 c0                	xor    %eax,%eax
    84c2:	48 85 ff             	test   %rdi,%rdi
    84c5:	74 51                	je     8518 <sgx_unregister_exception_handler+0x58>
    84c7:	53                   	push   %rbx
    84c8:	48 89 fb             	mov    %rdi,%rbx
    84cb:	48 8d 3d 0e 9c 00 00 	lea    0x9c0e(%rip),%rdi        # 120e0 <_ZL14g_handler_lock>
    84d2:	e8 d9 48 00 00       	callq  cdb0 <sgx_spin_lock>
    84d7:	48 8b 15 0a 9c 00 00 	mov    0x9c0a(%rip),%rdx        # 120e8 <_ZL12g_first_node>
    84de:	48 85 d2             	test   %rdx,%rdx
    84e1:	74 1e                	je     8501 <sgx_unregister_exception_handler+0x41>
    84e3:	48 39 da             	cmp    %rbx,%rdx
    84e6:	75 10                	jne    84f8 <sgx_unregister_exception_handler+0x38>
    84e8:	eb 5e                	jmp    8548 <sgx_unregister_exception_handler+0x88>
    84ea:	66 0f 1f 44 00 00    	nopw   0x0(%rax,%rax,1)
    84f0:	48 39 d8             	cmp    %rbx,%rax
    84f3:	74 2b                	je     8520 <sgx_unregister_exception_handler+0x60>
    84f5:	48 89 c2             	mov    %rax,%rdx
    84f8:	48 8b 42 08          	mov    0x8(%rdx),%rax
    84fc:	48 85 c0             	test   %rax,%rax
    84ff:	75 ef                	jne    84f0 <sgx_unregister_exception_handler+0x30>
    8501:	48 8d 3d d8 9b 00 00 	lea    0x9bd8(%rip),%rdi        # 120e0 <_ZL14g_handler_lock>
    8508:	e8 03 49 00 00       	callq  ce10 <sgx_spin_unlock>
    850d:	31 c0                	xor    %eax,%eax
    850f:	5b                   	pop    %rbx
    8510:	c3                   	retq   
    8511:	0f 1f 80 00 00 00 00 	nopl   0x0(%rax)
    8518:	f3 c3                	repz retq 
    851a:	66 0f 1f 44 00 00    	nopw   0x0(%rax,%rax,1)
    8520:	48 8b 43 08          	mov    0x8(%rbx),%rax
    8524:	48 8d 3d b5 9b 00 00 	lea    0x9bb5(%rip),%rdi        # 120e0 <_ZL14g_handler_lock>
    852b:	48 89 42 08          	mov    %rax,0x8(%rdx)
    852f:	e8 dc 48 00 00       	callq  ce10 <sgx_spin_unlock>
    8534:	48 89 df             	mov    %rbx,%rdi
    8537:	e8 74 31 00 00       	callq  b6b0 <dlfree>
    853c:	b8 01 00 00 00       	mov    $0x1,%eax
    8541:	5b                   	pop    %rbx
    8542:	c3                   	retq   
    8543:	0f 1f 44 00 00       	nopl   0x0(%rax,%rax,1)
    8548:	48 8b 43 08          	mov    0x8(%rbx),%rax
    854c:	48 8d 3d 8d 9b 00 00 	lea    0x9b8d(%rip),%rdi        # 120e0 <_ZL14g_handler_lock>
    8553:	48 89 05 8e 9b 00 00 	mov    %rax,0x9b8e(%rip)        # 120e8 <_ZL12g_first_node>
    855a:	e8 b1 48 00 00       	callq  ce10 <sgx_spin_unlock>
    855f:	eb d3                	jmp    8534 <sgx_unregister_exception_handler+0x74>
    8561:	66 2e 0f 1f 84 00 00 	nopw   %cs:0x0(%rax,%rax,1)
    8568:	00 00 00 
    856b:	0f 1f 44 00 00       	nopl   0x0(%rax,%rax,1)

0000000000008570 <trts_handle_exception>:
    8570:	41 55                	push   %r13
    8572:	41 54                	push   %r12
    8574:	55                   	push   %rbp
    8575:	53                   	push   %rbx
    8576:	48 89 fb             	mov    %rdi,%rbx
    8579:	48 83 ec 08          	sub    $0x8,%rsp
    857d:	e8 7f 54 00 00       	callq  da01 <get_thread_data>
    8582:	48 85 c0             	test   %rax,%rax
    8585:	74 51                	je     85d8 <trts_handle_exception+0x68>
    8587:	48 85 db             	test   %rbx,%rbx
    858a:	74 4c                	je     85d8 <trts_handle_exception+0x68>
    858c:	48 89 df             	mov    %rbx,%rdi
    858f:	48 89 c5             	mov    %rax,%rbp
    8592:	e8 39 e0 ff ff       	callq  65d0 <check_static_stack_canary>
    8597:	85 c0                	test   %eax,%eax
    8599:	75 3d                	jne    85d8 <trts_handle_exception+0x68>
    859b:	e8 2e 54 00 00       	callq  d9ce <get_enclave_state>
    85a0:	83 f8 02             	cmp    $0x2,%eax
    85a3:	75 33                	jne    85d8 <trts_handle_exception+0x68>
    85a5:	48 83 7d 60 ff       	cmpq   $0xffffffffffffffff,0x60(%rbp)
    85aa:	74 2c                	je     85d8 <trts_handle_exception+0x68>
    85ac:	48 8b 45 10          	mov    0x10(%rbp),%rax
    85b0:	48 05 b0 02 01 00    	add    $0x102b0,%rax
    85b6:	48 39 c3             	cmp    %rax,%rbx
    85b9:	75 1d                	jne    85d8 <trts_handle_exception+0x68>
    85bb:	4c 8b 65 20          	mov    0x20(%rbp),%r12
    85bf:	4c 89 e0             	mov    %r12,%rax
    85c2:	48 25 00 f0 ff ff    	and    $0xfffffffffffff000,%rax
    85c8:	48 2d 00 10 00 00    	sub    $0x1000,%rax
    85ce:	48 39 c3             	cmp    %rax,%rbx
    85d1:	74 25                	je     85f8 <trts_handle_exception+0x88>
    85d3:	0f 1f 44 00 00       	nopl   0x0(%rax,%rax,1)
    85d8:	48 8d 05 c1 9a 00 00 	lea    0x9ac1(%rip),%rax        # 120a0 <g_enclave_state>
    85df:	c7 00 03 00 00 00    	movl   $0x3,(%rax)
    85e5:	b8 06 10 00 00       	mov    $0x1006,%eax
    85ea:	48 83 c4 08          	add    $0x8,%rsp
    85ee:	5b                   	pop    %rbx
    85ef:	5d                   	pop    %rbp
    85f0:	41 5c                	pop    %r12
    85f2:	41 5d                	pop    %r13
    85f4:	c3                   	retq   
    85f5:	0f 1f 00             	nopl   (%rax)
    85f8:	49 8b 5c 24 20       	mov    0x20(%r12),%rbx
    85fd:	31 f6                	xor    %esi,%esi
    85ff:	48 89 df             	mov    %rbx,%rdi
    8602:	e8 69 fb ff ff       	callq  8170 <is_stack_addr>
    8607:	84 c0                	test   %al,%al
    8609:	0f 84 81 00 00 00    	je     8690 <trts_handle_exception+0x120>
    860f:	48 81 eb 18 01 00 00 	sub    $0x118,%rbx
    8616:	be 18 01 00 00       	mov    $0x118,%esi
    861b:	48 83 e3 f0          	and    $0xfffffffffffffff0,%rbx
    861f:	48 89 df             	mov    %rbx,%rdi
    8622:	e8 49 fb ff ff       	callq  8170 <is_stack_addr>
    8627:	84 c0                	test   %al,%al
    8629:	74 65                	je     8690 <trts_handle_exception+0x120>
    862b:	4c 8d 6b f8          	lea    -0x8(%rbx),%r13
    862f:	be 08 00 00 00       	mov    $0x8,%esi
    8634:	4c 89 ef             	mov    %r13,%rdi
    8637:	e8 34 fb ff ff       	callq  8170 <is_stack_addr>
    863c:	84 c0                	test   %al,%al
    863e:	74 50                	je     8690 <trts_handle_exception+0x120>
    8640:	48 8b 85 98 00 00 00 	mov    0x98(%rbp),%rax
    8647:	4c 39 e8             	cmp    %r13,%rax
    864a:	76 5b                	jbe    86a7 <trts_handle_exception+0x137>
    864c:	48 8d 98 ff 0f 00 00 	lea    0xfff(%rax),%rbx
    8653:	4c 29 eb             	sub    %r13,%rbx
    8656:	48 81 e3 00 f0 ff ff 	and    $0xfffffffffffff000,%rbx
    865d:	48 39 d8             	cmp    %rbx,%rax
    8660:	76 2e                	jbe    8690 <trts_handle_exception+0x120>
    8662:	48 29 d8             	sub    %rbx,%rax
    8665:	48 3b 45 18          	cmp    0x18(%rbp),%rax
    8669:	48 89 c7             	mov    %rax,%rdi
    866c:	72 22                	jb     8690 <trts_handle_exception+0x120>
    866e:	48 89 de             	mov    %rbx,%rsi
    8671:	48 c1 ee 0c          	shr    $0xc,%rsi
    8675:	48 85 f6             	test   %rsi,%rsi
    8678:	74 16                	je     8690 <trts_handle_exception+0x120>
    867a:	e8 61 e7 ff ff       	callq  6de0 <apply_pages_within_exception>
    867f:	85 c0                	test   %eax,%eax
    8681:	75 0d                	jne    8690 <trts_handle_exception+0x120>
    8683:	48 29 9d 98 00 00 00 	sub    %rbx,0x98(%rbp)
    868a:	e9 5b ff ff ff       	jmpq   85ea <trts_handle_exception+0x7a>
    868f:	90                   	nop
    8690:	48 8d 05 09 9a 00 00 	lea    0x9a09(%rip),%rax        # 120a0 <g_enclave_state>
    8697:	c7 00 03 00 00 00    	movl   $0x3,(%rax)
    869d:	b8 09 10 00 00       	mov    $0x1009,%eax
    86a2:	e9 43 ff ff ff       	jmpq   85ea <trts_handle_exception+0x7a>
    86a7:	49 8b 84 24 88 00 00 	mov    0x88(%r12),%rax
    86ae:	00 
    86af:	48 3b 05 22 99 00 00 	cmp    0x9922(%rip),%rax        # 11fd8 <_GLOBAL_OFFSET_TABLE_+0x28>
    86b6:	0f 84 05 01 00 00    	je     87c1 <trts_handle_exception+0x251>
    86bc:	41 80 bc 24 a3 00 00 	cmpb   $0x0,0xa3(%r12)
    86c3:	00 00 
    86c5:	0f 89 0d ff ff ff    	jns    85d8 <trts_handle_exception+0x68>
    86cb:	41 0f b6 94 24 a0 00 	movzbl 0xa0(%r12),%edx
    86d2:	00 00 
    86d4:	48 8d 0d 35 fb ff ff 	lea    -0x4cb(%rip),%rcx        # 8210 <internal_handle_exception>
    86db:	89 93 90 00 00 00    	mov    %edx,0x90(%rbx)
    86e1:	41 0f b6 94 24 a1 00 	movzbl 0xa1(%r12),%edx
    86e8:	00 00 
    86ea:	83 e2 07             	and    $0x7,%edx
    86ed:	89 93 94 00 00 00    	mov    %edx,0x94(%rbx)
    86f3:	49 8b 14 24          	mov    (%r12),%rdx
    86f7:	48 89 13             	mov    %rdx,(%rbx)
    86fa:	49 8b 54 24 08       	mov    0x8(%r12),%rdx
    86ff:	48 89 53 08          	mov    %rdx,0x8(%rbx)
    8703:	49 8b 54 24 10       	mov    0x10(%r12),%rdx
    8708:	48 89 53 10          	mov    %rdx,0x10(%rbx)
    870c:	49 8b 54 24 18       	mov    0x18(%r12),%rdx
    8711:	48 89 53 18          	mov    %rdx,0x18(%rbx)
    8715:	49 8b 54 24 20       	mov    0x20(%r12),%rdx
    871a:	48 89 53 20          	mov    %rdx,0x20(%rbx)
    871e:	49 8b 54 24 28       	mov    0x28(%r12),%rdx
    8723:	48 89 53 28          	mov    %rdx,0x28(%rbx)
    8727:	49 8b 54 24 30       	mov    0x30(%r12),%rdx
    872c:	48 89 53 30          	mov    %rdx,0x30(%rbx)
    8730:	49 8b 54 24 38       	mov    0x38(%r12),%rdx
    8735:	48 89 53 38          	mov    %rdx,0x38(%rbx)
    8739:	49 8b 94 24 80 00 00 	mov    0x80(%r12),%rdx
    8740:	00 
    8741:	48 89 83 88 00 00 00 	mov    %rax,0x88(%rbx)
    8748:	48 89 93 80 00 00 00 	mov    %rdx,0x80(%rbx)
    874f:	49 8b 54 24 40       	mov    0x40(%r12),%rdx
    8754:	48 89 53 40          	mov    %rdx,0x40(%rbx)
    8758:	49 8b 54 24 48       	mov    0x48(%r12),%rdx
    875d:	48 89 53 48          	mov    %rdx,0x48(%rbx)
    8761:	49 8b 54 24 50       	mov    0x50(%r12),%rdx
    8766:	48 89 53 50          	mov    %rdx,0x50(%rbx)
    876a:	49 8b 54 24 58       	mov    0x58(%r12),%rdx
    876f:	48 89 53 58          	mov    %rdx,0x58(%rbx)
    8773:	49 8b 54 24 60       	mov    0x60(%r12),%rdx
    8778:	48 89 53 60          	mov    %rdx,0x60(%rbx)
    877c:	49 8b 54 24 68       	mov    0x68(%r12),%rdx
    8781:	48 89 53 68          	mov    %rdx,0x68(%rbx)
    8785:	49 8b 54 24 70       	mov    0x70(%r12),%rdx
    878a:	48 89 53 70          	mov    %rdx,0x70(%rbx)
    878e:	49 8b 54 24 78       	mov    0x78(%r12),%rdx
    8793:	48 89 53 78          	mov    %rdx,0x78(%rbx)
    8797:	49 89 8c 24 88 00 00 	mov    %rcx,0x88(%r12)
    879e:	00 
    879f:	4d 89 6c 24 20       	mov    %r13,0x20(%r12)
    87a4:	49 89 1c 24          	mov    %rbx,(%r12)
    87a8:	49 89 5c 24 38       	mov    %rbx,0x38(%r12)
    87ad:	48 89 43 f8          	mov    %rax,-0x8(%rbx)
    87b1:	31 c0                	xor    %eax,%eax
    87b3:	41 80 a4 24 a3 00 00 	andb   $0x7f,0xa3(%r12)
    87ba:	00 7f 
    87bc:	e9 29 fe ff ff       	jmpq   85ea <trts_handle_exception+0x7a>
    87c1:	49 83 3c 24 00       	cmpq   $0x0,(%r12)
    87c6:	0f 85 f0 fe ff ff    	jne    86bc <trts_handle_exception+0x14c>
    87cc:	48 83 c0 03          	add    $0x3,%rax
    87d0:	49 83 8c 24 80 00 00 	orq    $0x1,0x80(%r12)
    87d7:	00 01 
    87d9:	49 89 84 24 88 00 00 	mov    %rax,0x88(%r12)
    87e0:	00 
    87e1:	31 c0                	xor    %eax,%eax
    87e3:	e9 02 fe ff ff       	jmpq   85ea <trts_handle_exception+0x7a>
    87e8:	0f 1f 84 00 00 00 00 	nopl   0x0(%rax,%rax,1)
    87ef:	00 

00000000000087f0 <get_xfeature_state>:
    87f0:	48 83 ec 08          	sub    $0x8,%rsp
    87f4:	e8 97 4b 00 00       	callq  d390 <sgx_self_report>
    87f9:	48 8b 40 38          	mov    0x38(%rax),%rax
    87fd:	31 d2                	xor    %edx,%edx
    87ff:	48 83 f8 03          	cmp    $0x3,%rax
    8803:	0f 95 c2             	setne  %dl
    8806:	89 15 98 98 00 00    	mov    %edx,0x9898(%rip)        # 120a4 <g_xsave_enabled>
    880c:	48 83 c4 08          	add    $0x8,%rsp
    8810:	c3                   	retq   
    8811:	66 2e 0f 1f 84 00 00 	nopw   %cs:0x0(%rax,%rax,1)
    8818:	00 00 00 
    881b:	0f 1f 44 00 00       	nopl   0x0(%rax,%rax,1)

0000000000008820 <do_relocs>:
    8820:	48 01 fe             	add    %rdi,%rsi
    8823:	48 01 fa             	add    %rdi,%rdx
    8826:	48 85 c9             	test   %rcx,%rcx
    8829:	0f 84 42 02 00 00    	je     8a71 <do_relocs+0x251>
    882f:	55                   	push   %rbp
    8830:	4c 8d 15 d1 57 00 00 	lea    0x57d1(%rip),%r10        # e008 <g_dyn_entry_table+0x8>
    8837:	53                   	push   %rbx
    8838:	45 31 c9             	xor    %r9d,%r9d
    883b:	0f 1f 44 00 00       	nopl   0x0(%rax,%rax,1)
    8840:	4c 8b 46 08          	mov    0x8(%rsi),%r8
    8844:	4c 8b 1e             	mov    (%rsi),%r11
    8847:	44 89 c0             	mov    %r8d,%eax
    884a:	49 01 fb             	add    %rdi,%r11
    884d:	48 83 f8 12          	cmp    $0x12,%rax
    8851:	0f 87 cb 00 00 00    	ja     8922 <do_relocs+0x102>
    8857:	49 63 04 82          	movslq (%r10,%rax,4),%rax
    885b:	4c 01 d0             	add    %r10,%rax
    885e:	ff e0                	jmpq   *%rax
    8860:	48 8b 58 28          	mov    0x28(%rax),%rbx
    8864:	48 8b 40 30          	mov    0x30(%rax),%rax
    8868:	48 83 f8 01          	cmp    $0x1,%rax
    886c:	76 0b                	jbe    8879 <do_relocs+0x59>
    886e:	48 8d 5c 03 ff       	lea    -0x1(%rbx,%rax,1),%rbx
    8873:	48 f7 d8             	neg    %rax
    8876:	48 21 c3             	and    %rax,%rbx
    8879:	48 85 db             	test   %rbx,%rbx
    887c:	0f 84 a0 00 00 00    	je     8922 <do_relocs+0x102>
    8882:	48 8b 46 10          	mov    0x10(%rsi),%rax
    8886:	49 03 40 08          	add    0x8(%r8),%rax
    888a:	48 29 d8             	sub    %rbx,%rax
    888d:	49 89 03             	mov    %rax,(%r11)
    8890:	49 83 c1 01          	add    $0x1,%r9
    8894:	48 83 c6 18          	add    $0x18,%rsi
    8898:	4c 39 c9             	cmp    %r9,%rcx
    889b:	75 a3                	jne    8840 <do_relocs+0x20>
    889d:	31 c0                	xor    %eax,%eax
    889f:	5b                   	pop    %rbx
    88a0:	5d                   	pop    %rbp
    88a1:	c3                   	retq   
    88a2:	66 0f 1f 44 00 00    	nopw   0x0(%rax,%rax,1)
    88a8:	49 c1 e8 20          	shr    $0x20,%r8
    88ac:	4b 8d 04 40          	lea    (%r8,%r8,2),%rax
    88b0:	4c 8d 04 c2          	lea    (%rdx,%rax,8),%r8
    88b4:	41 0f b6 40 04       	movzbl 0x4(%r8),%eax
    88b9:	c0 e8 04             	shr    $0x4,%al
    88bc:	3c 02                	cmp    $0x2,%al
    88be:	0f 84 44 01 00 00    	je     8a08 <do_relocs+0x1e8>
    88c4:	4d 85 c0             	test   %r8,%r8
    88c7:	74 c7                	je     8890 <do_relocs+0x70>
    88c9:	81 3f 7f 45 4c 46    	cmpl   $0x464c457f,(%rdi)
    88cf:	75 51                	jne    8922 <do_relocs+0x102>
    88d1:	66 83 7f 10 03       	cmpw   $0x3,0x10(%rdi)
    88d6:	75 4a                	jne    8922 <do_relocs+0x102>
    88d8:	48 8b 5f 20          	mov    0x20(%rdi),%rbx
    88dc:	48 01 fb             	add    %rdi,%rbx
    88df:	48 85 db             	test   %rbx,%rbx
    88e2:	48 89 d8             	mov    %rbx,%rax
    88e5:	74 3b                	je     8922 <do_relocs+0x102>
    88e7:	0f b7 6f 38          	movzwl 0x38(%rdi),%ebp
    88eb:	85 ed                	test   %ebp,%ebp
    88ed:	74 33                	je     8922 <do_relocs+0x102>
    88ef:	83 3b 07             	cmpl   $0x7,(%rbx)
    88f2:	0f 84 68 ff ff ff    	je     8860 <do_relocs+0x40>
    88f8:	83 ed 01             	sub    $0x1,%ebp
    88fb:	48 8d 1c ed 00 00 00 	lea    0x0(,%rbp,8),%rbx
    8902:	00 
    8903:	48 29 eb             	sub    %rbp,%rbx
    8906:	48 8d 5c d8 38       	lea    0x38(%rax,%rbx,8),%rbx
    890b:	eb 0c                	jmp    8919 <do_relocs+0xf9>
    890d:	0f 1f 00             	nopl   (%rax)
    8910:	83 38 07             	cmpl   $0x7,(%rax)
    8913:	0f 84 47 ff ff ff    	je     8860 <do_relocs+0x40>
    8919:	48 83 c0 38          	add    $0x38,%rax
    891d:	48 39 c3             	cmp    %rax,%rbx
    8920:	75 ee                	jne    8910 <do_relocs+0xf0>
    8922:	b8 ff ff ff ff       	mov    $0xffffffff,%eax
    8927:	5b                   	pop    %rbx
    8928:	5d                   	pop    %rbp
    8929:	c3                   	retq   
    892a:	66 0f 1f 44 00 00    	nopw   0x0(%rax,%rax,1)
    8930:	49 c1 e8 20          	shr    $0x20,%r8
    8934:	4b 8d 04 40          	lea    (%r8,%r8,2),%rax
    8938:	4c 8d 04 c2          	lea    (%rdx,%rax,8),%r8
    893c:	41 0f b6 40 04       	movzbl 0x4(%r8),%eax
    8941:	c0 e8 04             	shr    $0x4,%al
    8944:	3c 02                	cmp    $0x2,%al
    8946:	0f 84 04 01 00 00    	je     8a50 <do_relocs+0x230>
    894c:	4d 85 c0             	test   %r8,%r8
    894f:	0f 84 3b ff ff ff    	je     8890 <do_relocs+0x70>
    8955:	48 8b 46 10          	mov    0x10(%rsi),%rax
    8959:	49 03 40 08          	add    0x8(%r8),%rax
    895d:	49 83 c1 01          	add    $0x1,%r9
    8961:	48 83 c6 18          	add    $0x18,%rsi
    8965:	4c 39 c9             	cmp    %r9,%rcx
    8968:	49 89 03             	mov    %rax,(%r11)
    896b:	0f 85 cf fe ff ff    	jne    8840 <do_relocs+0x20>
    8971:	e9 27 ff ff ff       	jmpq   889d <do_relocs+0x7d>
    8976:	66 2e 0f 1f 84 00 00 	nopw   %cs:0x0(%rax,%rax,1)
    897d:	00 00 00 
    8980:	49 83 c1 01          	add    $0x1,%r9
    8984:	48 83 c6 18          	add    $0x18,%rsi
    8988:	49 c7 03 01 00 00 00 	movq   $0x1,(%r11)
    898f:	4c 39 c9             	cmp    %r9,%rcx
    8992:	0f 85 a8 fe ff ff    	jne    8840 <do_relocs+0x20>
    8998:	e9 00 ff ff ff       	jmpq   889d <do_relocs+0x7d>
    899d:	0f 1f 00             	nopl   (%rax)
    89a0:	48 8b 46 10          	mov    0x10(%rsi),%rax
    89a4:	49 83 c1 01          	add    $0x1,%r9
    89a8:	48 83 c6 18          	add    $0x18,%rsi
    89ac:	48 01 f8             	add    %rdi,%rax
    89af:	4c 39 c9             	cmp    %r9,%rcx
    89b2:	49 89 03             	mov    %rax,(%r11)
    89b5:	0f 85 85 fe ff ff    	jne    8840 <do_relocs+0x20>
    89bb:	e9 dd fe ff ff       	jmpq   889d <do_relocs+0x7d>
    89c0:	49 c1 e8 20          	shr    $0x20,%r8
    89c4:	4b 8d 04 40          	lea    (%r8,%r8,2),%rax
    89c8:	4c 8d 04 c2          	lea    (%rdx,%rax,8),%r8
    89cc:	41 0f b6 40 04       	movzbl 0x4(%r8),%eax
    89d1:	c0 e8 04             	shr    $0x4,%al
    89d4:	3c 02                	cmp    $0x2,%al
    89d6:	74 58                	je     8a30 <do_relocs+0x210>
    89d8:	4d 85 c0             	test   %r8,%r8
    89db:	0f 84 af fe ff ff    	je     8890 <do_relocs+0x70>
    89e1:	48 8b 46 10          	mov    0x10(%rsi),%rax
    89e5:	49 83 c1 01          	add    $0x1,%r9
    89e9:	48 83 c6 18          	add    $0x18,%rsi
    89ed:	48 01 f8             	add    %rdi,%rax
    89f0:	49 03 40 08          	add    0x8(%r8),%rax
    89f4:	4c 39 c9             	cmp    %r9,%rcx
    89f7:	49 89 03             	mov    %rax,(%r11)
    89fa:	0f 85 40 fe ff ff    	jne    8840 <do_relocs+0x20>
    8a00:	e9 98 fe ff ff       	jmpq   889d <do_relocs+0x7d>
    8a05:	0f 1f 00             	nopl   (%rax)
    8a08:	49 83 78 08 00       	cmpq   $0x0,0x8(%r8)
    8a0d:	0f 85 b1 fe ff ff    	jne    88c4 <do_relocs+0xa4>
    8a13:	49 83 c1 01          	add    $0x1,%r9
    8a17:	48 83 c6 18          	add    $0x18,%rsi
    8a1b:	4c 39 c9             	cmp    %r9,%rcx
    8a1e:	0f 85 1c fe ff ff    	jne    8840 <do_relocs+0x20>
    8a24:	e9 74 fe ff ff       	jmpq   889d <do_relocs+0x7d>
    8a29:	0f 1f 80 00 00 00 00 	nopl   0x0(%rax)
    8a30:	49 83 78 08 00       	cmpq   $0x0,0x8(%r8)
    8a35:	75 a1                	jne    89d8 <do_relocs+0x1b8>
    8a37:	49 83 c1 01          	add    $0x1,%r9
    8a3b:	48 83 c6 18          	add    $0x18,%rsi
    8a3f:	4c 39 c9             	cmp    %r9,%rcx
    8a42:	0f 85 f8 fd ff ff    	jne    8840 <do_relocs+0x20>
    8a48:	e9 50 fe ff ff       	jmpq   889d <do_relocs+0x7d>
    8a4d:	0f 1f 00             	nopl   (%rax)
    8a50:	49 83 78 08 00       	cmpq   $0x0,0x8(%r8)
    8a55:	0f 85 f1 fe ff ff    	jne    894c <do_relocs+0x12c>
    8a5b:	49 83 c1 01          	add    $0x1,%r9
    8a5f:	48 83 c6 18          	add    $0x18,%rsi
    8a63:	4c 39 c9             	cmp    %r9,%rcx
    8a66:	0f 85 d4 fd ff ff    	jne    8840 <do_relocs+0x20>
    8a6c:	e9 2c fe ff ff       	jmpq   889d <do_relocs+0x7d>
    8a71:	31 c0                	xor    %eax,%eax
    8a73:	c3                   	retq   
    8a74:	66 2e 0f 1f 84 00 00 	nopw   %cs:0x0(%rax,%rax,1)
    8a7b:	00 00 00 
    8a7e:	66 90                	xchg   %ax,%ax

0000000000008a80 <relocate_enclave>:
    8a80:	48 85 ff             	test   %rdi,%rdi
    8a83:	0f 84 c0 01 00 00    	je     8c49 <relocate_enclave+0x1c9>
    8a89:	81 3f 7f 45 4c 46    	cmpl   $0x464c457f,(%rdi)
    8a8f:	0f 85 b4 01 00 00    	jne    8c49 <relocate_enclave+0x1c9>
    8a95:	66 83 7f 10 03       	cmpw   $0x3,0x10(%rdi)
    8a9a:	0f 85 a9 01 00 00    	jne    8c49 <relocate_enclave+0x1c9>
    8aa0:	41 57                	push   %r15
    8aa2:	41 56                	push   %r14
    8aa4:	41 55                	push   %r13
    8aa6:	41 54                	push   %r12
    8aa8:	55                   	push   %rbp
    8aa9:	53                   	push   %rbx
    8aaa:	48 89 fb             	mov    %rdi,%rbx
    8aad:	48 83 ec 10          	sub    $0x10,%rsp
    8ab1:	48 03 5f 20          	add    0x20(%rdi),%rbx
    8ab5:	0f 84 ff 00 00 00    	je     8bba <relocate_enclave+0x13a>
    8abb:	31 ed                	xor    %ebp,%ebp
    8abd:	66 83 7f 38 00       	cmpw   $0x0,0x38(%rdi)
    8ac2:	49 89 fd             	mov    %rdi,%r13
    8ac5:	4c 8d 25 88 55 00 00 	lea    0x5588(%rip),%r12        # e054 <g_dyn_entry_table+0x54>
    8acc:	75 1e                	jne    8aec <relocate_enclave+0x6c>
    8ace:	e9 65 01 00 00       	jmpq   8c38 <relocate_enclave+0x1b8>
    8ad3:	0f 1f 44 00 00       	nopl   0x0(%rax,%rax,1)
    8ad8:	41 0f b7 45 38       	movzwl 0x38(%r13),%eax
    8add:	83 c5 01             	add    $0x1,%ebp
    8ae0:	48 83 c3 38          	add    $0x38,%rbx
    8ae4:	39 e8                	cmp    %ebp,%eax
    8ae6:	0f 86 4c 01 00 00    	jbe    8c38 <relocate_enclave+0x1b8>
    8aec:	83 3b 02             	cmpl   $0x2,(%rbx)
    8aef:	75 e7                	jne    8ad8 <relocate_enclave+0x58>
    8af1:	48 8b 53 20          	mov    0x20(%rbx),%rdx
    8af5:	48 8b 43 18          	mov    0x18(%rbx),%rax
    8af9:	48 c1 ea 04          	shr    $0x4,%rdx
    8afd:	4c 01 e8             	add    %r13,%rax
    8b00:	48 85 d2             	test   %rdx,%rdx
    8b03:	49 89 c0             	mov    %rax,%r8
    8b06:	74 d0                	je     8ad8 <relocate_enclave+0x58>
    8b08:	4c 8b 08             	mov    (%rax),%r9
    8b0b:	4d 85 c9             	test   %r9,%r9
    8b0e:	74 c8                	je     8ad8 <relocate_enclave+0x58>
    8b10:	48 c1 e2 04          	shl    $0x4,%rdx
    8b14:	45 31 ff             	xor    %r15d,%r15d
    8b17:	45 31 f6             	xor    %r14d,%r14d
    8b1a:	48 01 c2             	add    %rax,%rdx
    8b1d:	45 31 d2             	xor    %r10d,%r10d
    8b20:	31 c0                	xor    %eax,%eax
    8b22:	31 f6                	xor    %esi,%esi
    8b24:	45 31 db             	xor    %r11d,%r11d
    8b27:	66 0f 1f 84 00 00 00 	nopw   0x0(%rax,%rax,1)
    8b2e:	00 00 
    8b30:	49 83 f9 17          	cmp    $0x17,%r9
    8b34:	77 12                	ja     8b48 <relocate_enclave+0xc8>
    8b36:	4b 63 3c 8c          	movslq (%r12,%r9,4),%rdi
    8b3a:	4c 01 e7             	add    %r12,%rdi
    8b3d:	ff e7                	jmpq   *%rdi
    8b3f:	90                   	nop
    8b40:	4d 8b 50 08          	mov    0x8(%r8),%r10
    8b44:	0f 1f 40 00          	nopl   0x0(%rax)
    8b48:	49 83 c0 10          	add    $0x10,%r8
    8b4c:	49 39 d0             	cmp    %rdx,%r8
    8b4f:	74 08                	je     8b59 <relocate_enclave+0xd9>
    8b51:	4d 8b 08             	mov    (%r8),%r9
    8b54:	4d 85 c9             	test   %r9,%r9
    8b57:	75 d7                	jne    8b30 <relocate_enclave+0xb0>
    8b59:	48 85 f6             	test   %rsi,%rsi
    8b5c:	0f 84 be 00 00 00    	je     8c20 <relocate_enclave+0x1a0>
    8b62:	4d 85 f6             	test   %r14,%r14
    8b65:	4c 89 14 24          	mov    %r10,(%rsp)
    8b69:	74 4f                	je     8bba <relocate_enclave+0x13a>
    8b6b:	31 d2                	xor    %edx,%edx
    8b6d:	4c 89 ef             	mov    %r13,%rdi
    8b70:	4c 89 5c 24 08       	mov    %r11,0x8(%rsp)
    8b75:	49 f7 f6             	div    %r14
    8b78:	4c 89 da             	mov    %r11,%rdx
    8b7b:	48 89 c1             	mov    %rax,%rcx
    8b7e:	e8 9d fc ff ff       	callq  8820 <do_relocs>
    8b83:	85 c0                	test   %eax,%eax
    8b85:	4c 8b 5c 24 08       	mov    0x8(%rsp),%r11
    8b8a:	4c 8b 14 24          	mov    (%rsp),%r10
    8b8e:	75 2a                	jne    8bba <relocate_enclave+0x13a>
    8b90:	4d 85 d2             	test   %r10,%r10
    8b93:	0f 84 3f ff ff ff    	je     8ad8 <relocate_enclave+0x58>
    8b99:	31 d2                	xor    %edx,%edx
    8b9b:	4c 89 f8             	mov    %r15,%rax
    8b9e:	4c 89 d6             	mov    %r10,%rsi
    8ba1:	49 f7 f6             	div    %r14
    8ba4:	4c 89 ef             	mov    %r13,%rdi
    8ba7:	4c 89 da             	mov    %r11,%rdx
    8baa:	48 89 c1             	mov    %rax,%rcx
    8bad:	e8 6e fc ff ff       	callq  8820 <do_relocs>
    8bb2:	85 c0                	test   %eax,%eax
    8bb4:	0f 84 1e ff ff ff    	je     8ad8 <relocate_enclave+0x58>
    8bba:	48 83 c4 10          	add    $0x10,%rsp
    8bbe:	b8 ff ff ff ff       	mov    $0xffffffff,%eax
    8bc3:	5b                   	pop    %rbx
    8bc4:	5d                   	pop    %rbp
    8bc5:	41 5c                	pop    %r12
    8bc7:	41 5d                	pop    %r13
    8bc9:	41 5e                	pop    %r14
    8bcb:	41 5f                	pop    %r15
    8bcd:	c3                   	retq   
    8bce:	66 90                	xchg   %ax,%ax
    8bd0:	4d 8b 58 08          	mov    0x8(%r8),%r11
    8bd4:	e9 6f ff ff ff       	jmpq   8b48 <relocate_enclave+0xc8>
    8bd9:	0f 1f 80 00 00 00 00 	nopl   0x0(%rax)
    8be0:	4d 8b 78 08          	mov    0x8(%r8),%r15
    8be4:	e9 5f ff ff ff       	jmpq   8b48 <relocate_enclave+0xc8>
    8be9:	0f 1f 80 00 00 00 00 	nopl   0x0(%rax)
    8bf0:	49 8b 40 08          	mov    0x8(%r8),%rax
    8bf4:	e9 4f ff ff ff       	jmpq   8b48 <relocate_enclave+0xc8>
    8bf9:	0f 1f 80 00 00 00 00 	nopl   0x0(%rax)
    8c00:	49 8b 70 08          	mov    0x8(%r8),%rsi
    8c04:	e9 3f ff ff ff       	jmpq   8b48 <relocate_enclave+0xc8>
    8c09:	0f 1f 80 00 00 00 00 	nopl   0x0(%rax)
    8c10:	4d 8b 70 08          	mov    0x8(%r8),%r14
    8c14:	e9 2f ff ff ff       	jmpq   8b48 <relocate_enclave+0xc8>
    8c19:	0f 1f 80 00 00 00 00 	nopl   0x0(%rax)
    8c20:	4d 85 d2             	test   %r10,%r10
    8c23:	0f 84 af fe ff ff    	je     8ad8 <relocate_enclave+0x58>
    8c29:	4d 85 f6             	test   %r14,%r14
    8c2c:	0f 85 67 ff ff ff    	jne    8b99 <relocate_enclave+0x119>
    8c32:	eb 86                	jmp    8bba <relocate_enclave+0x13a>
    8c34:	0f 1f 40 00          	nopl   0x0(%rax)
    8c38:	48 83 c4 10          	add    $0x10,%rsp
    8c3c:	31 c0                	xor    %eax,%eax
    8c3e:	5b                   	pop    %rbx
    8c3f:	5d                   	pop    %rbp
    8c40:	41 5c                	pop    %r12
    8c42:	41 5d                	pop    %r13
    8c44:	41 5e                	pop    %r14
    8c46:	41 5f                	pop    %r15
    8c48:	c3                   	retq   
    8c49:	b8 ff ff ff ff       	mov    $0xffffffff,%eax
    8c4e:	c3                   	retq   
    8c4f:	90                   	nop

0000000000008c50 <elf_tls_info>:
    8c50:	48 85 ff             	test   %rdi,%rdi
    8c53:	b8 ff ff ff ff       	mov    $0xffffffff,%eax
    8c58:	74 08                	je     8c62 <elf_tls_info+0x12>
    8c5a:	81 3f 7f 45 4c 46    	cmpl   $0x464c457f,(%rdi)
    8c60:	74 06                	je     8c68 <elf_tls_info+0x18>
    8c62:	f3 c3                	repz retq 
    8c64:	0f 1f 40 00          	nopl   0x0(%rax)
    8c68:	66 83 7f 10 03       	cmpw   $0x3,0x10(%rdi)
    8c6d:	75 f3                	jne    8c62 <elf_tls_info+0x12>
    8c6f:	48 8b 47 20          	mov    0x20(%rdi),%rax
    8c73:	48 01 f8             	add    %rdi,%rax
    8c76:	48 85 f6             	test   %rsi,%rsi
    8c79:	41 0f 94 c0          	sete   %r8b
    8c7d:	48 85 d2             	test   %rdx,%rdx
    8c80:	0f 94 c1             	sete   %cl
    8c83:	41 08 c8             	or     %cl,%r8b
    8c86:	75 61                	jne    8ce9 <elf_tls_info+0x99>
    8c88:	48 85 c0             	test   %rax,%rax
    8c8b:	74 5c                	je     8ce9 <elf_tls_info+0x99>
    8c8d:	0f b7 4f 38          	movzwl 0x38(%rdi),%ecx
    8c91:	48 c7 06 00 00 00 00 	movq   $0x0,(%rsi)
    8c98:	48 c7 02 00 00 00 00 	movq   $0x0,(%rdx)
    8c9f:	85 c9                	test   %ecx,%ecx
    8ca1:	74 2b                	je     8cce <elf_tls_info+0x7e>
    8ca3:	83 38 07             	cmpl   $0x7,(%rax)
    8ca6:	74 30                	je     8cd8 <elf_tls_info+0x88>
    8ca8:	44 8d 41 ff          	lea    -0x1(%rcx),%r8d
    8cac:	4a 8d 0c c5 00 00 00 	lea    0x0(,%r8,8),%rcx
    8cb3:	00 
    8cb4:	4c 29 c1             	sub    %r8,%rcx
    8cb7:	48 8d 4c c8 38       	lea    0x38(%rax,%rcx,8),%rcx
    8cbc:	eb 07                	jmp    8cc5 <elf_tls_info+0x75>
    8cbe:	66 90                	xchg   %ax,%ax
    8cc0:	83 38 07             	cmpl   $0x7,(%rax)
    8cc3:	74 13                	je     8cd8 <elf_tls_info+0x88>
    8cc5:	48 83 c0 38          	add    $0x38,%rax
    8cc9:	48 39 c8             	cmp    %rcx,%rax
    8ccc:	75 f2                	jne    8cc0 <elf_tls_info+0x70>
    8cce:	31 c0                	xor    %eax,%eax
    8cd0:	c3                   	retq   
    8cd1:	0f 1f 80 00 00 00 00 	nopl   0x0(%rax)
    8cd8:	48 03 78 10          	add    0x10(%rax),%rdi
    8cdc:	48 89 3e             	mov    %rdi,(%rsi)
    8cdf:	48 8b 40 20          	mov    0x20(%rax),%rax
    8ce3:	48 89 02             	mov    %rax,(%rdx)
    8ce6:	31 c0                	xor    %eax,%eax
    8ce8:	c3                   	retq   
    8ce9:	b8 ff ff ff ff       	mov    $0xffffffff,%eax
    8cee:	c3                   	retq   
    8cef:	90                   	nop

0000000000008cf0 <elf_get_init_array>:
    8cf0:	48 85 ff             	test   %rdi,%rdi
    8cf3:	b8 ff ff ff ff       	mov    $0xffffffff,%eax
    8cf8:	74 08                	je     8d02 <elf_get_init_array+0x12>
    8cfa:	81 3f 7f 45 4c 46    	cmpl   $0x464c457f,(%rdi)
    8d00:	74 06                	je     8d08 <elf_get_init_array+0x18>
    8d02:	f3 c3                	repz retq 
    8d04:	0f 1f 40 00          	nopl   0x0(%rax)
    8d08:	66 83 7f 10 03       	cmpw   $0x3,0x10(%rdi)
    8d0d:	75 f3                	jne    8d02 <elf_get_init_array+0x12>
    8d0f:	48 8b 4f 20          	mov    0x20(%rdi),%rcx
    8d13:	48 01 f9             	add    %rdi,%rcx
    8d16:	48 85 f6             	test   %rsi,%rsi
    8d19:	41 0f 94 c0          	sete   %r8b
    8d1d:	48 85 d2             	test   %rdx,%rdx
    8d20:	0f 94 c0             	sete   %al
    8d23:	41 08 c0             	or     %al,%r8b
    8d26:	0f 85 97 00 00 00    	jne    8dc3 <elf_get_init_array+0xd3>
    8d2c:	48 85 c9             	test   %rcx,%rcx
    8d2f:	0f 84 8e 00 00 00    	je     8dc3 <elf_get_init_array+0xd3>
    8d35:	0f b7 47 38          	movzwl 0x38(%rdi),%eax
    8d39:	48 c7 06 00 00 00 00 	movq   $0x0,(%rsi)
    8d40:	48 c7 02 00 00 00 00 	movq   $0x0,(%rdx)
    8d47:	85 c0                	test   %eax,%eax
    8d49:	74 75                	je     8dc0 <elf_get_init_array+0xd0>
    8d4b:	44 8d 40 ff          	lea    -0x1(%rax),%r8d
    8d4f:	4a 8d 04 c5 00 00 00 	lea    0x0(,%r8,8),%rax
    8d56:	00 
    8d57:	4c 29 c0             	sub    %r8,%rax
    8d5a:	4c 8d 54 c1 38       	lea    0x38(%rcx,%rax,8),%r10
    8d5f:	eb 10                	jmp    8d71 <elf_get_init_array+0x81>
    8d61:	0f 1f 80 00 00 00 00 	nopl   0x0(%rax)
    8d68:	48 83 c1 38          	add    $0x38,%rcx
    8d6c:	4c 39 d1             	cmp    %r10,%rcx
    8d6f:	74 4f                	je     8dc0 <elf_get_init_array+0xd0>
    8d71:	83 39 02             	cmpl   $0x2,(%rcx)
    8d74:	75 f2                	jne    8d68 <elf_get_init_array+0x78>
    8d76:	4c 8b 49 20          	mov    0x20(%rcx),%r9
    8d7a:	48 8b 41 18          	mov    0x18(%rcx),%rax
    8d7e:	49 c1 e9 04          	shr    $0x4,%r9
    8d82:	48 01 f8             	add    %rdi,%rax
    8d85:	4d 85 c9             	test   %r9,%r9
    8d88:	74 de                	je     8d68 <elf_get_init_array+0x78>
    8d8a:	49 c1 e1 04          	shl    $0x4,%r9
    8d8e:	49 01 c1             	add    %rax,%r9
    8d91:	eb 1b                	jmp    8dae <elf_get_init_array+0xbe>
    8d93:	0f 1f 44 00 00       	nopl   0x0(%rax,%rax,1)
    8d98:	49 83 f8 1b          	cmp    $0x1b,%r8
    8d9c:	75 07                	jne    8da5 <elf_get_init_array+0xb5>
    8d9e:	4c 8b 40 08          	mov    0x8(%rax),%r8
    8da2:	4c 89 02             	mov    %r8,(%rdx)
    8da5:	48 83 c0 10          	add    $0x10,%rax
    8da9:	49 39 c1             	cmp    %rax,%r9
    8dac:	74 ba                	je     8d68 <elf_get_init_array+0x78>
    8dae:	4c 8b 00             	mov    (%rax),%r8
    8db1:	49 83 f8 19          	cmp    $0x19,%r8
    8db5:	75 e1                	jne    8d98 <elf_get_init_array+0xa8>
    8db7:	4c 8b 40 08          	mov    0x8(%rax),%r8
    8dbb:	4c 89 06             	mov    %r8,(%rsi)
    8dbe:	eb e5                	jmp    8da5 <elf_get_init_array+0xb5>
    8dc0:	31 c0                	xor    %eax,%eax
    8dc2:	c3                   	retq   
    8dc3:	b8 ff ff ff ff       	mov    $0xffffffff,%eax
    8dc8:	c3                   	retq   
    8dc9:	0f 1f 80 00 00 00 00 	nopl   0x0(%rax)

0000000000008dd0 <elf_get_uninit_array>:
    8dd0:	48 85 ff             	test   %rdi,%rdi
    8dd3:	b8 ff ff ff ff       	mov    $0xffffffff,%eax
    8dd8:	74 08                	je     8de2 <elf_get_uninit_array+0x12>
    8dda:	81 3f 7f 45 4c 46    	cmpl   $0x464c457f,(%rdi)
    8de0:	74 06                	je     8de8 <elf_get_uninit_array+0x18>
    8de2:	f3 c3                	repz retq 
    8de4:	0f 1f 40 00          	nopl   0x0(%rax)
    8de8:	66 83 7f 10 03       	cmpw   $0x3,0x10(%rdi)
    8ded:	75 f3                	jne    8de2 <elf_get_uninit_array+0x12>
    8def:	48 8b 4f 20          	mov    0x20(%rdi),%rcx
    8df3:	48 01 f9             	add    %rdi,%rcx
    8df6:	48 85 f6             	test   %rsi,%rsi
    8df9:	41 0f 94 c0          	sete   %r8b
    8dfd:	48 85 d2             	test   %rdx,%rdx
    8e00:	0f 94 c0             	sete   %al
    8e03:	41 08 c0             	or     %al,%r8b
    8e06:	0f 85 97 00 00 00    	jne    8ea3 <elf_get_uninit_array+0xd3>
    8e0c:	48 85 c9             	test   %rcx,%rcx
    8e0f:	0f 84 8e 00 00 00    	je     8ea3 <elf_get_uninit_array+0xd3>
    8e15:	0f b7 47 38          	movzwl 0x38(%rdi),%eax
    8e19:	48 c7 06 00 00 00 00 	movq   $0x0,(%rsi)
    8e20:	48 c7 02 00 00 00 00 	movq   $0x0,(%rdx)
    8e27:	85 c0                	test   %eax,%eax
    8e29:	74 75                	je     8ea0 <elf_get_uninit_array+0xd0>
    8e2b:	44 8d 40 ff          	lea    -0x1(%rax),%r8d
    8e2f:	4a 8d 04 c5 00 00 00 	lea    0x0(,%r8,8),%rax
    8e36:	00 
    8e37:	4c 29 c0             	sub    %r8,%rax
    8e3a:	4c 8d 54 c1 38       	lea    0x38(%rcx,%rax,8),%r10
    8e3f:	eb 10                	jmp    8e51 <elf_get_uninit_array+0x81>
    8e41:	0f 1f 80 00 00 00 00 	nopl   0x0(%rax)
    8e48:	48 83 c1 38          	add    $0x38,%rcx
    8e4c:	4c 39 d1             	cmp    %r10,%rcx
    8e4f:	74 4f                	je     8ea0 <elf_get_uninit_array+0xd0>
    8e51:	83 39 02             	cmpl   $0x2,(%rcx)
    8e54:	75 f2                	jne    8e48 <elf_get_uninit_array+0x78>
    8e56:	4c 8b 49 20          	mov    0x20(%rcx),%r9
    8e5a:	48 8b 41 18          	mov    0x18(%rcx),%rax
    8e5e:	49 c1 e9 04          	shr    $0x4,%r9
    8e62:	48 01 f8             	add    %rdi,%rax
    8e65:	4d 85 c9             	test   %r9,%r9
    8e68:	74 de                	je     8e48 <elf_get_uninit_array+0x78>
    8e6a:	49 c1 e1 04          	shl    $0x4,%r9
    8e6e:	49 01 c1             	add    %rax,%r9
    8e71:	eb 1b                	jmp    8e8e <elf_get_uninit_array+0xbe>
    8e73:	0f 1f 44 00 00       	nopl   0x0(%rax,%rax,1)
    8e78:	49 83 f8 1c          	cmp    $0x1c,%r8
    8e7c:	75 07                	jne    8e85 <elf_get_uninit_array+0xb5>
    8e7e:	4c 8b 40 08          	mov    0x8(%rax),%r8
    8e82:	4c 89 02             	mov    %r8,(%rdx)
    8e85:	48 83 c0 10          	add    $0x10,%rax
    8e89:	49 39 c1             	cmp    %rax,%r9
    8e8c:	74 ba                	je     8e48 <elf_get_uninit_array+0x78>
    8e8e:	4c 8b 00             	mov    (%rax),%r8
    8e91:	49 83 f8 1a          	cmp    $0x1a,%r8
    8e95:	75 e1                	jne    8e78 <elf_get_uninit_array+0xa8>
    8e97:	4c 8b 40 08          	mov    0x8(%rax),%r8
    8e9b:	4c 89 06             	mov    %r8,(%rsi)
    8e9e:	eb e5                	jmp    8e85 <elf_get_uninit_array+0xb5>
    8ea0:	31 c0                	xor    %eax,%eax
    8ea2:	c3                   	retq   
    8ea3:	b8 ff ff ff ff       	mov    $0xffffffff,%eax
    8ea8:	c3                   	retq   
    8ea9:	0f 1f 80 00 00 00 00 	nopl   0x0(%rax)

0000000000008eb0 <change_protection>:
    8eb0:	48 85 ff             	test   %rdi,%rdi
    8eb3:	b8 01 00 00 00       	mov    $0x1,%eax
    8eb8:	0f 84 02 01 00 00    	je     8fc0 <change_protection+0x110>
    8ebe:	81 3f 7f 45 4c 46    	cmpl   $0x464c457f,(%rdi)
    8ec4:	74 0a                	je     8ed0 <change_protection+0x20>
    8ec6:	f3 c3                	repz retq 
    8ec8:	0f 1f 84 00 00 00 00 	nopl   0x0(%rax,%rax,1)
    8ecf:	00 
    8ed0:	66 83 7f 10 03       	cmpw   $0x3,0x10(%rdi)
    8ed5:	75 ef                	jne    8ec6 <change_protection+0x16>
    8ed7:	41 56                	push   %r14
    8ed9:	41 55                	push   %r13
    8edb:	41 54                	push   %r12
    8edd:	55                   	push   %rbp
    8ede:	53                   	push   %rbx
    8edf:	48 89 fb             	mov    %rdi,%rbx
    8ee2:	48 03 5f 20          	add    0x20(%rdi),%rbx
    8ee6:	0f 84 cb 00 00 00    	je     8fb7 <change_protection+0x107>
    8eec:	0f b7 47 38          	movzwl 0x38(%rdi),%eax
    8ef0:	49 89 fc             	mov    %rdi,%r12
    8ef3:	85 c0                	test   %eax,%eax
    8ef5:	0f 84 25 01 00 00    	je     9020 <change_protection+0x170>
    8efb:	83 3b 02             	cmpl   $0x2,(%rbx)
    8efe:	0f 84 ab 01 00 00    	je     90af <change_protection+0x1ff>
    8f04:	8d 50 ff             	lea    -0x1(%rax),%edx
    8f07:	48 8d 04 d5 00 00 00 	lea    0x0(,%rdx,8),%rax
    8f0e:	00 
    8f0f:	48 29 d0             	sub    %rdx,%rax
    8f12:	48 8d 54 c3 38       	lea    0x38(%rbx,%rax,8),%rdx
    8f17:	48 89 d8             	mov    %rbx,%rax
    8f1a:	eb 0d                	jmp    8f29 <change_protection+0x79>
    8f1c:	0f 1f 40 00          	nopl   0x0(%rax)
    8f20:	83 38 02             	cmpl   $0x2,(%rax)
    8f23:	0f 84 8f 01 00 00    	je     90b8 <change_protection+0x208>
    8f29:	48 83 c0 38          	add    $0x38,%rax
    8f2d:	48 39 d0             	cmp    %rdx,%rax
    8f30:	75 ee                	jne    8f20 <change_protection+0x70>
    8f32:	45 31 f6             	xor    %r14d,%r14d
    8f35:	45 31 ed             	xor    %r13d,%r13d
    8f38:	48 bd ff ff ff ff 02 	movabs $0x2ffffffff,%rbp
    8f3f:	00 00 00 
    8f42:	eb 1b                	jmp    8f5f <change_protection+0xaf>
    8f44:	0f 1f 40 00          	nopl   0x0(%rax)
    8f48:	41 0f b7 44 24 38    	movzwl 0x38(%r12),%eax
    8f4e:	41 83 c5 01          	add    $0x1,%r13d
    8f52:	48 83 c3 38          	add    $0x38,%rbx
    8f56:	44 39 e8             	cmp    %r13d,%eax
    8f59:	0f 86 c1 00 00 00    	jbe    9020 <change_protection+0x170>
    8f5f:	45 85 f6             	test   %r14d,%r14d
    8f62:	74 0c                	je     8f70 <change_protection+0xc0>
    8f64:	48 8b 03             	mov    (%rbx),%rax
    8f67:	48 21 e8             	and    %rbp,%rax
    8f6a:	48 83 f8 01          	cmp    $0x1,%rax
    8f6e:	74 58                	je     8fc8 <change_protection+0x118>
    8f70:	81 3b 52 e5 74 64    	cmpl   $0x6474e552,(%rbx)
    8f76:	75 d0                	jne    8f48 <change_protection+0x98>
    8f78:	48 8b 43 10          	mov    0x10(%rbx),%rax
    8f7c:	48 89 c7             	mov    %rax,%rdi
    8f7f:	48 03 43 28          	add    0x28(%rbx),%rax
    8f83:	48 81 e7 00 f0 ff ff 	and    $0xfffffffffffff000,%rdi
    8f8a:	4c 01 e7             	add    %r12,%rdi
    8f8d:	48 89 c6             	mov    %rax,%rsi
    8f90:	48 81 c6 ff 0f 00 00 	add    $0xfff,%rsi
    8f97:	48 81 e6 00 f0 ff ff 	and    $0xfffffffffffff000,%rsi
    8f9e:	4c 01 e6             	add    %r12,%rsi
    8fa1:	48 39 f7             	cmp    %rsi,%rdi
    8fa4:	74 a2                	je     8f48 <change_protection+0x98>
    8fa6:	48 29 fe             	sub    %rdi,%rsi
    8fa9:	ba 01 00 00 00       	mov    $0x1,%edx
    8fae:	e8 8d eb ff ff       	callq  7b40 <trts_mprotect>
    8fb3:	85 c0                	test   %eax,%eax
    8fb5:	74 91                	je     8f48 <change_protection+0x98>
    8fb7:	5b                   	pop    %rbx
    8fb8:	5d                   	pop    %rbp
    8fb9:	41 5c                	pop    %r12
    8fbb:	41 5d                	pop    %r13
    8fbd:	41 5e                	pop    %r14
    8fbf:	c3                   	retq   
    8fc0:	f3 c3                	repz retq 
    8fc2:	66 0f 1f 44 00 00    	nopw   0x0(%rax,%rax,1)
    8fc8:	48 8b 43 10          	mov    0x10(%rbx),%rax
    8fcc:	8b 7b 04             	mov    0x4(%rbx),%edi
    8fcf:	48 89 c1             	mov    %rax,%rcx
    8fd2:	48 03 43 28          	add    0x28(%rbx),%rax
    8fd6:	89 fa                	mov    %edi,%edx
    8fd8:	c1 ea 02             	shr    $0x2,%edx
    8fdb:	48 81 e1 00 f0 ff ff 	and    $0xfffffffffffff000,%rcx
    8fe2:	83 e2 01             	and    $0x1,%edx
    8fe5:	48 89 c6             	mov    %rax,%rsi
    8fe8:	48 89 d0             	mov    %rdx,%rax
    8feb:	48 81 c6 ff 0f 00 00 	add    $0xfff,%rsi
    8ff2:	48 83 c8 04          	or     $0x4,%rax
    8ff6:	48 81 e6 00 f0 ff ff 	and    $0xfffffffffffff000,%rsi
    8ffd:	83 e7 01             	and    $0x1,%edi
    9000:	49 8d 3c 0c          	lea    (%r12,%rcx,1),%rdi
    9004:	48 0f 45 d0          	cmovne %rax,%rdx
    9008:	48 29 ce             	sub    %rcx,%rsi
    900b:	e8 30 eb ff ff       	callq  7b40 <trts_mprotect>
    9010:	85 c0                	test   %eax,%eax
    9012:	0f 84 58 ff ff ff    	je     8f70 <change_protection+0xc0>
    9018:	eb 9d                	jmp    8fb7 <change_protection+0x107>
    901a:	66 0f 1f 44 00 00    	nopw   0x0(%rax,%rax,1)
    9020:	8b 05 ca 51 00 00    	mov    0x51ca(%rip),%eax        # e1f0 <g_global_data+0x130>
    9026:	31 c9                	xor    %ecx,%ecx
    9028:	48 8d 3d 91 50 00 00 	lea    0x5091(%rip),%rdi        # e0c0 <g_global_data>
    902f:	85 c0                	test   %eax,%eax
    9031:	75 12                	jne    9045 <change_protection+0x195>
    9033:	eb 82                	jmp    8fb7 <change_protection+0x107>
    9035:	0f 1f 00             	nopl   (%rax)
    9038:	8b 05 b2 51 00 00    	mov    0x51b2(%rip),%eax        # e1f0 <g_global_data+0x130>
    903e:	83 c1 01             	add    $0x1,%ecx
    9041:	39 c8                	cmp    %ecx,%eax
    9043:	76 63                	jbe    90a8 <change_protection+0x1f8>
    9045:	89 c8                	mov    %ecx,%eax
    9047:	48 89 c2             	mov    %rax,%rdx
    904a:	48 c1 e2 05          	shl    $0x5,%rdx
    904e:	48 01 fa             	add    %rdi,%rdx
    9051:	0f b7 b2 38 01 00 00 	movzwl 0x138(%rdx),%esi
    9058:	66 83 fe 14          	cmp    $0x14,%si
    905c:	75 da                	jne    9038 <change_protection+0x188>
    905e:	48 83 c0 0a          	add    $0xa,%rax
    9062:	48 c1 e0 05          	shl    $0x5,%rax
    9066:	48 01 f8             	add    %rdi,%rax
    9069:	48 8b 40 10          	mov    0x10(%rax),%rax
    906d:	48 3d 07 02 00 00    	cmp    $0x207,%rax
    9073:	75 c3                	jne    9038 <change_protection+0x188>
    9075:	8b 82 3c 01 00 00    	mov    0x13c(%rdx),%eax
    907b:	85 c0                	test   %eax,%eax
    907d:	74 b9                	je     9038 <change_protection+0x188>
    907f:	8b b2 3c 01 00 00    	mov    0x13c(%rdx),%esi
    9085:	48 8b ba 40 01 00 00 	mov    0x140(%rdx),%rdi
    908c:	ba 03 00 00 00       	mov    $0x3,%edx
    9091:	5b                   	pop    %rbx
    9092:	5d                   	pop    %rbp
    9093:	4c 01 e7             	add    %r12,%rdi
    9096:	41 5c                	pop    %r12
    9098:	41 5d                	pop    %r13
    909a:	41 5e                	pop    %r14
    909c:	48 c1 e6 0c          	shl    $0xc,%rsi
    90a0:	e9 9b ea ff ff       	jmpq   7b40 <trts_mprotect>
    90a5:	0f 1f 00             	nopl   (%rax)
    90a8:	31 c0                	xor    %eax,%eax
    90aa:	e9 08 ff ff ff       	jmpq   8fb7 <change_protection+0x107>
    90af:	48 89 d8             	mov    %rbx,%rax
    90b2:	66 0f 1f 44 00 00    	nopw   0x0(%rax,%rax,1)
    90b8:	48 8b 48 20          	mov    0x20(%rax),%rcx
    90bc:	48 8b 70 18          	mov    0x18(%rax),%rsi
    90c0:	48 c1 e9 04          	shr    $0x4,%rcx
    90c4:	4c 01 e6             	add    %r12,%rsi
    90c7:	48 85 c9             	test   %rcx,%rcx
    90ca:	48 89 f0             	mov    %rsi,%rax
    90cd:	0f 84 5f fe ff ff    	je     8f32 <change_protection+0x82>
    90d3:	48 8b 16             	mov    (%rsi),%rdx
    90d6:	48 85 d2             	test   %rdx,%rdx
    90d9:	0f 84 53 fe ff ff    	je     8f32 <change_protection+0x82>
    90df:	48 83 fa 16          	cmp    $0x16,%rdx
    90e3:	74 2b                	je     9110 <change_protection+0x260>
    90e5:	48 c1 e1 04          	shl    $0x4,%rcx
    90e9:	48 01 f1             	add    %rsi,%rcx
    90ec:	eb 14                	jmp    9102 <change_protection+0x252>
    90ee:	66 90                	xchg   %ax,%ax
    90f0:	48 8b 10             	mov    (%rax),%rdx
    90f3:	48 85 d2             	test   %rdx,%rdx
    90f6:	0f 84 36 fe ff ff    	je     8f32 <change_protection+0x82>
    90fc:	48 83 fa 16          	cmp    $0x16,%rdx
    9100:	74 0e                	je     9110 <change_protection+0x260>
    9102:	48 83 c0 10          	add    $0x10,%rax
    9106:	48 39 c8             	cmp    %rcx,%rax
    9109:	75 e5                	jne    90f0 <change_protection+0x240>
    910b:	e9 22 fe ff ff       	jmpq   8f32 <change_protection+0x82>
    9110:	41 be 01 00 00 00    	mov    $0x1,%r14d
    9116:	e9 1a fe ff ff       	jmpq   8f35 <change_protection+0x85>
    911b:	0f 1f 44 00 00       	nopl   0x0(%rax,%rax,1)

0000000000009120 <__cxa_atexit>:
    9120:	41 55                	push   %r13
    9122:	41 54                	push   %r12
    9124:	49 89 d5             	mov    %rdx,%r13
    9127:	55                   	push   %rbp
    9128:	53                   	push   %rbx
    9129:	48 89 fd             	mov    %rdi,%rbp
    912c:	49 89 f4             	mov    %rsi,%r12
    912f:	48 83 ec 18          	sub    $0x18,%rsp
    9133:	64 48 8b 04 25 28 00 	mov    %fs:0x28,%rax
    913a:	00 00 
    913c:	48 89 44 24 08       	mov    %rax,0x8(%rsp)
    9141:	31 c0                	xor    %eax,%eax
    9143:	48 83 3d a5 8f 00 00 	cmpq   $0x0,0x8fa5(%rip)        # 120f0 <g_exit_function_cookie>
    914a:	00 
    914b:	0f 84 8f 00 00 00    	je     91e0 <__cxa_atexit+0xc0>
    9151:	31 f6                	xor    %esi,%esi
    9153:	48 89 ef             	mov    %rbp,%rdi
    9156:	e8 35 d1 ff ff       	callq  6290 <sgx_is_within_enclave>
    915b:	85 c0                	test   %eax,%eax
    915d:	0f 84 a5 00 00 00    	je     9208 <__cxa_atexit+0xe8>
    9163:	bf 20 00 00 00       	mov    $0x20,%edi
    9168:	e8 23 0b 00 00       	callq  9c90 <dlmalloc>
    916d:	48 85 c0             	test   %rax,%rax
    9170:	48 89 c3             	mov    %rax,%rbx
    9173:	0f 84 8f 00 00 00    	je     9208 <__cxa_atexit+0xe8>
    9179:	48 8b 05 70 8f 00 00 	mov    0x8f70(%rip),%rax        # 120f0 <g_exit_function_cookie>
    9180:	48 8d 3d 71 8f 00 00 	lea    0x8f71(%rip),%rdi        # 120f8 <g_exit_function_lock>
    9187:	4c 89 6b 10          	mov    %r13,0x10(%rbx)
    918b:	48 31 c5             	xor    %rax,%rbp
    918e:	49 31 c4             	xor    %rax,%r12
    9191:	48 89 2b             	mov    %rbp,(%rbx)
    9194:	4c 89 63 08          	mov    %r12,0x8(%rbx)
    9198:	e8 13 3c 00 00       	callq  cdb0 <sgx_spin_lock>
    919d:	48 8b 05 5c 8f 00 00 	mov    0x8f5c(%rip),%rax        # 12100 <g_exit_function>
    91a4:	48 8d 3d 4d 8f 00 00 	lea    0x8f4d(%rip),%rdi        # 120f8 <g_exit_function_lock>
    91ab:	48 89 1d 4e 8f 00 00 	mov    %rbx,0x8f4e(%rip)        # 12100 <g_exit_function>
    91b2:	48 89 43 18          	mov    %rax,0x18(%rbx)
    91b6:	e8 55 3c 00 00       	callq  ce10 <sgx_spin_unlock>
    91bb:	31 c0                	xor    %eax,%eax
    91bd:	48 8b 4c 24 08       	mov    0x8(%rsp),%rcx
    91c2:	64 48 33 0c 25 28 00 	xor    %fs:0x28,%rcx
    91c9:	00 00 
    91cb:	75 75                	jne    9242 <__cxa_atexit+0x122>
    91cd:	48 83 c4 18          	add    $0x18,%rsp
    91d1:	5b                   	pop    %rbx
    91d2:	5d                   	pop    %rbp
    91d3:	41 5c                	pop    %r12
    91d5:	41 5d                	pop    %r13
    91d7:	c3                   	retq   
    91d8:	0f 1f 84 00 00 00 00 	nopl   0x0(%rax,%rax,1)
    91df:	00 
    91e0:	48 c7 04 24 00 00 00 	movq   $0x0,(%rsp)
    91e7:	00 
    91e8:	48 89 e3             	mov    %rsp,%rbx
    91eb:	eb 0a                	jmp    91f7 <__cxa_atexit+0xd7>
    91ed:	0f 1f 00             	nopl   (%rax)
    91f0:	48 83 3c 24 00       	cmpq   $0x0,(%rsp)
    91f5:	75 19                	jne    9210 <__cxa_atexit+0xf0>
    91f7:	be 08 00 00 00       	mov    $0x8,%esi
    91fc:	48 89 df             	mov    %rbx,%rdi
    91ff:	e8 6c d2 ff ff       	callq  6470 <sgx_read_rand>
    9204:	85 c0                	test   %eax,%eax
    9206:	74 e8                	je     91f0 <__cxa_atexit+0xd0>
    9208:	b8 ff ff ff ff       	mov    $0xffffffff,%eax
    920d:	eb ae                	jmp    91bd <__cxa_atexit+0x9d>
    920f:	90                   	nop
    9210:	48 8d 3d e1 8e 00 00 	lea    0x8ee1(%rip),%rdi        # 120f8 <g_exit_function_lock>
    9217:	e8 94 3b 00 00       	callq  cdb0 <sgx_spin_lock>
    921c:	48 83 3d cc 8e 00 00 	cmpq   $0x0,0x8ecc(%rip)        # 120f0 <g_exit_function_cookie>
    9223:	00 
    9224:	75 0b                	jne    9231 <__cxa_atexit+0x111>
    9226:	48 8b 04 24          	mov    (%rsp),%rax
    922a:	48 89 05 bf 8e 00 00 	mov    %rax,0x8ebf(%rip)        # 120f0 <g_exit_function_cookie>
    9231:	48 8d 3d c0 8e 00 00 	lea    0x8ec0(%rip),%rdi        # 120f8 <g_exit_function_lock>
    9238:	e8 d3 3b 00 00       	callq  ce10 <sgx_spin_unlock>
    923d:	e9 0f ff ff ff       	jmpq   9151 <__cxa_atexit+0x31>
    9242:	e8 c9 01 00 00       	callq  9410 <__stack_chk_fail>
    9247:	66 0f 1f 84 00 00 00 	nopw   0x0(%rax,%rax,1)
    924e:	00 00 

0000000000009250 <atexit>:
    9250:	48 8b 15 d9 8d 00 00 	mov    0x8dd9(%rip),%rdx        # 12030 <__dso_handle>
    9257:	31 f6                	xor    %esi,%esi
    9259:	e9 c2 fe ff ff       	jmpq   9120 <__cxa_atexit>
    925e:	66 90                	xchg   %ax,%ax

0000000000009260 <init_global_object>:
    9260:	55                   	push   %rbp
    9261:	53                   	push   %rbx
    9262:	48 8d 3d 97 6d ff ff 	lea    -0x9269(%rip),%rdi        # 0 <__ImageBase>
    9269:	48 83 ec 28          	sub    $0x28,%rsp
    926d:	48 8d 54 24 10       	lea    0x10(%rsp),%rdx
    9272:	48 8d 74 24 08       	lea    0x8(%rsp),%rsi
    9277:	48 c7 44 24 08 00 00 	movq   $0x0,0x8(%rsp)
    927e:	00 00 
    9280:	64 48 8b 04 25 28 00 	mov    %fs:0x28,%rax
    9287:	00 00 
    9289:	48 89 44 24 18       	mov    %rax,0x18(%rsp)
    928e:	31 c0                	xor    %eax,%eax
    9290:	48 c7 44 24 10 00 00 	movq   $0x0,0x10(%rsp)
    9297:	00 00 
    9299:	e8 52 fa ff ff       	callq  8cf0 <elf_get_init_array>
    929e:	85 c0                	test   %eax,%eax
    92a0:	75 0a                	jne    92ac <init_global_object+0x4c>
    92a2:	48 8b 5c 24 08       	mov    0x8(%rsp),%rbx
    92a7:	48 85 db             	test   %rbx,%rbx
    92aa:	75 1c                	jne    92c8 <init_global_object+0x68>
    92ac:	48 8b 44 24 18       	mov    0x18(%rsp),%rax
    92b1:	64 48 33 04 25 28 00 	xor    %fs:0x28,%rax
    92b8:	00 00 
    92ba:	75 41                	jne    92fd <init_global_object+0x9d>
    92bc:	48 83 c4 28          	add    $0x28,%rsp
    92c0:	5b                   	pop    %rbx
    92c1:	5d                   	pop    %rbp
    92c2:	c3                   	retq   
    92c3:	0f 1f 44 00 00       	nopl   0x0(%rax,%rax,1)
    92c8:	48 8b 6c 24 10       	mov    0x10(%rsp),%rbp
    92cd:	48 85 ed             	test   %rbp,%rbp
    92d0:	74 da                	je     92ac <init_global_object+0x4c>
    92d2:	48 8d 05 27 6d ff ff 	lea    -0x92d9(%rip),%rax        # 0 <__ImageBase>
    92d9:	48 83 e5 f8          	and    $0xfffffffffffffff8,%rbp
    92dd:	48 01 c3             	add    %rax,%rbx
    92e0:	48 01 dd             	add    %rbx,%rbp
    92e3:	48 39 eb             	cmp    %rbp,%rbx
    92e6:	73 c4                	jae    92ac <init_global_object+0x4c>
    92e8:	0f 1f 84 00 00 00 00 	nopl   0x0(%rax,%rax,1)
    92ef:	00 
    92f0:	ff 13                	callq  *(%rbx)
    92f2:	48 83 c3 08          	add    $0x8,%rbx
    92f6:	48 39 dd             	cmp    %rbx,%rbp
    92f9:	77 f5                	ja     92f0 <init_global_object+0x90>
    92fb:	eb af                	jmp    92ac <init_global_object+0x4c>
    92fd:	e8 0e 01 00 00       	callq  9410 <__stack_chk_fail>
    9302:	66 2e 0f 1f 84 00 00 	nopw   %cs:0x0(%rax,%rax,1)
    9309:	00 00 00 
    930c:	0f 1f 40 00          	nopl   0x0(%rax)

0000000000009310 <uninit_global_object>:
    9310:	55                   	push   %rbp
    9311:	53                   	push   %rbx
    9312:	48 83 ec 28          	sub    $0x28,%rsp
    9316:	48 8b 1d e3 8d 00 00 	mov    0x8de3(%rip),%rbx        # 12100 <g_exit_function>
    931d:	48 c7 05 d8 8d 00 00 	movq   $0x0,0x8dd8(%rip)        # 12100 <g_exit_function>
    9324:	00 00 00 00 
    9328:	64 48 8b 04 25 28 00 	mov    %fs:0x28,%rax
    932f:	00 00 
    9331:	48 89 44 24 18       	mov    %rax,0x18(%rsp)
    9336:	31 c0                	xor    %eax,%eax
    9338:	48 85 db             	test   %rbx,%rbx
    933b:	74 2a                	je     9367 <uninit_global_object+0x57>
    933d:	0f 1f 00             	nopl   (%rax)
    9340:	48 8b 05 a9 8d 00 00 	mov    0x8da9(%rip),%rax        # 120f0 <g_exit_function_cookie>
    9347:	48 8b 7b 08          	mov    0x8(%rbx),%rdi
    934b:	48 31 c7             	xor    %rax,%rdi
    934e:	48 33 03             	xor    (%rbx),%rax
    9351:	ff d0                	callq  *%rax
    9353:	48 8b 6b 18          	mov    0x18(%rbx),%rbp
    9357:	48 89 df             	mov    %rbx,%rdi
    935a:	e8 51 23 00 00       	callq  b6b0 <dlfree>
    935f:	48 85 ed             	test   %rbp,%rbp
    9362:	48 89 eb             	mov    %rbp,%rbx
    9365:	75 d9                	jne    9340 <uninit_global_object+0x30>
    9367:	48 8d 54 24 10       	lea    0x10(%rsp),%rdx
    936c:	48 8d 74 24 08       	lea    0x8(%rsp),%rsi
    9371:	48 8d 3d 88 6c ff ff 	lea    -0x9378(%rip),%rdi        # 0 <__ImageBase>
    9378:	e8 53 fa ff ff       	callq  8dd0 <elf_get_uninit_array>
    937d:	48 8b 44 24 08       	mov    0x8(%rsp),%rax
    9382:	48 85 c0             	test   %rax,%rax
    9385:	74 47                	je     93ce <uninit_global_object+0xbe>
    9387:	48 8b 4c 24 10       	mov    0x10(%rsp),%rcx
    938c:	48 85 c9             	test   %rcx,%rcx
    938f:	74 3d                	je     93ce <uninit_global_object+0xbe>
    9391:	48 8d 15 68 6c ff ff 	lea    -0x9398(%rip),%rdx        # 0 <__ImageBase>
    9398:	48 83 e1 f8          	and    $0xfffffffffffffff8,%rcx
    939c:	48 01 c2             	add    %rax,%rdx
    939f:	48 8d 44 0a f8       	lea    -0x8(%rdx,%rcx,1),%rax
    93a4:	48 39 c2             	cmp    %rax,%rdx
    93a7:	77 25                	ja     93ce <uninit_global_object+0xbe>
    93a9:	48 89 c5             	mov    %rax,%rbp
    93ac:	48 8d 58 f8          	lea    -0x8(%rax),%rbx
    93b0:	48 29 d5             	sub    %rdx,%rbp
    93b3:	48 f7 d5             	not    %rbp
    93b6:	48 83 e5 f8          	and    $0xfffffffffffffff8,%rbp
    93ba:	48 01 c5             	add    %rax,%rbp
    93bd:	eb 05                	jmp    93c4 <uninit_global_object+0xb4>
    93bf:	90                   	nop
    93c0:	48 83 eb 08          	sub    $0x8,%rbx
    93c4:	ff 10                	callq  *(%rax)
    93c6:	48 39 eb             	cmp    %rbp,%rbx
    93c9:	48 89 d8             	mov    %rbx,%rax
    93cc:	75 f2                	jne    93c0 <uninit_global_object+0xb0>
    93ce:	48 8b 44 24 18       	mov    0x18(%rsp),%rax
    93d3:	64 48 33 04 25 28 00 	xor    %fs:0x28,%rax
    93da:	00 00 
    93dc:	75 07                	jne    93e5 <uninit_global_object+0xd5>
    93de:	48 83 c4 28          	add    $0x28,%rsp
    93e2:	5b                   	pop    %rbx
    93e3:	5d                   	pop    %rbp
    93e4:	c3                   	retq   
    93e5:	e8 26 00 00 00       	callq  9410 <__stack_chk_fail>
    93ea:	66 0f 1f 44 00 00    	nopw   0x0(%rax,%rax,1)

00000000000093f0 <__tls_get_addr>:
    93f0:	53                   	push   %rbx
    93f1:	48 89 fb             	mov    %rdi,%rbx
    93f4:	e8 08 46 00 00       	callq  da01 <get_thread_data>
    93f9:	48 8b 40 50          	mov    0x50(%rax),%rax
    93fd:	48 03 43 08          	add    0x8(%rbx),%rax
    9401:	5b                   	pop    %rbx
    9402:	c3                   	retq   
    9403:	66 2e 0f 1f 84 00 00 	nopw   %cs:0x0(%rax,%rax,1)
    940a:	00 00 00 
    940d:	0f 1f 00             	nopl   (%rax)

0000000000009410 <__stack_chk_fail>:
    9410:	48 83 ec 08          	sub    $0x8,%rsp
    9414:	e8 17 49 00 00       	callq  dd30 <abort>
    9419:	0f 1f 80 00 00 00 00 	nopl   0x0(%rax)

0000000000009420 <__stack_chk_fail_local>:
    9420:	48 83 ec 08          	sub    $0x8,%rsp
    9424:	e8 07 49 00 00       	callq  dd30 <abort>
    9429:	0f 1f 80 00 00 00 00 	nopl   0x0(%rax)

0000000000009430 <__intel_security_check_cookie>:
    9430:	48 39 3d e1 89 00 00 	cmp    %rdi,0x89e1(%rip)        # 11e18 <__intel_security_cookie>
    9437:	75 02                	jne    943b <__intel_security_check_cookie+0xb>
    9439:	f3 c3                	repz retq 
    943b:	48 83 ec 08          	sub    $0x8,%rsp
    943f:	e8 ec 48 00 00       	callq  dd30 <abort>
    9444:	66 2e 0f 1f 84 00 00 	nopw   %cs:0x0(%rax,%rax,1)
    944b:	00 00 00 
    944e:	66 90                	xchg   %ax,%ax

0000000000009450 <init_mparams>:
    9450:	48 83 ec 18          	sub    $0x18,%rsp
    9454:	64 48 8b 04 25 28 00 	mov    %fs:0x28,%rax
    945b:	00 00 
    945d:	48 89 44 24 08       	mov    %rax,0x8(%rsp)
    9462:	31 c0                	xor    %eax,%eax
    9464:	b8 01 00 00 00       	mov    $0x1,%eax
    9469:	87 05 a1 90 00 00    	xchg   %eax,0x90a1(%rip)        # 12510 <malloc_global_mutex>
    946f:	85 c0                	test   %eax,%eax
    9471:	74 1f                	je     9492 <init_mparams+0x42>
    9473:	48 8d 15 96 90 00 00 	lea    0x9096(%rip),%rdx        # 12510 <malloc_global_mutex>
    947a:	b9 01 00 00 00       	mov    $0x1,%ecx
    947f:	90                   	nop
    9480:	8b 02                	mov    (%rdx),%eax
    9482:	85 c0                	test   %eax,%eax
    9484:	75 fa                	jne    9480 <init_mparams+0x30>
    9486:	89 c8                	mov    %ecx,%eax
    9488:	87 05 82 90 00 00    	xchg   %eax,0x9082(%rip)        # 12510 <malloc_global_mutex>
    948e:	85 c0                	test   %eax,%eax
    9490:	75 ee                	jne    9480 <init_mparams+0x30>
    9492:	48 83 3d 46 90 00 00 	cmpq   $0x0,0x9046(%rip)        # 124e0 <mparams>
    9499:	00 
    949a:	75 6b                	jne    9507 <init_mparams+0xb7>
    949c:	48 89 e7             	mov    %rsp,%rdi
    949f:	be 08 00 00 00       	mov    $0x8,%esi
    94a4:	48 c7 05 41 90 00 00 	movq   $0x1000,0x9041(%rip)        # 124f0 <mparams+0x10>
    94ab:	00 10 00 00 
    94af:	48 c7 05 2e 90 00 00 	movq   $0x1000,0x902e(%rip)        # 124e8 <mparams+0x8>
    94b6:	00 10 00 00 
    94ba:	48 c7 05 33 90 00 00 	movq   $0xffffffffffffffff,0x9033(%rip)        # 124f8 <mparams+0x18>
    94c1:	ff ff ff ff 
    94c5:	48 c7 05 30 90 00 00 	movq   $0x200000,0x9030(%rip)        # 12500 <mparams+0x20>
    94cc:	00 00 20 00 
    94d0:	c7 05 2e 90 00 00 02 	movl   $0x2,0x902e(%rip)        # 12508 <mparams+0x28>
    94d7:	00 00 00 
    94da:	48 c7 05 ab 8f 00 00 	movq   $0x2,0x8fab(%rip)        # 12490 <_gm_+0x370>
    94e1:	02 00 00 00 
    94e5:	e8 86 cf ff ff       	callq  6470 <sgx_read_rand>
    94ea:	85 c0                	test   %eax,%eax
    94ec:	75 3d                	jne    952b <init_mparams+0xdb>
    94ee:	48 8b 04 24          	mov    (%rsp),%rax
    94f2:	48 35 55 55 55 55    	xor    $0x55555555,%rax
    94f8:	48 83 e0 f8          	and    $0xfffffffffffffff8,%rax
    94fc:	48 83 c8 08          	or     $0x8,%rax
    9500:	48 89 05 d9 8f 00 00 	mov    %rax,0x8fd9(%rip)        # 124e0 <mparams>
    9507:	c7 05 ff 8f 00 00 00 	movl   $0x0,0x8fff(%rip)        # 12510 <malloc_global_mutex>
    950e:	00 00 00 
    9511:	b8 01 00 00 00       	mov    $0x1,%eax
    9516:	48 8b 74 24 08       	mov    0x8(%rsp),%rsi
    951b:	64 48 33 34 25 28 00 	xor    %fs:0x28,%rsi
    9522:	00 00 
    9524:	75 0a                	jne    9530 <init_mparams+0xe0>
    9526:	48 83 c4 18          	add    $0x18,%rsp
    952a:	c3                   	retq   
    952b:	e8 00 48 00 00       	callq  dd30 <abort>
    9530:	e8 db fe ff ff       	callq  9410 <__stack_chk_fail>
    9535:	66 2e 0f 1f 84 00 00 	nopw   %cs:0x0(%rax,%rax,1)
    953c:	00 00 00 
    953f:	90                   	nop

0000000000009540 <dispose_chunk>:
    9540:	55                   	push   %rbp
    9541:	53                   	push   %rbx
    9542:	48 8d 04 16          	lea    (%rsi,%rdx,1),%rax
    9546:	48 83 ec 08          	sub    $0x8,%rsp
    954a:	48 8b 4e 08          	mov    0x8(%rsi),%rcx
    954e:	f6 c1 01             	test   $0x1,%cl
    9551:	75 6d                	jne    95c0 <dispose_chunk+0x80>
    9553:	83 e1 03             	and    $0x3,%ecx
    9556:	0f 84 db 00 00 00    	je     9637 <dispose_chunk+0xf7>
    955c:	48 8b 0e             	mov    (%rsi),%rcx
    955f:	4c 8b 4f 18          	mov    0x18(%rdi),%r9
    9563:	48 29 ce             	sub    %rcx,%rsi
    9566:	48 01 ca             	add    %rcx,%rdx
    9569:	49 39 f1             	cmp    %rsi,%r9
    956c:	0f 87 ee 02 00 00    	ja     9860 <dispose_chunk+0x320>
    9572:	48 39 77 20          	cmp    %rsi,0x20(%rdi)
    9576:	0f 84 6c 02 00 00    	je     97e8 <dispose_chunk+0x2a8>
    957c:	48 c1 e9 03          	shr    $0x3,%rcx
    9580:	4c 8b 46 18          	mov    0x18(%rsi),%r8
    9584:	48 83 f9 1f          	cmp    $0x1f,%rcx
    9588:	0f 87 b2 02 00 00    	ja     9840 <dispose_chunk+0x300>
    958e:	44 8d 1c 09          	lea    (%rcx,%rcx,1),%r11d
    9592:	4c 8b 56 10          	mov    0x10(%rsi),%r10
    9596:	4e 8d 5c df 48       	lea    0x48(%rdi,%r11,8),%r11
    959b:	4d 39 d3             	cmp    %r10,%r11
    959e:	0f 85 fc 05 00 00    	jne    9ba0 <dispose_chunk+0x660>
    95a4:	4d 39 d0             	cmp    %r10,%r8
    95a7:	0f 84 2b 05 00 00    	je     9ad8 <dispose_chunk+0x598>
    95ad:	4d 39 c3             	cmp    %r8,%r11
    95b0:	0f 85 56 06 00 00    	jne    9c0c <dispose_chunk+0x6cc>
    95b6:	4d 89 42 18          	mov    %r8,0x18(%r10)
    95ba:	4d 89 50 10          	mov    %r10,0x10(%r8)
    95be:	eb 04                	jmp    95c4 <dispose_chunk+0x84>
    95c0:	4c 8b 4f 18          	mov    0x18(%rdi),%r9
    95c4:	49 39 c1             	cmp    %rax,%r9
    95c7:	0f 87 93 02 00 00    	ja     9860 <dispose_chunk+0x320>
    95cd:	48 8b 48 08          	mov    0x8(%rax),%rcx
    95d1:	f6 c1 02             	test   $0x2,%cl
    95d4:	74 6a                	je     9640 <dispose_chunk+0x100>
    95d6:	48 83 e1 fe          	and    $0xfffffffffffffffe,%rcx
    95da:	48 89 48 08          	mov    %rcx,0x8(%rax)
    95de:	48 89 d0             	mov    %rdx,%rax
    95e1:	48 83 c8 01          	or     $0x1,%rax
    95e5:	48 89 46 08          	mov    %rax,0x8(%rsi)
    95e9:	48 89 14 16          	mov    %rdx,(%rsi,%rdx,1)
    95ed:	48 89 d1             	mov    %rdx,%rcx
    95f0:	48 c1 e9 03          	shr    $0x3,%rcx
    95f4:	48 83 f9 1f          	cmp    $0x1f,%rcx
    95f8:	0f 87 c2 00 00 00    	ja     96c0 <dispose_chunk+0x180>
    95fe:	8d 04 09             	lea    (%rcx,%rcx,1),%eax
    9601:	44 8b 07             	mov    (%rdi),%r8d
    9604:	48 8d 54 c7 48       	lea    0x48(%rdi,%rax,8),%rdx
    9609:	b8 01 00 00 00       	mov    $0x1,%eax
    960e:	d3 e0                	shl    %cl,%eax
    9610:	41 85 c0             	test   %eax,%r8d
    9613:	0f 84 a7 01 00 00    	je     97c0 <dispose_chunk+0x280>
    9619:	48 8b 42 10          	mov    0x10(%rdx),%rax
    961d:	48 3b 47 18          	cmp    0x18(%rdi),%rax
    9621:	0f 82 39 02 00 00    	jb     9860 <dispose_chunk+0x320>
    9627:	48 89 72 10          	mov    %rsi,0x10(%rdx)
    962b:	48 89 70 18          	mov    %rsi,0x18(%rax)
    962f:	48 89 46 10          	mov    %rax,0x10(%rsi)
    9633:	48 89 56 18          	mov    %rdx,0x18(%rsi)
    9637:	48 83 c4 08          	add    $0x8,%rsp
    963b:	5b                   	pop    %rbx
    963c:	5d                   	pop    %rbp
    963d:	c3                   	retq   
    963e:	66 90                	xchg   %ax,%ax
    9640:	48 39 47 28          	cmp    %rax,0x28(%rdi)
    9644:	4c 8b 5f 20          	mov    0x20(%rdi),%r11
    9648:	0f 84 42 02 00 00    	je     9890 <dispose_chunk+0x350>
    964e:	49 39 c3             	cmp    %rax,%r11
    9651:	0f 84 c9 01 00 00    	je     9820 <dispose_chunk+0x2e0>
    9657:	48 83 e1 f8          	and    $0xfffffffffffffff8,%rcx
    965b:	4c 8b 40 18          	mov    0x18(%rax),%r8
    965f:	48 01 ca             	add    %rcx,%rdx
    9662:	48 c1 e9 03          	shr    $0x3,%rcx
    9666:	48 83 f9 1f          	cmp    $0x1f,%rcx
    966a:	0f 87 58 02 00 00    	ja     98c8 <dispose_chunk+0x388>
    9670:	8d 1c 09             	lea    (%rcx,%rcx,1),%ebx
    9673:	4c 8b 50 10          	mov    0x10(%rax),%r10
    9677:	48 8d 5c df 48       	lea    0x48(%rdi,%rbx,8),%rbx
    967c:	4c 39 d3             	cmp    %r10,%rbx
    967f:	0f 85 44 05 00 00    	jne    9bc9 <dispose_chunk+0x689>
    9685:	4d 39 d0             	cmp    %r10,%r8
    9688:	0f 84 b2 04 00 00    	je     9b40 <dispose_chunk+0x600>
    968e:	4c 39 c3             	cmp    %r8,%rbx
    9691:	0f 85 d6 03 00 00    	jne    9a6d <dispose_chunk+0x52d>
    9697:	4d 89 42 18          	mov    %r8,0x18(%r10)
    969b:	4d 89 50 10          	mov    %r10,0x10(%r8)
    969f:	48 89 d0             	mov    %rdx,%rax
    96a2:	48 83 c8 01          	or     $0x1,%rax
    96a6:	4c 39 de             	cmp    %r11,%rsi
    96a9:	48 89 46 08          	mov    %rax,0x8(%rsi)
    96ad:	48 89 14 16          	mov    %rdx,(%rsi,%rdx,1)
    96b1:	0f 85 36 ff ff ff    	jne    95ed <dispose_chunk+0xad>
    96b7:	48 89 57 08          	mov    %rdx,0x8(%rdi)
    96bb:	e9 77 ff ff ff       	jmpq   9637 <dispose_chunk+0xf7>
    96c0:	48 89 d0             	mov    %rdx,%rax
    96c3:	48 c1 e8 08          	shr    $0x8,%rax
    96c7:	85 c0                	test   %eax,%eax
    96c9:	0f 84 01 01 00 00    	je     97d0 <dispose_chunk+0x290>
    96cf:	3d ff ff 00 00       	cmp    $0xffff,%eax
    96d4:	0f 87 d6 02 00 00    	ja     99b0 <dispose_chunk+0x470>
    96da:	0f bd c0             	bsr    %eax,%eax
    96dd:	b9 26 00 00 00       	mov    $0x26,%ecx
    96e2:	48 89 d3             	mov    %rdx,%rbx
    96e5:	83 f0 1f             	xor    $0x1f,%eax
    96e8:	41 b8 1f 00 00 00    	mov    $0x1f,%r8d
    96ee:	29 c1                	sub    %eax,%ecx
    96f0:	41 29 c0             	sub    %eax,%r8d
    96f3:	b8 01 00 00 00       	mov    $0x1,%eax
    96f8:	48 d3 eb             	shr    %cl,%rbx
    96fb:	48 89 d9             	mov    %rbx,%rcx
    96fe:	83 e1 01             	and    $0x1,%ecx
    9701:	46 8d 1c 41          	lea    (%rcx,%r8,2),%r11d
    9705:	4c 89 d9             	mov    %r11,%rcx
    9708:	4e 8d 14 dd 58 02 00 	lea    0x258(,%r11,8),%r10
    970f:	00 
    9710:	d3 e0                	shl    %cl,%eax
    9712:	44 8b 47 04          	mov    0x4(%rdi),%r8d
    9716:	89 4e 38             	mov    %ecx,0x38(%rsi)
    9719:	48 c7 46 28 00 00 00 	movq   $0x0,0x28(%rsi)
    9720:	00 
    9721:	48 c7 46 20 00 00 00 	movq   $0x0,0x20(%rsi)
    9728:	00 
    9729:	44 85 c0             	test   %r8d,%eax
    972c:	0f 84 36 01 00 00    	je     9868 <dispose_chunk+0x328>
    9732:	83 f9 1f             	cmp    $0x1f,%ecx
    9735:	4e 8b 84 df 58 02 00 	mov    0x258(%rdi,%r11,8),%r8
    973c:	00 
    973d:	49 89 d2             	mov    %rdx,%r10
    9740:	74 34                	je     9776 <dispose_chunk+0x236>
    9742:	d1 e9                	shr    %ecx
    9744:	b8 39 00 00 00       	mov    $0x39,%eax
    9749:	29 c8                	sub    %ecx,%eax
    974b:	89 c1                	mov    %eax,%ecx
    974d:	49 d3 e2             	shl    %cl,%r10
    9750:	eb 24                	jmp    9776 <dispose_chunk+0x236>
    9752:	66 0f 1f 44 00 00    	nopw   0x0(%rax,%rax,1)
    9758:	4c 89 d0             	mov    %r10,%rax
    975b:	4d 01 d2             	add    %r10,%r10
    975e:	48 c1 e8 3f          	shr    $0x3f,%rax
    9762:	48 83 c0 04          	add    $0x4,%rax
    9766:	49 8b 0c c0          	mov    (%r8,%rax,8),%rcx
    976a:	48 85 c9             	test   %rcx,%rcx
    976d:	0f 84 15 02 00 00    	je     9988 <dispose_chunk+0x448>
    9773:	49 89 c8             	mov    %rcx,%r8
    9776:	49 8b 40 08          	mov    0x8(%r8),%rax
    977a:	48 83 e0 f8          	and    $0xfffffffffffffff8,%rax
    977e:	48 39 d0             	cmp    %rdx,%rax
    9781:	75 d5                	jne    9758 <dispose_chunk+0x218>
    9783:	4d 39 c1             	cmp    %r8,%r9
    9786:	49 8b 40 10          	mov    0x10(%r8),%rax
    978a:	0f 87 d0 00 00 00    	ja     9860 <dispose_chunk+0x320>
    9790:	49 39 c1             	cmp    %rax,%r9
    9793:	0f 87 c7 00 00 00    	ja     9860 <dispose_chunk+0x320>
    9799:	48 89 70 18          	mov    %rsi,0x18(%rax)
    979d:	49 89 70 10          	mov    %rsi,0x10(%r8)
    97a1:	48 89 46 10          	mov    %rax,0x10(%rsi)
    97a5:	4c 89 46 18          	mov    %r8,0x18(%rsi)
    97a9:	48 c7 46 30 00 00 00 	movq   $0x0,0x30(%rsi)
    97b0:	00 
    97b1:	e9 81 fe ff ff       	jmpq   9637 <dispose_chunk+0xf7>
    97b6:	66 2e 0f 1f 84 00 00 	nopw   %cs:0x0(%rax,%rax,1)
    97bd:	00 00 00 
    97c0:	44 09 c0             	or     %r8d,%eax
    97c3:	89 07                	mov    %eax,(%rdi)
    97c5:	48 89 d0             	mov    %rdx,%rax
    97c8:	e9 5a fe ff ff       	jmpq   9627 <dispose_chunk+0xe7>
    97cd:	0f 1f 00             	nopl   (%rax)
    97d0:	b8 01 00 00 00       	mov    $0x1,%eax
    97d5:	41 ba 58 02 00 00    	mov    $0x258,%r10d
    97db:	31 c9                	xor    %ecx,%ecx
    97dd:	45 31 db             	xor    %r11d,%r11d
    97e0:	e9 2d ff ff ff       	jmpq   9712 <dispose_chunk+0x1d2>
    97e5:	0f 1f 00             	nopl   (%rax)
    97e8:	48 8b 48 08          	mov    0x8(%rax),%rcx
    97ec:	49 89 c8             	mov    %rcx,%r8
    97ef:	41 83 e0 03          	and    $0x3,%r8d
    97f3:	49 83 f8 03          	cmp    $0x3,%r8
    97f7:	0f 85 c7 fd ff ff    	jne    95c4 <dispose_chunk+0x84>
    97fd:	48 83 e1 fe          	and    $0xfffffffffffffffe,%rcx
    9801:	48 89 57 08          	mov    %rdx,0x8(%rdi)
    9805:	48 89 48 08          	mov    %rcx,0x8(%rax)
    9809:	48 89 d1             	mov    %rdx,%rcx
    980c:	48 83 c9 01          	or     $0x1,%rcx
    9810:	48 89 4e 08          	mov    %rcx,0x8(%rsi)
    9814:	48 89 10             	mov    %rdx,(%rax)
    9817:	e9 1b fe ff ff       	jmpq   9637 <dispose_chunk+0xf7>
    981c:	0f 1f 40 00          	nopl   0x0(%rax)
    9820:	48 03 57 08          	add    0x8(%rdi),%rdx
    9824:	48 89 77 20          	mov    %rsi,0x20(%rdi)
    9828:	48 89 d0             	mov    %rdx,%rax
    982b:	48 89 57 08          	mov    %rdx,0x8(%rdi)
    982f:	48 83 c8 01          	or     $0x1,%rax
    9833:	48 89 46 08          	mov    %rax,0x8(%rsi)
    9837:	48 89 14 16          	mov    %rdx,(%rsi,%rdx,1)
    983b:	e9 f7 fd ff ff       	jmpq   9637 <dispose_chunk+0xf7>
    9840:	49 39 f0             	cmp    %rsi,%r8
    9843:	48 8b 5e 30          	mov    0x30(%rsi),%rbx
    9847:	0f 84 3b 02 00 00    	je     9a88 <dispose_chunk+0x548>
    984d:	48 8b 4e 10          	mov    0x10(%rsi),%rcx
    9851:	49 39 c9             	cmp    %rcx,%r9
    9854:	77 0a                	ja     9860 <dispose_chunk+0x320>
    9856:	48 39 71 18          	cmp    %rsi,0x18(%rcx)
    985a:	0f 84 70 01 00 00    	je     99d0 <dispose_chunk+0x490>
    9860:	e8 cb 44 00 00       	callq  dd30 <abort>
    9865:	0f 1f 00             	nopl   (%rax)
    9868:	44 09 c0             	or     %r8d,%eax
    986b:	89 47 04             	mov    %eax,0x4(%rdi)
    986e:	4a 89 b4 df 58 02 00 	mov    %rsi,0x258(%rdi,%r11,8)
    9875:	00 
    9876:	4c 01 d7             	add    %r10,%rdi
    9879:	48 89 7e 30          	mov    %rdi,0x30(%rsi)
    987d:	48 89 76 18          	mov    %rsi,0x18(%rsi)
    9881:	48 89 76 10          	mov    %rsi,0x10(%rsi)
    9885:	e9 ad fd ff ff       	jmpq   9637 <dispose_chunk+0xf7>
    988a:	66 0f 1f 44 00 00    	nopw   0x0(%rax,%rax,1)
    9890:	48 03 57 10          	add    0x10(%rdi),%rdx
    9894:	48 89 77 28          	mov    %rsi,0x28(%rdi)
    9898:	48 89 57 10          	mov    %rdx,0x10(%rdi)
    989c:	48 83 ca 01          	or     $0x1,%rdx
    98a0:	4c 39 de             	cmp    %r11,%rsi
    98a3:	48 89 56 08          	mov    %rdx,0x8(%rsi)
    98a7:	0f 85 8a fd ff ff    	jne    9637 <dispose_chunk+0xf7>
    98ad:	48 c7 47 20 00 00 00 	movq   $0x0,0x20(%rdi)
    98b4:	00 
    98b5:	48 c7 47 08 00 00 00 	movq   $0x0,0x8(%rdi)
    98bc:	00 
    98bd:	e9 75 fd ff ff       	jmpq   9637 <dispose_chunk+0xf7>
    98c2:	66 0f 1f 44 00 00    	nopw   0x0(%rax,%rax,1)
    98c8:	49 39 c0             	cmp    %rax,%r8
    98cb:	48 8b 68 30          	mov    0x30(%rax),%rbp
    98cf:	0f 84 1b 02 00 00    	je     9af0 <dispose_chunk+0x5b0>
    98d5:	48 8b 48 10          	mov    0x10(%rax),%rcx
    98d9:	49 39 c9             	cmp    %rcx,%r9
    98dc:	77 82                	ja     9860 <dispose_chunk+0x320>
    98de:	48 39 41 18          	cmp    %rax,0x18(%rcx)
    98e2:	0f 85 78 ff ff ff    	jne    9860 <dispose_chunk+0x320>
    98e8:	49 39 40 10          	cmp    %rax,0x10(%r8)
    98ec:	0f 85 6e ff ff ff    	jne    9860 <dispose_chunk+0x320>
    98f2:	4c 89 41 18          	mov    %r8,0x18(%rcx)
    98f6:	49 89 48 10          	mov    %rcx,0x10(%r8)
    98fa:	48 85 ed             	test   %rbp,%rbp
    98fd:	0f 84 9c fd ff ff    	je     969f <dispose_chunk+0x15f>
    9903:	44 8b 50 38          	mov    0x38(%rax),%r10d
    9907:	4c 89 d1             	mov    %r10,%rcx
    990a:	4e 8d 14 d7          	lea    (%rdi,%r10,8),%r10
    990e:	49 39 82 58 02 00 00 	cmp    %rax,0x258(%r10)
    9915:	0f 84 5d 02 00 00    	je     9b78 <dispose_chunk+0x638>
    991b:	49 39 e9             	cmp    %rbp,%r9
    991e:	0f 87 3c ff ff ff    	ja     9860 <dispose_chunk+0x320>
    9924:	48 39 45 20          	cmp    %rax,0x20(%rbp)
    9928:	0f 84 92 02 00 00    	je     9bc0 <dispose_chunk+0x680>
    992e:	4c 89 45 28          	mov    %r8,0x28(%rbp)
    9932:	4d 85 c0             	test   %r8,%r8
    9935:	0f 84 64 fd ff ff    	je     969f <dispose_chunk+0x15f>
    993b:	4d 39 c8             	cmp    %r9,%r8
    993e:	0f 82 1c ff ff ff    	jb     9860 <dispose_chunk+0x320>
    9944:	48 8b 48 20          	mov    0x20(%rax),%rcx
    9948:	49 89 68 30          	mov    %rbp,0x30(%r8)
    994c:	48 85 c9             	test   %rcx,%rcx
    994f:	74 11                	je     9962 <dispose_chunk+0x422>
    9951:	49 39 c9             	cmp    %rcx,%r9
    9954:	0f 87 06 ff ff ff    	ja     9860 <dispose_chunk+0x320>
    995a:	49 89 48 20          	mov    %rcx,0x20(%r8)
    995e:	4c 89 41 30          	mov    %r8,0x30(%rcx)
    9962:	48 8b 40 28          	mov    0x28(%rax),%rax
    9966:	48 85 c0             	test   %rax,%rax
    9969:	0f 84 30 fd ff ff    	je     969f <dispose_chunk+0x15f>
    996f:	49 39 c1             	cmp    %rax,%r9
    9972:	0f 87 e8 fe ff ff    	ja     9860 <dispose_chunk+0x320>
    9978:	49 89 40 28          	mov    %rax,0x28(%r8)
    997c:	4c 89 40 30          	mov    %r8,0x30(%rax)
    9980:	e9 1a fd ff ff       	jmpq   969f <dispose_chunk+0x15f>
    9985:	0f 1f 00             	nopl   (%rax)
    9988:	49 8d 14 c0          	lea    (%r8,%rax,8),%rdx
    998c:	48 39 57 18          	cmp    %rdx,0x18(%rdi)
    9990:	0f 87 ca fe ff ff    	ja     9860 <dispose_chunk+0x320>
    9996:	49 89 34 c0          	mov    %rsi,(%r8,%rax,8)
    999a:	4c 89 46 30          	mov    %r8,0x30(%rsi)
    999e:	48 89 76 18          	mov    %rsi,0x18(%rsi)
    99a2:	48 89 76 10          	mov    %rsi,0x10(%rsi)
    99a6:	e9 8c fc ff ff       	jmpq   9637 <dispose_chunk+0xf7>
    99ab:	0f 1f 44 00 00       	nopl   0x0(%rax,%rax,1)
    99b0:	b8 00 00 00 80       	mov    $0x80000000,%eax
    99b5:	41 ba 50 03 00 00    	mov    $0x350,%r10d
    99bb:	b9 1f 00 00 00       	mov    $0x1f,%ecx
    99c0:	41 bb 1f 00 00 00    	mov    $0x1f,%r11d
    99c6:	e9 47 fd ff ff       	jmpq   9712 <dispose_chunk+0x1d2>
    99cb:	0f 1f 44 00 00       	nopl   0x0(%rax,%rax,1)
    99d0:	49 39 70 10          	cmp    %rsi,0x10(%r8)
    99d4:	0f 85 86 fe ff ff    	jne    9860 <dispose_chunk+0x320>
    99da:	4c 89 41 18          	mov    %r8,0x18(%rcx)
    99de:	49 89 48 10          	mov    %rcx,0x10(%r8)
    99e2:	48 85 db             	test   %rbx,%rbx
    99e5:	0f 84 d9 fb ff ff    	je     95c4 <dispose_chunk+0x84>
    99eb:	44 8b 56 38          	mov    0x38(%rsi),%r10d
    99ef:	4c 89 d1             	mov    %r10,%rcx
    99f2:	4e 8d 14 d7          	lea    (%rdi,%r10,8),%r10
    99f6:	49 39 b2 58 02 00 00 	cmp    %rsi,0x258(%r10)
    99fd:	0f 84 4d 01 00 00    	je     9b50 <dispose_chunk+0x610>
    9a03:	49 39 d9             	cmp    %rbx,%r9
    9a06:	0f 87 54 fe ff ff    	ja     9860 <dispose_chunk+0x320>
    9a0c:	48 39 73 20          	cmp    %rsi,0x20(%rbx)
    9a10:	0f 84 81 01 00 00    	je     9b97 <dispose_chunk+0x657>
    9a16:	4c 89 43 28          	mov    %r8,0x28(%rbx)
    9a1a:	4d 85 c0             	test   %r8,%r8
    9a1d:	0f 84 a1 fb ff ff    	je     95c4 <dispose_chunk+0x84>
    9a23:	4d 39 c1             	cmp    %r8,%r9
    9a26:	0f 87 34 fe ff ff    	ja     9860 <dispose_chunk+0x320>
    9a2c:	48 8b 4e 20          	mov    0x20(%rsi),%rcx
    9a30:	49 89 58 30          	mov    %rbx,0x30(%r8)
    9a34:	48 85 c9             	test   %rcx,%rcx
    9a37:	74 11                	je     9a4a <dispose_chunk+0x50a>
    9a39:	49 39 c9             	cmp    %rcx,%r9
    9a3c:	0f 87 1e fe ff ff    	ja     9860 <dispose_chunk+0x320>
    9a42:	49 89 48 20          	mov    %rcx,0x20(%r8)
    9a46:	4c 89 41 30          	mov    %r8,0x30(%rcx)
    9a4a:	48 8b 4e 28          	mov    0x28(%rsi),%rcx
    9a4e:	48 85 c9             	test   %rcx,%rcx
    9a51:	0f 84 6d fb ff ff    	je     95c4 <dispose_chunk+0x84>
    9a57:	49 39 c9             	cmp    %rcx,%r9
    9a5a:	0f 87 00 fe ff ff    	ja     9860 <dispose_chunk+0x320>
    9a60:	49 89 48 28          	mov    %rcx,0x28(%r8)
    9a64:	4c 89 41 30          	mov    %r8,0x30(%rcx)
    9a68:	e9 57 fb ff ff       	jmpq   95c4 <dispose_chunk+0x84>
    9a6d:	4d 39 c1             	cmp    %r8,%r9
    9a70:	0f 87 ea fd ff ff    	ja     9860 <dispose_chunk+0x320>
    9a76:	49 39 40 10          	cmp    %rax,0x10(%r8)
    9a7a:	0f 84 17 fc ff ff    	je     9697 <dispose_chunk+0x157>
    9a80:	e9 db fd ff ff       	jmpq   9860 <dispose_chunk+0x320>
    9a85:	0f 1f 00             	nopl   (%rax)
    9a88:	48 8b 4e 28          	mov    0x28(%rsi),%rcx
    9a8c:	4c 8d 56 28          	lea    0x28(%rsi),%r10
    9a90:	48 85 c9             	test   %rcx,%rcx
    9a93:	0f 84 4f 01 00 00    	je     9be8 <dispose_chunk+0x6a8>
    9a99:	0f 1f 80 00 00 00 00 	nopl   0x0(%rax)
    9aa0:	49 89 c8             	mov    %rcx,%r8
    9aa3:	48 8b 49 28          	mov    0x28(%rcx),%rcx
    9aa7:	4d 89 d3             	mov    %r10,%r11
    9aaa:	4d 8d 50 28          	lea    0x28(%r8),%r10
    9aae:	48 85 c9             	test   %rcx,%rcx
    9ab1:	75 ed                	jne    9aa0 <dispose_chunk+0x560>
    9ab3:	49 8b 48 20          	mov    0x20(%r8),%rcx
    9ab7:	4d 8d 50 20          	lea    0x20(%r8),%r10
    9abb:	48 85 c9             	test   %rcx,%rcx
    9abe:	75 e0                	jne    9aa0 <dispose_chunk+0x560>
    9ac0:	4d 39 d9             	cmp    %r11,%r9
    9ac3:	0f 87 97 fd ff ff    	ja     9860 <dispose_chunk+0x320>
    9ac9:	49 c7 03 00 00 00 00 	movq   $0x0,(%r11)
    9ad0:	e9 0d ff ff ff       	jmpq   99e2 <dispose_chunk+0x4a2>
    9ad5:	0f 1f 00             	nopl   (%rax)
    9ad8:	41 b8 fe ff ff ff    	mov    $0xfffffffe,%r8d
    9ade:	41 d3 c0             	rol    %cl,%r8d
    9ae1:	44 21 07             	and    %r8d,(%rdi)
    9ae4:	e9 db fa ff ff       	jmpq   95c4 <dispose_chunk+0x84>
    9ae9:	0f 1f 80 00 00 00 00 	nopl   0x0(%rax)
    9af0:	48 8b 48 28          	mov    0x28(%rax),%rcx
    9af4:	4c 8d 50 28          	lea    0x28(%rax),%r10
    9af8:	48 85 c9             	test   %rcx,%rcx
    9afb:	0f 84 f9 00 00 00    	je     9bfa <dispose_chunk+0x6ba>
    9b01:	0f 1f 80 00 00 00 00 	nopl   0x0(%rax)
    9b08:	49 89 c8             	mov    %rcx,%r8
    9b0b:	48 8b 49 28          	mov    0x28(%rcx),%rcx
    9b0f:	4c 89 d3             	mov    %r10,%rbx
    9b12:	4d 8d 50 28          	lea    0x28(%r8),%r10
    9b16:	48 85 c9             	test   %rcx,%rcx
    9b19:	75 ed                	jne    9b08 <dispose_chunk+0x5c8>
    9b1b:	49 8b 48 20          	mov    0x20(%r8),%rcx
    9b1f:	4d 8d 50 20          	lea    0x20(%r8),%r10
    9b23:	48 85 c9             	test   %rcx,%rcx
    9b26:	75 e0                	jne    9b08 <dispose_chunk+0x5c8>
    9b28:	49 39 d9             	cmp    %rbx,%r9
    9b2b:	0f 87 2f fd ff ff    	ja     9860 <dispose_chunk+0x320>
    9b31:	48 c7 03 00 00 00 00 	movq   $0x0,(%rbx)
    9b38:	e9 bd fd ff ff       	jmpq   98fa <dispose_chunk+0x3ba>
    9b3d:	0f 1f 00             	nopl   (%rax)
    9b40:	b8 fe ff ff ff       	mov    $0xfffffffe,%eax
    9b45:	d3 c0                	rol    %cl,%eax
    9b47:	21 07                	and    %eax,(%rdi)
    9b49:	e9 51 fb ff ff       	jmpq   969f <dispose_chunk+0x15f>
    9b4e:	66 90                	xchg   %ax,%ax
    9b50:	4d 85 c0             	test   %r8,%r8
    9b53:	4d 89 82 58 02 00 00 	mov    %r8,0x258(%r10)
    9b5a:	0f 85 c3 fe ff ff    	jne    9a23 <dispose_chunk+0x4e3>
    9b60:	41 b8 fe ff ff ff    	mov    $0xfffffffe,%r8d
    9b66:	41 d3 c0             	rol    %cl,%r8d
    9b69:	44 21 47 04          	and    %r8d,0x4(%rdi)
    9b6d:	e9 52 fa ff ff       	jmpq   95c4 <dispose_chunk+0x84>
    9b72:	66 0f 1f 44 00 00    	nopw   0x0(%rax,%rax,1)
    9b78:	4d 85 c0             	test   %r8,%r8
    9b7b:	4d 89 82 58 02 00 00 	mov    %r8,0x258(%r10)
    9b82:	0f 85 b3 fd ff ff    	jne    993b <dispose_chunk+0x3fb>
    9b88:	b8 fe ff ff ff       	mov    $0xfffffffe,%eax
    9b8d:	d3 c0                	rol    %cl,%eax
    9b8f:	21 47 04             	and    %eax,0x4(%rdi)
    9b92:	e9 08 fb ff ff       	jmpq   969f <dispose_chunk+0x15f>
    9b97:	4c 89 43 20          	mov    %r8,0x20(%rbx)
    9b9b:	e9 7a fe ff ff       	jmpq   9a1a <dispose_chunk+0x4da>
    9ba0:	4d 39 d1             	cmp    %r10,%r9
    9ba3:	0f 87 b7 fc ff ff    	ja     9860 <dispose_chunk+0x320>
    9ba9:	49 39 72 18          	cmp    %rsi,0x18(%r10)
    9bad:	0f 84 f1 f9 ff ff    	je     95a4 <dispose_chunk+0x64>
    9bb3:	e9 a8 fc ff ff       	jmpq   9860 <dispose_chunk+0x320>
    9bb8:	0f 1f 84 00 00 00 00 	nopl   0x0(%rax,%rax,1)
    9bbf:	00 
    9bc0:	4c 89 45 20          	mov    %r8,0x20(%rbp)
    9bc4:	e9 69 fd ff ff       	jmpq   9932 <dispose_chunk+0x3f2>
    9bc9:	4d 39 d1             	cmp    %r10,%r9
    9bcc:	0f 87 8e fc ff ff    	ja     9860 <dispose_chunk+0x320>
    9bd2:	49 39 42 18          	cmp    %rax,0x18(%r10)
    9bd6:	0f 84 a9 fa ff ff    	je     9685 <dispose_chunk+0x145>
    9bdc:	e9 7f fc ff ff       	jmpq   9860 <dispose_chunk+0x320>
    9be1:	0f 1f 80 00 00 00 00 	nopl   0x0(%rax)
    9be8:	48 8b 4e 20          	mov    0x20(%rsi),%rcx
    9bec:	48 85 c9             	test   %rcx,%rcx
    9bef:	74 33                	je     9c24 <dispose_chunk+0x6e4>
    9bf1:	4c 8d 56 20          	lea    0x20(%rsi),%r10
    9bf5:	e9 a6 fe ff ff       	jmpq   9aa0 <dispose_chunk+0x560>
    9bfa:	48 8b 48 20          	mov    0x20(%rax),%rcx
    9bfe:	48 85 c9             	test   %rcx,%rcx
    9c01:	74 55                	je     9c58 <dispose_chunk+0x718>
    9c03:	4c 8d 50 20          	lea    0x20(%rax),%r10
    9c07:	e9 fc fe ff ff       	jmpq   9b08 <dispose_chunk+0x5c8>
    9c0c:	4d 39 c1             	cmp    %r8,%r9
    9c0f:	0f 87 4b fc ff ff    	ja     9860 <dispose_chunk+0x320>
    9c15:	49 39 70 10          	cmp    %rsi,0x10(%r8)
    9c19:	0f 84 97 f9 ff ff    	je     95b6 <dispose_chunk+0x76>
    9c1f:	e9 3c fc ff ff       	jmpq   9860 <dispose_chunk+0x320>
    9c24:	48 85 db             	test   %rbx,%rbx
    9c27:	0f 84 97 f9 ff ff    	je     95c4 <dispose_chunk+0x84>
    9c2d:	45 8b 40 38          	mov    0x38(%r8),%r8d
    9c31:	4e 8d 14 c7          	lea    (%rdi,%r8,8),%r10
    9c35:	4c 89 c1             	mov    %r8,%rcx
    9c38:	45 31 c0             	xor    %r8d,%r8d
    9c3b:	49 39 b2 58 02 00 00 	cmp    %rsi,0x258(%r10)
    9c42:	0f 85 bb fd ff ff    	jne    9a03 <dispose_chunk+0x4c3>
    9c48:	49 c7 82 58 02 00 00 	movq   $0x0,0x258(%r10)
    9c4f:	00 00 00 00 
    9c53:	e9 08 ff ff ff       	jmpq   9b60 <dispose_chunk+0x620>
    9c58:	48 85 ed             	test   %rbp,%rbp
    9c5b:	0f 84 3e fa ff ff    	je     969f <dispose_chunk+0x15f>
    9c61:	44 8b 40 38          	mov    0x38(%rax),%r8d
    9c65:	4e 8d 14 c7          	lea    (%rdi,%r8,8),%r10
    9c69:	4c 89 c1             	mov    %r8,%rcx
    9c6c:	45 31 c0             	xor    %r8d,%r8d
    9c6f:	49 39 82 58 02 00 00 	cmp    %rax,0x258(%r10)
    9c76:	0f 85 9f fc ff ff    	jne    991b <dispose_chunk+0x3db>
    9c7c:	49 c7 82 58 02 00 00 	movq   $0x0,0x258(%r10)
    9c83:	00 00 00 00 
    9c87:	e9 fc fe ff ff       	jmpq   9b88 <dispose_chunk+0x648>
    9c8c:	0f 1f 40 00          	nopl   0x0(%rax)

0000000000009c90 <dlmalloc>:
    9c90:	41 57                	push   %r15
    9c92:	41 56                	push   %r14
    9c94:	41 55                	push   %r13
    9c96:	41 54                	push   %r12
    9c98:	49 89 fc             	mov    %rdi,%r12
    9c9b:	55                   	push   %rbp
    9c9c:	53                   	push   %rbx
    9c9d:	48 83 ec 18          	sub    $0x18,%rsp
    9ca1:	48 83 3d 37 88 00 00 	cmpq   $0x0,0x8837(%rip)        # 124e0 <mparams>
    9ca8:	00 
    9ca9:	0f 84 41 02 00 00    	je     9ef0 <dlmalloc+0x260>
    9caf:	f6 05 da 87 00 00 02 	testb  $0x2,0x87da(%rip)        # 12490 <_gm_+0x370>
    9cb6:	0f 85 fc 01 00 00    	jne    9eb8 <dlmalloc+0x228>
    9cbc:	49 81 fc e0 00 00 00 	cmp    $0xe0,%r12
    9cc3:	0f 87 f7 00 00 00    	ja     9dc0 <dlmalloc+0x130>
    9cc9:	49 83 fc 0e          	cmp    $0xe,%r12
    9ccd:	0f 87 cd 01 00 00    	ja     9ea0 <dlmalloc+0x210>
    9cd3:	b9 04 00 00 00       	mov    $0x4,%ecx
    9cd8:	bd 20 00 00 00       	mov    $0x20,%ebp
    9cdd:	8b 15 3d 84 00 00    	mov    0x843d(%rip),%edx        # 12120 <_gm_>
    9ce3:	4c 8d 2d 36 84 00 00 	lea    0x8436(%rip),%r13        # 12120 <_gm_>
    9cea:	89 d0                	mov    %edx,%eax
    9cec:	d3 e8                	shr    %cl,%eax
    9cee:	a8 03                	test   $0x3,%al
    9cf0:	0f 84 0a 02 00 00    	je     9f00 <dlmalloc+0x270>
    9cf6:	f7 d0                	not    %eax
    9cf8:	83 e0 01             	and    $0x1,%eax
    9cfb:	01 c1                	add    %eax,%ecx
    9cfd:	8d 04 09             	lea    (%rcx,%rcx,1),%eax
    9d00:	49 8d 74 c5 48       	lea    0x48(%r13,%rax,8),%rsi
    9d05:	48 8b 5e 10          	mov    0x10(%rsi),%rbx
    9d09:	48 8b 43 10          	mov    0x10(%rbx),%rax
    9d0d:	48 39 c6             	cmp    %rax,%rsi
    9d10:	0f 84 8a 06 00 00    	je     a3a0 <dlmalloc+0x710>
    9d16:	48 39 05 1b 84 00 00 	cmp    %rax,0x841b(%rip)        # 12138 <_gm_+0x18>
    9d1d:	0f 87 ad 06 00 00    	ja     a3d0 <dlmalloc+0x740>
    9d23:	48 39 58 18          	cmp    %rbx,0x18(%rax)
    9d27:	0f 85 a3 06 00 00    	jne    a3d0 <dlmalloc+0x740>
    9d2d:	48 89 70 18          	mov    %rsi,0x18(%rax)
    9d31:	48 89 46 10          	mov    %rax,0x10(%rsi)
    9d35:	c1 e1 03             	shl    $0x3,%ecx
    9d38:	4c 33 2d a1 87 00 00 	xor    0x87a1(%rip),%r13        # 124e0 <mparams>
    9d3f:	89 c8                	mov    %ecx,%eax
    9d41:	83 c8 03             	or     $0x3,%eax
    9d44:	48 89 43 08          	mov    %rax,0x8(%rbx)
    9d48:	48 8d 04 0b          	lea    (%rbx,%rcx,1),%rax
    9d4c:	48 83 c3 10          	add    $0x10,%rbx
    9d50:	48 83 48 08 01       	orq    $0x1,0x8(%rax)
    9d55:	48 85 db             	test   %rbx,%rbx
    9d58:	4c 89 28             	mov    %r13,(%rax)
    9d5b:	0f 84 37 01 00 00    	je     9e98 <dlmalloc+0x208>
    9d61:	e8 4a e1 ff ff       	callq  7eb0 <get_heap_base>
    9d66:	48 39 d8             	cmp    %rbx,%rax
    9d69:	0f 87 61 06 00 00    	ja     a3d0 <dlmalloc+0x740>
    9d6f:	48 89 d8             	mov    %rbx,%rax
    9d72:	48 f7 d0             	not    %rax
    9d75:	4c 39 e0             	cmp    %r12,%rax
    9d78:	0f 82 52 06 00 00    	jb     a3d0 <dlmalloc+0x740>
    9d7e:	31 ff                	xor    %edi,%edi
    9d80:	49 01 dc             	add    %rbx,%r12
    9d83:	e8 08 2f 00 00       	callq  cc90 <sbrk>
    9d88:	4c 39 e0             	cmp    %r12,%rax
    9d8b:	0f 82 3f 06 00 00    	jb     a3d0 <dlmalloc+0x740>
    9d91:	f6 05 f8 86 00 00 02 	testb  $0x2,0x86f8(%rip)        # 12490 <_gm_+0x370>
    9d98:	74 0a                	je     9da4 <dlmalloc+0x114>
    9d9a:	c7 05 f0 86 00 00 00 	movl   $0x0,0x86f0(%rip)        # 12494 <_gm_+0x374>
    9da1:	00 00 00 
    9da4:	48 83 c4 18          	add    $0x18,%rsp
    9da8:	48 89 d8             	mov    %rbx,%rax
    9dab:	5b                   	pop    %rbx
    9dac:	5d                   	pop    %rbp
    9dad:	41 5c                	pop    %r12
    9daf:	41 5d                	pop    %r13
    9db1:	41 5e                	pop    %r14
    9db3:	41 5f                	pop    %r15
    9db5:	c3                   	retq   
    9db6:	66 2e 0f 1f 84 00 00 	nopw   %cs:0x0(%rax,%rax,1)
    9dbd:	00 00 00 
    9dc0:	48 8b 35 61 83 00 00 	mov    0x8361(%rip),%rsi        # 12128 <_gm_+0x8>
    9dc7:	49 81 fc 7f ff ff ff 	cmp    $0xffffffffffffff7f,%r12
    9dce:	4c 8d 2d 4b 83 00 00 	lea    0x834b(%rip),%r13        # 12120 <_gm_>
    9dd5:	48 89 f7             	mov    %rsi,%rdi
    9dd8:	76 46                	jbe    9e20 <dlmalloc+0x190>
    9dda:	48 83 fe ff          	cmp    $0xffffffffffffffff,%rsi
    9dde:	48 8b 05 fb 86 00 00 	mov    0x86fb(%rip),%rax        # 124e0 <mparams>
    9de5:	0f 85 35 02 00 00    	jne    a020 <dlmalloc+0x390>
    9deb:	48 8b 1d 4e 83 00 00 	mov    0x834e(%rip),%rbx        # 12140 <_gm_+0x20>
    9df2:	48 8d 14 33          	lea    (%rbx,%rsi,1),%rdx
    9df6:	49 31 c5             	xor    %rax,%r13
    9df9:	48 c7 05 24 83 00 00 	movq   $0x0,0x8324(%rip)        # 12128 <_gm_+0x8>
    9e00:	00 00 00 00 
    9e04:	48 c7 05 31 83 00 00 	movq   $0x0,0x8331(%rip)        # 12140 <_gm_+0x20>
    9e0b:	00 00 00 00 
    9e0f:	48 89 73 08          	mov    %rsi,0x8(%rbx)
    9e13:	4c 89 2a             	mov    %r13,(%rdx)
    9e16:	48 83 4a 08 01       	orq    $0x1,0x8(%rdx)
    9e1b:	eb 6e                	jmp    9e8b <dlmalloc+0x1fb>
    9e1d:	0f 1f 00             	nopl   (%rax)
    9e20:	44 8b 05 fd 82 00 00 	mov    0x82fd(%rip),%r8d        # 12124 <_gm_+0x4>
    9e27:	49 8d 6c 24 1f       	lea    0x1f(%r12),%rbp
    9e2c:	48 83 e5 f0          	and    $0xfffffffffffffff0,%rbp
    9e30:	45 85 c0             	test   %r8d,%r8d
    9e33:	0f 85 47 03 00 00    	jne    a180 <dlmalloc+0x4f0>
    9e39:	48 39 fd             	cmp    %rdi,%rbp
    9e3c:	0f 86 7e 01 00 00    	jbe    9fc0 <dlmalloc+0x330>
    9e42:	48 8b 05 e7 82 00 00 	mov    0x82e7(%rip),%rax        # 12130 <_gm_+0x10>
    9e49:	48 8b 15 90 86 00 00 	mov    0x8690(%rip),%rdx        # 124e0 <mparams>
    9e50:	48 39 e8             	cmp    %rbp,%rax
    9e53:	0f 86 6e 17 00 00    	jbe    b5c7 <dlmalloc+0x1937>
    9e59:	48 8b 1d e8 82 00 00 	mov    0x82e8(%rip),%rbx        # 12148 <_gm_+0x28>
    9e60:	48 29 e8             	sub    %rbp,%rax
    9e63:	49 31 d5             	xor    %rdx,%r13
    9e66:	48 89 05 c3 82 00 00 	mov    %rax,0x82c3(%rip)        # 12130 <_gm_+0x10>
    9e6d:	48 83 c8 01          	or     $0x1,%rax
    9e71:	48 8d 0c 2b          	lea    (%rbx,%rbp,1),%rcx
    9e75:	48 83 cd 03          	or     $0x3,%rbp
    9e79:	48 89 0d c8 82 00 00 	mov    %rcx,0x82c8(%rip)        # 12148 <_gm_+0x28>
    9e80:	48 89 41 08          	mov    %rax,0x8(%rcx)
    9e84:	48 89 6b 08          	mov    %rbp,0x8(%rbx)
    9e88:	4c 89 29             	mov    %r13,(%rcx)
    9e8b:	48 83 c3 10          	add    $0x10,%rbx
    9e8f:	48 85 db             	test   %rbx,%rbx
    9e92:	0f 85 c9 fe ff ff    	jne    9d61 <dlmalloc+0xd1>
    9e98:	31 db                	xor    %ebx,%ebx
    9e9a:	e9 f2 fe ff ff       	jmpq   9d91 <dlmalloc+0x101>
    9e9f:	90                   	nop
    9ea0:	49 8d 6c 24 1f       	lea    0x1f(%r12),%rbp
    9ea5:	48 83 e5 f0          	and    $0xfffffffffffffff0,%rbp
    9ea9:	48 89 e9             	mov    %rbp,%rcx
    9eac:	48 c1 e9 03          	shr    $0x3,%rcx
    9eb0:	e9 28 fe ff ff       	jmpq   9cdd <dlmalloc+0x4d>
    9eb5:	0f 1f 00             	nopl   (%rax)
    9eb8:	b8 01 00 00 00       	mov    $0x1,%eax
    9ebd:	87 05 d1 85 00 00    	xchg   %eax,0x85d1(%rip)        # 12494 <_gm_+0x374>
    9ec3:	85 c0                	test   %eax,%eax
    9ec5:	0f 84 f1 fd ff ff    	je     9cbc <dlmalloc+0x2c>
    9ecb:	ba 01 00 00 00       	mov    $0x1,%edx
    9ed0:	8b 05 be 85 00 00    	mov    0x85be(%rip),%eax        # 12494 <_gm_+0x374>
    9ed6:	85 c0                	test   %eax,%eax
    9ed8:	75 f6                	jne    9ed0 <dlmalloc+0x240>
    9eda:	89 d0                	mov    %edx,%eax
    9edc:	87 05 b2 85 00 00    	xchg   %eax,0x85b2(%rip)        # 12494 <_gm_+0x374>
    9ee2:	85 c0                	test   %eax,%eax
    9ee4:	75 ea                	jne    9ed0 <dlmalloc+0x240>
    9ee6:	e9 d1 fd ff ff       	jmpq   9cbc <dlmalloc+0x2c>
    9eeb:	0f 1f 44 00 00       	nopl   0x0(%rax,%rax,1)
    9ef0:	e8 5b f5 ff ff       	callq  9450 <init_mparams>
    9ef5:	e9 b5 fd ff ff       	jmpq   9caf <dlmalloc+0x1f>
    9efa:	66 0f 1f 44 00 00    	nopw   0x0(%rax,%rax,1)
    9f00:	48 8b 35 21 82 00 00 	mov    0x8221(%rip),%rsi        # 12128 <_gm_+0x8>
    9f07:	48 39 ee             	cmp    %rbp,%rsi
    9f0a:	48 89 f7             	mov    %rsi,%rdi
    9f0d:	0f 83 ad 00 00 00    	jae    9fc0 <dlmalloc+0x330>
    9f13:	85 c0                	test   %eax,%eax
    9f15:	0f 84 ba 04 00 00    	je     a3d5 <dlmalloc+0x745>
    9f1b:	bf 01 00 00 00       	mov    $0x1,%edi
    9f20:	d3 e0                	shl    %cl,%eax
    9f22:	41 89 f8             	mov    %edi,%r8d
    9f25:	41 d3 e0             	shl    %cl,%r8d
    9f28:	47 8d 0c 00          	lea    (%r8,%r8,1),%r9d
    9f2c:	45 89 c8             	mov    %r9d,%r8d
    9f2f:	41 f7 d8             	neg    %r8d
    9f32:	45 09 c8             	or     %r9d,%r8d
    9f35:	44 21 c0             	and    %r8d,%eax
    9f38:	89 c1                	mov    %eax,%ecx
    9f3a:	f7 d9                	neg    %ecx
    9f3c:	21 c8                	and    %ecx,%eax
    9f3e:	31 c9                	xor    %ecx,%ecx
    9f40:	f3 0f bc c8          	tzcnt  %eax,%ecx
    9f44:	8d 04 09             	lea    (%rcx,%rcx,1),%eax
    9f47:	4d 8d 44 c5 48       	lea    0x48(%r13,%rax,8),%r8
    9f4c:	49 8b 58 10          	mov    0x10(%r8),%rbx
    9f50:	48 8b 43 10          	mov    0x10(%rbx),%rax
    9f54:	49 39 c0             	cmp    %rax,%r8
    9f57:	0f 84 74 06 00 00    	je     a5d1 <dlmalloc+0x941>
    9f5d:	48 39 05 d4 81 00 00 	cmp    %rax,0x81d4(%rip)        # 12138 <_gm_+0x18>
    9f64:	0f 87 66 04 00 00    	ja     a3d0 <dlmalloc+0x740>
    9f6a:	48 39 58 18          	cmp    %rbx,0x18(%rax)
    9f6e:	0f 85 5c 04 00 00    	jne    a3d0 <dlmalloc+0x740>
    9f74:	4c 89 40 18          	mov    %r8,0x18(%rax)
    9f78:	49 89 40 10          	mov    %rax,0x10(%r8)
    9f7c:	8d 04 cd 00 00 00 00 	lea    0x0(,%rcx,8),%eax
    9f83:	48 8b 3d 56 85 00 00 	mov    0x8556(%rip),%rdi        # 124e0 <mparams>
    9f8a:	48 89 c2             	mov    %rax,%rdx
    9f8d:	48 89 c1             	mov    %rax,%rcx
    9f90:	48 01 d8             	add    %rbx,%rax
    9f93:	48 29 ea             	sub    %rbp,%rdx
    9f96:	4c 31 ef             	xor    %r13,%rdi
    9f99:	48 83 fa 1f          	cmp    $0x1f,%rdx
    9f9d:	0f 87 7b 0b 00 00    	ja     ab1e <dlmalloc+0xe8e>
    9fa3:	83 c9 03             	or     $0x3,%ecx
    9fa6:	89 ce                	mov    %ecx,%esi
    9fa8:	48 89 73 08          	mov    %rsi,0x8(%rbx)
    9fac:	48 89 38             	mov    %rdi,(%rax)
    9faf:	48 83 48 08 01       	orq    $0x1,0x8(%rax)
    9fb4:	e9 d2 fe ff ff       	jmpq   9e8b <dlmalloc+0x1fb>
    9fb9:	0f 1f 80 00 00 00 00 	nopl   0x0(%rax)
    9fc0:	48 8b 05 19 85 00 00 	mov    0x8519(%rip),%rax        # 124e0 <mparams>
    9fc7:	48 89 f9             	mov    %rdi,%rcx
    9fca:	48 8b 1d 6f 81 00 00 	mov    0x816f(%rip),%rbx        # 12140 <_gm_+0x20>
    9fd1:	48 29 e9             	sub    %rbp,%rcx
    9fd4:	4c 89 ee             	mov    %r13,%rsi
    9fd7:	48 31 c6             	xor    %rax,%rsi
    9fda:	48 83 f9 1f          	cmp    $0x1f,%rcx
    9fde:	48 8d 14 3b          	lea    (%rbx,%rdi,1),%rdx
    9fe2:	0f 86 d3 15 00 00    	jbe    b5bb <dlmalloc+0x192b>
    9fe8:	48 8d 04 2b          	lea    (%rbx,%rbp,1),%rax
    9fec:	48 89 cf             	mov    %rcx,%rdi
    9fef:	48 83 cd 03          	or     $0x3,%rbp
    9ff3:	48 83 cf 01          	or     $0x1,%rdi
    9ff7:	48 89 0d 2a 81 00 00 	mov    %rcx,0x812a(%rip)        # 12128 <_gm_+0x8>
    9ffe:	48 89 05 3b 81 00 00 	mov    %rax,0x813b(%rip)        # 12140 <_gm_+0x20>
    a005:	48 89 78 08          	mov    %rdi,0x8(%rax)
    a009:	48 89 0a             	mov    %rcx,(%rdx)
    a00c:	48 89 6b 08          	mov    %rbp,0x8(%rbx)
    a010:	48 89 30             	mov    %rsi,(%rax)
    a013:	e9 73 fe ff ff       	jmpq   9e8b <dlmalloc+0x1fb>
    a018:	0f 1f 84 00 00 00 00 	nopl   0x0(%rax,%rax,1)
    a01f:	00 
    a020:	48 85 c0             	test   %rax,%rax
    a023:	48 c7 c5 ff ff ff ff 	mov    $0xffffffffffffffff,%rbp
    a02a:	0f 85 68 fe ff ff    	jne    9e98 <dlmalloc+0x208>
    a030:	e8 1b f4 ff ff       	callq  9450 <init_mparams>
    a035:	48 8b 05 b4 84 00 00 	mov    0x84b4(%rip),%rax        # 124f0 <mparams+0x10>
    a03c:	48 8d 4c 05 5f       	lea    0x5f(%rbp,%rax,1),%rcx
    a041:	48 f7 d8             	neg    %rax
    a044:	48 21 c1             	and    %rax,%rcx
    a047:	48 39 e9             	cmp    %rbp,%rcx
    a04a:	0f 86 48 fe ff ff    	jbe    9e98 <dlmalloc+0x208>
    a050:	48 8b 05 31 84 00 00 	mov    0x8431(%rip),%rax        # 12488 <_gm_+0x368>
    a057:	48 85 c0             	test   %rax,%rax
    a05a:	74 1d                	je     a079 <dlmalloc+0x3e9>
    a05c:	48 8b 35 15 84 00 00 	mov    0x8415(%rip),%rsi        # 12478 <_gm_+0x358>
    a063:	48 8d 14 31          	lea    (%rcx,%rsi,1),%rdx
    a067:	48 39 d0             	cmp    %rdx,%rax
    a06a:	0f 82 28 fe ff ff    	jb     9e98 <dlmalloc+0x208>
    a070:	48 39 d6             	cmp    %rdx,%rsi
    a073:	0f 83 1f fe ff ff    	jae    9e98 <dlmalloc+0x208>
    a079:	f6 05 10 84 00 00 04 	testb  $0x4,0x8410(%rip)        # 12490 <_gm_+0x370>
    a080:	0f 85 cc 00 00 00    	jne    a152 <dlmalloc+0x4c2>
    a086:	48 8b 15 bb 80 00 00 	mov    0x80bb(%rip),%rdx        # 12148 <_gm_+0x28>
    a08d:	48 85 d2             	test   %rdx,%rdx
    a090:	74 2c                	je     a0be <dlmalloc+0x42e>
    a092:	4c 8d 35 ff 83 00 00 	lea    0x83ff(%rip),%r14        # 12498 <_gm_+0x378>
    a099:	0f 1f 80 00 00 00 00 	nopl   0x0(%rax)
    a0a0:	49 8b 06             	mov    (%r14),%rax
    a0a3:	48 39 c2             	cmp    %rax,%rdx
    a0a6:	72 0d                	jb     a0b5 <dlmalloc+0x425>
    a0a8:	49 03 46 08          	add    0x8(%r14),%rax
    a0ac:	48 39 c2             	cmp    %rax,%rdx
    a0af:	0f 82 ff 0d 00 00    	jb     aeb4 <dlmalloc+0x1224>
    a0b5:	4d 8b 76 10          	mov    0x10(%r14),%r14
    a0b9:	4d 85 f6             	test   %r14,%r14
    a0bc:	75 e2                	jne    a0a0 <dlmalloc+0x410>
    a0be:	b8 01 00 00 00       	mov    $0x1,%eax
    a0c3:	87 05 47 84 00 00    	xchg   %eax,0x8447(%rip)        # 12510 <malloc_global_mutex>
    a0c9:	85 c0                	test   %eax,%eax
    a0cb:	0f 85 7d 09 00 00    	jne    aa4e <dlmalloc+0xdbe>
    a0d1:	31 ff                	xor    %edi,%edi
    a0d3:	48 89 0c 24          	mov    %rcx,(%rsp)
    a0d7:	e8 b4 2b 00 00       	callq  cc90 <sbrk>
    a0dc:	48 83 f8 ff          	cmp    $0xffffffffffffffff,%rax
    a0e0:	49 89 c6             	mov    %rax,%r14
    a0e3:	48 8b 0c 24          	mov    (%rsp),%rcx
    a0e7:	74 5f                	je     a148 <dlmalloc+0x4b8>
    a0e9:	48 8b 15 f8 83 00 00 	mov    0x83f8(%rip),%rdx        # 124e8 <mparams+0x8>
    a0f0:	49 89 cf             	mov    %rcx,%r15
    a0f3:	48 8d 42 ff          	lea    -0x1(%rdx),%rax
    a0f7:	49 85 c6             	test   %rax,%r14
    a0fa:	74 0f                	je     a10b <dlmalloc+0x47b>
    a0fc:	4c 01 f0             	add    %r14,%rax
    a0ff:	48 f7 da             	neg    %rdx
    a102:	4d 29 f7             	sub    %r14,%r15
    a105:	48 21 d0             	and    %rdx,%rax
    a108:	49 01 c7             	add    %rax,%r15
    a10b:	4c 39 fd             	cmp    %r15,%rbp
    a10e:	73 38                	jae    a148 <dlmalloc+0x4b8>
    a110:	48 b8 fe ff ff ff ff 	movabs $0x7ffffffffffffffe,%rax
    a117:	ff ff 7f 
    a11a:	49 39 c7             	cmp    %rax,%r15
    a11d:	77 29                	ja     a148 <dlmalloc+0x4b8>
    a11f:	48 8b 35 62 83 00 00 	mov    0x8362(%rip),%rsi        # 12488 <_gm_+0x368>
    a126:	48 85 f6             	test   %rsi,%rsi
    a129:	0f 84 b9 13 00 00    	je     b4e8 <dlmalloc+0x1858>
    a12f:	48 8b 15 42 83 00 00 	mov    0x8342(%rip),%rdx        # 12478 <_gm_+0x358>
    a136:	49 8d 04 17          	lea    (%r15,%rdx,1),%rax
    a13a:	48 39 c6             	cmp    %rax,%rsi
    a13d:	72 09                	jb     a148 <dlmalloc+0x4b8>
    a13f:	48 39 c2             	cmp    %rax,%rdx
    a142:	0f 82 a0 13 00 00    	jb     b4e8 <dlmalloc+0x1858>
    a148:	c7 05 be 83 00 00 00 	movl   $0x0,0x83be(%rip)        # 12510 <malloc_global_mutex>
    a14f:	00 00 00 
    a152:	48 b8 fe ff ff ff ff 	movabs $0x7ffffffffffffffe,%rax
    a159:	ff ff 7f 
    a15c:	48 39 c1             	cmp    %rax,%rcx
    a15f:	0f 86 7d 04 00 00    	jbe    a5e2 <dlmalloc+0x952>
    a165:	e8 36 2e 00 00       	callq  cfa0 <__errno_location>
    a16a:	31 db                	xor    %ebx,%ebx
    a16c:	c7 00 0c 00 00 00    	movl   $0xc,(%rax)
    a172:	e9 1a fc ff ff       	jmpq   9d91 <dlmalloc+0x101>
    a177:	66 0f 1f 84 00 00 00 	nopw   0x0(%rax,%rax,1)
    a17e:	00 00 
    a180:	48 89 e8             	mov    %rbp,%rax
    a183:	49 89 e9             	mov    %rbp,%r9
    a186:	48 c1 e8 08          	shr    $0x8,%rax
    a18a:	49 f7 d9             	neg    %r9
    a18d:	85 c0                	test   %eax,%eax
    a18f:	0f 85 13 04 00 00    	jne    a5a8 <dlmalloc+0x918>
    a195:	48 8b 05 dc 81 00 00 	mov    0x81dc(%rip),%rax        # 12378 <_gm_+0x258>
    a19c:	45 31 d2             	xor    %r10d,%r10d
    a19f:	b9 39 00 00 00       	mov    $0x39,%ecx
    a1a4:	48 85 c0             	test   %rax,%rax
    a1a7:	0f 84 ee 0c 00 00    	je     ae9b <dlmalloc+0x120b>
    a1ad:	48 89 eb             	mov    %rbp,%rbx
    a1b0:	48 d3 e3             	shl    %cl,%rbx
    a1b3:	48 89 d9             	mov    %rbx,%rcx
    a1b6:	45 31 db             	xor    %r11d,%r11d
    a1b9:	31 db                	xor    %ebx,%ebx
    a1bb:	eb 06                	jmp    a1c3 <dlmalloc+0x533>
    a1bd:	0f 1f 00             	nopl   (%rax)
    a1c0:	48 01 c9             	add    %rcx,%rcx
    a1c3:	48 8b 50 08          	mov    0x8(%rax),%rdx
    a1c7:	48 83 e2 f8          	and    $0xfffffffffffffff8,%rdx
    a1cb:	48 29 ea             	sub    %rbp,%rdx
    a1ce:	4c 39 ca             	cmp    %r9,%rdx
    a1d1:	73 0f                	jae    a1e2 <dlmalloc+0x552>
    a1d3:	48 85 d2             	test   %rdx,%rdx
    a1d6:	0f 84 fe 0a 00 00    	je     acda <dlmalloc+0x104a>
    a1dc:	49 89 d1             	mov    %rdx,%r9
    a1df:	48 89 c3             	mov    %rax,%rbx
    a1e2:	4c 8b 70 28          	mov    0x28(%rax),%r14
    a1e6:	48 89 ca             	mov    %rcx,%rdx
    a1e9:	48 c1 ea 3f          	shr    $0x3f,%rdx
    a1ed:	48 83 c2 04          	add    $0x4,%rdx
    a1f1:	4d 85 f6             	test   %r14,%r14
    a1f4:	48 8b 04 d0          	mov    (%rax,%rdx,8),%rax
    a1f8:	74 07                	je     a201 <dlmalloc+0x571>
    a1fa:	49 39 c6             	cmp    %rax,%r14
    a1fd:	4d 0f 45 de          	cmovne %r14,%r11
    a201:	48 85 c0             	test   %rax,%rax
    a204:	75 ba                	jne    a1c0 <dlmalloc+0x530>
    a206:	4d 85 db             	test   %r11,%r11
    a209:	0f 85 5a 0a 00 00    	jne    ac69 <dlmalloc+0xfd9>
    a20f:	48 85 db             	test   %rbx,%rbx
    a212:	0f 85 51 0a 00 00    	jne    ac69 <dlmalloc+0xfd9>
    a218:	b8 fe ff ff ff       	mov    $0xfffffffe,%eax
    a21d:	44 89 d1             	mov    %r10d,%ecx
    a220:	4c 89 ca             	mov    %r9,%rdx
    a223:	d3 e0                	shl    %cl,%eax
    a225:	44 21 c0             	and    %r8d,%eax
    a228:	0f 84 0b fc ff ff    	je     9e39 <dlmalloc+0x1a9>
    a22e:	89 c1                	mov    %eax,%ecx
    a230:	31 db                	xor    %ebx,%ebx
    a232:	f7 d9                	neg    %ecx
    a234:	21 c8                	and    %ecx,%eax
    a236:	f3 0f bc c0          	tzcnt  %eax,%eax
    a23a:	89 c0                	mov    %eax,%eax
    a23c:	49 8b 84 c5 58 02 00 	mov    0x258(%r13,%rax,8),%rax
    a243:	00 
    a244:	48 85 c0             	test   %rax,%rax
    a247:	75 0a                	jne    a253 <dlmalloc+0x5c3>
    a249:	e9 eb fb ff ff       	jmpq   9e39 <dlmalloc+0x1a9>
    a24e:	66 90                	xchg   %ax,%ax
    a250:	48 89 c8             	mov    %rcx,%rax
    a253:	48 8b 48 08          	mov    0x8(%rax),%rcx
    a257:	48 83 e1 f8          	and    $0xfffffffffffffff8,%rcx
    a25b:	48 29 e9             	sub    %rbp,%rcx
    a25e:	48 39 d1             	cmp    %rdx,%rcx
    a261:	73 06                	jae    a269 <dlmalloc+0x5d9>
    a263:	48 89 ca             	mov    %rcx,%rdx
    a266:	48 89 c3             	mov    %rax,%rbx
    a269:	48 8b 48 20          	mov    0x20(%rax),%rcx
    a26d:	48 85 c9             	test   %rcx,%rcx
    a270:	75 de                	jne    a250 <dlmalloc+0x5c0>
    a272:	48 8b 48 28          	mov    0x28(%rax),%rcx
    a276:	48 85 c9             	test   %rcx,%rcx
    a279:	75 d5                	jne    a250 <dlmalloc+0x5c0>
    a27b:	48 85 db             	test   %rbx,%rbx
    a27e:	0f 84 b5 fb ff ff    	je     9e39 <dlmalloc+0x1a9>
    a284:	48 89 f0             	mov    %rsi,%rax
    a287:	48 29 e8             	sub    %rbp,%rax
    a28a:	48 39 d0             	cmp    %rdx,%rax
    a28d:	0f 86 a6 fb ff ff    	jbe    9e39 <dlmalloc+0x1a9>
    a293:	4c 8b 1d 9e 7e 00 00 	mov    0x7e9e(%rip),%r11        # 12138 <_gm_+0x18>
    a29a:	49 39 db             	cmp    %rbx,%r11
    a29d:	0f 87 2d 01 00 00    	ja     a3d0 <dlmalloc+0x740>
    a2a3:	4c 8d 14 2b          	lea    (%rbx,%rbp,1),%r10
    a2a7:	49 39 da             	cmp    %rbx,%r10
    a2aa:	0f 86 20 01 00 00    	jbe    a3d0 <dlmalloc+0x740>
    a2b0:	48 8b 43 18          	mov    0x18(%rbx),%rax
    a2b4:	4c 8b 73 30          	mov    0x30(%rbx),%r14
    a2b8:	48 39 d8             	cmp    %rbx,%rax
    a2bb:	0f 84 8c 0a 00 00    	je     ad4d <dlmalloc+0x10bd>
    a2c1:	48 8b 4b 10          	mov    0x10(%rbx),%rcx
    a2c5:	49 39 cb             	cmp    %rcx,%r11
    a2c8:	0f 87 02 01 00 00    	ja     a3d0 <dlmalloc+0x740>
    a2ce:	48 39 59 18          	cmp    %rbx,0x18(%rcx)
    a2d2:	0f 85 f8 00 00 00    	jne    a3d0 <dlmalloc+0x740>
    a2d8:	48 39 58 10          	cmp    %rbx,0x10(%rax)
    a2dc:	0f 85 ee 00 00 00    	jne    a3d0 <dlmalloc+0x740>
    a2e2:	48 89 41 18          	mov    %rax,0x18(%rcx)
    a2e6:	48 89 48 10          	mov    %rcx,0x10(%rax)
    a2ea:	4d 85 f6             	test   %r14,%r14
    a2ed:	74 6e                	je     a35d <dlmalloc+0x6cd>
    a2ef:	8b 7b 38             	mov    0x38(%rbx),%edi
    a2f2:	48 89 f9             	mov    %rdi,%rcx
    a2f5:	48 83 c7 4a          	add    $0x4a,%rdi
    a2f9:	49 39 5c fd 08       	cmp    %rbx,0x8(%r13,%rdi,8)
    a2fe:	0f 84 c8 0b 00 00    	je     aecc <dlmalloc+0x123c>
    a304:	4d 39 f3             	cmp    %r14,%r11
    a307:	0f 87 c3 00 00 00    	ja     a3d0 <dlmalloc+0x740>
    a30d:	49 39 5e 20          	cmp    %rbx,0x20(%r14)
    a311:	0f 84 dd 0c 00 00    	je     aff4 <dlmalloc+0x1364>
    a317:	49 89 46 28          	mov    %rax,0x28(%r14)
    a31b:	48 85 c0             	test   %rax,%rax
    a31e:	74 3d                	je     a35d <dlmalloc+0x6cd>
    a320:	49 39 c3             	cmp    %rax,%r11
    a323:	0f 87 a7 00 00 00    	ja     a3d0 <dlmalloc+0x740>
    a329:	48 8b 4b 20          	mov    0x20(%rbx),%rcx
    a32d:	4c 89 70 30          	mov    %r14,0x30(%rax)
    a331:	48 85 c9             	test   %rcx,%rcx
    a334:	74 11                	je     a347 <dlmalloc+0x6b7>
    a336:	49 39 cb             	cmp    %rcx,%r11
    a339:	0f 87 91 00 00 00    	ja     a3d0 <dlmalloc+0x740>
    a33f:	48 89 48 20          	mov    %rcx,0x20(%rax)
    a343:	48 89 41 30          	mov    %rax,0x30(%rcx)
    a347:	48 8b 4b 28          	mov    0x28(%rbx),%rcx
    a34b:	48 85 c9             	test   %rcx,%rcx
    a34e:	74 0d                	je     a35d <dlmalloc+0x6cd>
    a350:	49 39 cb             	cmp    %rcx,%r11
    a353:	77 7b                	ja     a3d0 <dlmalloc+0x740>
    a355:	48 89 48 28          	mov    %rcx,0x28(%rax)
    a359:	48 89 41 30          	mov    %rax,0x30(%rcx)
    a35d:	48 8b 0d 7c 81 00 00 	mov    0x817c(%rip),%rcx        # 124e0 <mparams>
    a364:	4c 31 e9             	xor    %r13,%rcx
    a367:	48 83 fa 1f          	cmp    $0x1f,%rdx
    a36b:	0f 87 71 09 00 00    	ja     ace2 <dlmalloc+0x1052>
    a371:	48 8d 44 15 00       	lea    0x0(%rbp,%rdx,1),%rax
    a376:	48 89 c2             	mov    %rax,%rdx
    a379:	48 01 d8             	add    %rbx,%rax
    a37c:	48 83 ca 03          	or     $0x3,%rdx
    a380:	48 89 53 08          	mov    %rdx,0x8(%rbx)
    a384:	48 83 48 08 01       	orq    $0x1,0x8(%rax)
    a389:	48 89 08             	mov    %rcx,(%rax)
    a38c:	48 83 c3 10          	add    $0x10,%rbx
    a390:	48 89 f7             	mov    %rsi,%rdi
    a393:	0f 85 c8 f9 ff ff    	jne    9d61 <dlmalloc+0xd1>
    a399:	e9 9b fa ff ff       	jmpq   9e39 <dlmalloc+0x1a9>
    a39e:	66 90                	xchg   %ax,%ax
    a3a0:	b8 fe ff ff ff       	mov    $0xfffffffe,%eax
    a3a5:	d3 c0                	rol    %cl,%eax
    a3a7:	21 c2                	and    %eax,%edx
    a3a9:	89 15 71 7d 00 00    	mov    %edx,0x7d71(%rip)        # 12120 <_gm_>
    a3af:	e9 81 f9 ff ff       	jmpq   9d35 <dlmalloc+0xa5>
    a3b4:	4c 3b 0d 7d 7d 00 00 	cmp    0x7d7d(%rip),%r9        # 12138 <_gm_+0x18>
    a3bb:	72 13                	jb     a3d0 <dlmalloc+0x740>
    a3bd:	49 39 51 18          	cmp    %rdx,0x18(%r9)
    a3c1:	0f 84 87 0f 00 00    	je     b34e <dlmalloc+0x16be>
    a3c7:	66 0f 1f 84 00 00 00 	nopw   0x0(%rax,%rax,1)
    a3ce:	00 00 
    a3d0:	e8 5b 39 00 00       	callq  dd30 <abort>
    a3d5:	44 8b 05 48 7d 00 00 	mov    0x7d48(%rip),%r8d        # 12124 <_gm_+0x4>
    a3dc:	45 85 c0             	test   %r8d,%r8d
    a3df:	0f 84 5d fa ff ff    	je     9e42 <dlmalloc+0x1b2>
    a3e5:	44 89 c0             	mov    %r8d,%eax
    a3e8:	f7 d8                	neg    %eax
    a3ea:	44 21 c0             	and    %r8d,%eax
    a3ed:	f3 0f bc c0          	tzcnt  %eax,%eax
    a3f1:	89 c0                	mov    %eax,%eax
    a3f3:	49 8b 84 c5 58 02 00 	mov    0x258(%r13,%rax,8),%rax
    a3fa:	00 
    a3fb:	48 8b 78 08          	mov    0x8(%rax),%rdi
    a3ff:	48 89 c3             	mov    %rax,%rbx
    a402:	48 83 e7 f8          	and    $0xfffffffffffffff8,%rdi
    a406:	48 29 ef             	sub    %rbp,%rdi
    a409:	eb 1e                	jmp    a429 <dlmalloc+0x799>
    a40b:	0f 1f 44 00 00       	nopl   0x0(%rax,%rax,1)
    a410:	48 8b 41 08          	mov    0x8(%rcx),%rax
    a414:	48 83 e0 f8          	and    $0xfffffffffffffff8,%rax
    a418:	48 29 e8             	sub    %rbp,%rax
    a41b:	48 39 f8             	cmp    %rdi,%rax
    a41e:	73 06                	jae    a426 <dlmalloc+0x796>
    a420:	48 89 c7             	mov    %rax,%rdi
    a423:	48 89 cb             	mov    %rcx,%rbx
    a426:	48 89 c8             	mov    %rcx,%rax
    a429:	48 8b 48 20          	mov    0x20(%rax),%rcx
    a42d:	48 85 c9             	test   %rcx,%rcx
    a430:	75 de                	jne    a410 <dlmalloc+0x780>
    a432:	48 8b 48 28          	mov    0x28(%rax),%rcx
    a436:	48 85 c9             	test   %rcx,%rcx
    a439:	75 d5                	jne    a410 <dlmalloc+0x780>
    a43b:	4c 8b 35 f6 7c 00 00 	mov    0x7cf6(%rip),%r14        # 12138 <_gm_+0x18>
    a442:	49 39 de             	cmp    %rbx,%r14
    a445:	77 89                	ja     a3d0 <dlmalloc+0x740>
    a447:	4c 8d 1c 2b          	lea    (%rbx,%rbp,1),%r11
    a44b:	49 39 db             	cmp    %rbx,%r11
    a44e:	76 80                	jbe    a3d0 <dlmalloc+0x740>
    a450:	48 8b 43 18          	mov    0x18(%rbx),%rax
    a454:	4c 8b 7b 30          	mov    0x30(%rbx),%r15
    a458:	48 39 d8             	cmp    %rbx,%rax
    a45b:	0f 84 81 0c 00 00    	je     b0e2 <dlmalloc+0x1452>
    a461:	48 8b 4b 10          	mov    0x10(%rbx),%rcx
    a465:	49 39 ce             	cmp    %rcx,%r14
    a468:	0f 87 62 ff ff ff    	ja     a3d0 <dlmalloc+0x740>
    a46e:	48 39 59 18          	cmp    %rbx,0x18(%rcx)
    a472:	0f 85 58 ff ff ff    	jne    a3d0 <dlmalloc+0x740>
    a478:	48 39 58 10          	cmp    %rbx,0x10(%rax)
    a47c:	0f 85 4e ff ff ff    	jne    a3d0 <dlmalloc+0x740>
    a482:	48 89 41 18          	mov    %rax,0x18(%rcx)
    a486:	48 89 48 10          	mov    %rcx,0x10(%rax)
    a48a:	4d 85 ff             	test   %r15,%r15
    a48d:	74 73                	je     a502 <dlmalloc+0x872>
    a48f:	44 8b 4b 38          	mov    0x38(%rbx),%r9d
    a493:	4c 89 c9             	mov    %r9,%rcx
    a496:	49 83 c1 4a          	add    $0x4a,%r9
    a49a:	4b 39 5c cd 08       	cmp    %rbx,0x8(%r13,%r9,8)
    a49f:	0f 84 f5 0d 00 00    	je     b29a <dlmalloc+0x160a>
    a4a5:	4d 39 fe             	cmp    %r15,%r14
    a4a8:	0f 87 22 ff ff ff    	ja     a3d0 <dlmalloc+0x740>
    a4ae:	49 39 5f 20          	cmp    %rbx,0x20(%r15)
    a4b2:	0f 84 bf 0e 00 00    	je     b377 <dlmalloc+0x16e7>
    a4b8:	49 89 47 28          	mov    %rax,0x28(%r15)
    a4bc:	48 85 c0             	test   %rax,%rax
    a4bf:	74 41                	je     a502 <dlmalloc+0x872>
    a4c1:	49 39 c6             	cmp    %rax,%r14
    a4c4:	0f 87 06 ff ff ff    	ja     a3d0 <dlmalloc+0x740>
    a4ca:	48 8b 4b 20          	mov    0x20(%rbx),%rcx
    a4ce:	4c 89 78 30          	mov    %r15,0x30(%rax)
    a4d2:	48 85 c9             	test   %rcx,%rcx
    a4d5:	74 11                	je     a4e8 <dlmalloc+0x858>
    a4d7:	49 39 ce             	cmp    %rcx,%r14
    a4da:	0f 87 f0 fe ff ff    	ja     a3d0 <dlmalloc+0x740>
    a4e0:	48 89 48 20          	mov    %rcx,0x20(%rax)
    a4e4:	48 89 41 30          	mov    %rax,0x30(%rcx)
    a4e8:	48 8b 4b 28          	mov    0x28(%rbx),%rcx
    a4ec:	48 85 c9             	test   %rcx,%rcx
    a4ef:	74 11                	je     a502 <dlmalloc+0x872>
    a4f1:	49 39 ce             	cmp    %rcx,%r14
    a4f4:	0f 87 d6 fe ff ff    	ja     a3d0 <dlmalloc+0x740>
    a4fa:	48 89 48 28          	mov    %rcx,0x28(%rax)
    a4fe:	48 89 41 30          	mov    %rax,0x30(%rcx)
    a502:	48 8b 0d d7 7f 00 00 	mov    0x7fd7(%rip),%rcx        # 124e0 <mparams>
    a509:	4c 31 e9             	xor    %r13,%rcx
    a50c:	48 83 ff 1f          	cmp    $0x1f,%rdi
    a510:	0f 86 ac 0b 00 00    	jbe    b0c2 <dlmalloc+0x1432>
    a516:	48 89 e8             	mov    %rbp,%rax
    a519:	48 83 c8 03          	or     $0x3,%rax
    a51d:	48 89 43 08          	mov    %rax,0x8(%rbx)
    a521:	48 89 f8             	mov    %rdi,%rax
    a524:	49 89 0b             	mov    %rcx,(%r11)
    a527:	48 83 c8 01          	or     $0x1,%rax
    a52b:	48 85 f6             	test   %rsi,%rsi
    a52e:	49 89 43 08          	mov    %rax,0x8(%r11)
    a532:	49 89 3c 3b          	mov    %rdi,(%r11,%rdi,1)
    a536:	74 45                	je     a57d <dlmalloc+0x8ed>
    a538:	48 c1 ee 03          	shr    $0x3,%rsi
    a53c:	41 b9 01 00 00 00    	mov    $0x1,%r9d
    a542:	48 8b 05 f7 7b 00 00 	mov    0x7bf7(%rip),%rax        # 12140 <_gm_+0x20>
    a549:	48 89 f1             	mov    %rsi,%rcx
    a54c:	44 8d 04 36          	lea    (%rsi,%rsi,1),%r8d
    a550:	41 d3 e1             	shl    %cl,%r9d
    a553:	44 85 ca             	test   %r9d,%edx
    a556:	4f 8d 44 c5 48       	lea    0x48(%r13,%r8,8),%r8
    a55b:	0f 85 6f 0f 00 00    	jne    b4d0 <dlmalloc+0x1840>
    a561:	44 09 ca             	or     %r9d,%edx
    a564:	89 15 b6 7b 00 00    	mov    %edx,0x7bb6(%rip)        # 12120 <_gm_>
    a56a:	4c 89 c2             	mov    %r8,%rdx
    a56d:	49 89 40 10          	mov    %rax,0x10(%r8)
    a571:	48 89 42 18          	mov    %rax,0x18(%rdx)
    a575:	48 89 50 10          	mov    %rdx,0x10(%rax)
    a579:	4c 89 40 18          	mov    %r8,0x18(%rax)
    a57d:	48 89 3d a4 7b 00 00 	mov    %rdi,0x7ba4(%rip)        # 12128 <_gm_+0x8>
    a584:	4c 89 1d b5 7b 00 00 	mov    %r11,0x7bb5(%rip)        # 12140 <_gm_+0x20>
    a58b:	48 83 c3 10          	add    $0x10,%rbx
    a58f:	0f 85 cc f7 ff ff    	jne    9d61 <dlmalloc+0xd1>
    a595:	48 8b 3d 8c 7b 00 00 	mov    0x7b8c(%rip),%rdi        # 12128 <_gm_+0x8>
    a59c:	e9 98 f8 ff ff       	jmpq   9e39 <dlmalloc+0x1a9>
    a5a1:	0f 1f 80 00 00 00 00 	nopl   0x0(%rax)
    a5a8:	3d ff ff 00 00       	cmp    $0xffff,%eax
    a5ad:	0f 86 ca 06 00 00    	jbe    ac7d <dlmalloc+0xfed>
    a5b3:	48 8b 05 b6 7e 00 00 	mov    0x7eb6(%rip),%rax        # 12470 <_gm_+0x350>
    a5ba:	48 89 e9             	mov    %rbp,%rcx
    a5bd:	41 ba 1f 00 00 00    	mov    $0x1f,%r10d
    a5c3:	48 85 c0             	test   %rax,%rax
    a5c6:	0f 85 ea fb ff ff    	jne    a1b6 <dlmalloc+0x526>
    a5cc:	e9 68 f8 ff ff       	jmpq   9e39 <dlmalloc+0x1a9>
    a5d1:	d3 e7                	shl    %cl,%edi
    a5d3:	f7 d7                	not    %edi
    a5d5:	21 fa                	and    %edi,%edx
    a5d7:	89 15 43 7b 00 00    	mov    %edx,0x7b43(%rip)        # 12120 <_gm_>
    a5dd:	e9 9a f9 ff ff       	jmpq   9f7c <dlmalloc+0x2ec>
    a5e2:	b8 01 00 00 00       	mov    $0x1,%eax
    a5e7:	87 05 23 7f 00 00    	xchg   %eax,0x7f23(%rip)        # 12510 <malloc_global_mutex>
    a5ed:	48 8d 15 1c 7f 00 00 	lea    0x7f1c(%rip),%rdx        # 12510 <malloc_global_mutex>
    a5f4:	be 01 00 00 00       	mov    $0x1,%esi
    a5f9:	85 c0                	test   %eax,%eax
    a5fb:	0f 85 cf 02 00 00    	jne    a8d0 <dlmalloc+0xc40>
    a601:	48 89 cf             	mov    %rcx,%rdi
    a604:	e8 87 26 00 00       	callq  cc90 <sbrk>
    a609:	31 ff                	xor    %edi,%edi
    a60b:	48 89 c3             	mov    %rax,%rbx
    a60e:	e8 7d 26 00 00       	callq  cc90 <sbrk>
    a613:	48 83 fb ff          	cmp    $0xffffffffffffffff,%rbx
    a617:	0f 95 c1             	setne  %cl
    a61a:	48 83 f8 ff          	cmp    $0xffffffffffffffff,%rax
    a61e:	0f 95 c2             	setne  %dl
    a621:	84 d1                	test   %dl,%cl
    a623:	c7 05 e3 7e 00 00 00 	movl   $0x0,0x7ee3(%rip)        # 12510 <malloc_global_mutex>
    a62a:	00 00 00 
    a62d:	0f 84 32 fb ff ff    	je     a165 <dlmalloc+0x4d5>
    a633:	48 39 c3             	cmp    %rax,%rbx
    a636:	0f 83 29 fb ff ff    	jae    a165 <dlmalloc+0x4d5>
    a63c:	48 29 d8             	sub    %rbx,%rax
    a63f:	49 89 c7             	mov    %rax,%r15
    a642:	48 8d 45 50          	lea    0x50(%rbp),%rax
    a646:	49 39 c7             	cmp    %rax,%r15
    a649:	0f 86 16 fb ff ff    	jbe    a165 <dlmalloc+0x4d5>
    a64f:	48 83 fb ff          	cmp    $0xffffffffffffffff,%rbx
    a653:	0f 84 0c fb ff ff    	je     a165 <dlmalloc+0x4d5>
    a659:	48 8b 05 18 7e 00 00 	mov    0x7e18(%rip),%rax        # 12478 <_gm_+0x358>
    a660:	4c 01 f8             	add    %r15,%rax
    a663:	48 3b 05 16 7e 00 00 	cmp    0x7e16(%rip),%rax        # 12480 <_gm_+0x360>
    a66a:	48 89 05 07 7e 00 00 	mov    %rax,0x7e07(%rip)        # 12478 <_gm_+0x358>
    a671:	76 07                	jbe    a67a <dlmalloc+0x9ea>
    a673:	48 89 05 06 7e 00 00 	mov    %rax,0x7e06(%rip)        # 12480 <_gm_+0x360>
    a67a:	48 8b 35 c7 7a 00 00 	mov    0x7ac7(%rip),%rsi        # 12148 <_gm_+0x28>
    a681:	48 8d 05 10 7e 00 00 	lea    0x7e10(%rip),%rax        # 12498 <_gm_+0x378>
    a688:	48 85 f6             	test   %rsi,%rsi
    a68b:	0f 84 11 05 00 00    	je     aba2 <dlmalloc+0xf12>
    a691:	0f 1f 80 00 00 00 00 	nopl   0x0(%rax)
    a698:	48 8b 08             	mov    (%rax),%rcx
    a69b:	48 8b 50 08          	mov    0x8(%rax),%rdx
    a69f:	48 8d 3c 11          	lea    (%rcx,%rdx,1),%rdi
    a6a3:	48 39 df             	cmp    %rbx,%rdi
    a6a6:	0f 84 24 03 00 00    	je     a9d0 <dlmalloc+0xd40>
    a6ac:	48 8b 40 10          	mov    0x10(%rax),%rax
    a6b0:	48 85 c0             	test   %rax,%rax
    a6b3:	75 e3                	jne    a698 <dlmalloc+0xa08>
    a6b5:	48 39 1d 7c 7a 00 00 	cmp    %rbx,0x7a7c(%rip)        # 12138 <_gm_+0x18>
    a6bc:	76 07                	jbe    a6c5 <dlmalloc+0xa35>
    a6be:	48 89 1d 73 7a 00 00 	mov    %rbx,0x7a73(%rip)        # 12138 <_gm_+0x18>
    a6c5:	4a 8d 0c 3b          	lea    (%rbx,%r15,1),%rcx
    a6c9:	48 8d 05 c8 7d 00 00 	lea    0x7dc8(%rip),%rax        # 12498 <_gm_+0x378>
    a6d0:	48 8b 10             	mov    (%rax),%rdx
    a6d3:	48 39 ca             	cmp    %rcx,%rdx
    a6d6:	0f 84 02 02 00 00    	je     a8de <dlmalloc+0xc4e>
    a6dc:	48 8b 40 10          	mov    0x10(%rax),%rax
    a6e0:	48 85 c0             	test   %rax,%rax
    a6e3:	75 eb                	jne    a6d0 <dlmalloc+0xa40>
    a6e5:	48 8d 7b 10          	lea    0x10(%rbx),%rdi
    a6e9:	49 89 f8             	mov    %rdi,%r8
    a6ec:	41 83 e0 0f          	and    $0xf,%r8d
    a6f0:	48 8d 05 a1 7d 00 00 	lea    0x7da1(%rip),%rax        # 12498 <_gm_+0x378>
    a6f7:	66 0f 1f 84 00 00 00 	nopw   0x0(%rax,%rax,1)
    a6fe:	00 00 
    a700:	48 8b 10             	mov    (%rax),%rdx
    a703:	48 39 d6             	cmp    %rdx,%rsi
    a706:	72 09                	jb     a711 <dlmalloc+0xa81>
    a708:	48 03 50 08          	add    0x8(%rax),%rdx
    a70c:	48 39 d6             	cmp    %rdx,%rsi
    a70f:	72 09                	jb     a71a <dlmalloc+0xa8a>
    a711:	48 8b 40 10          	mov    0x10(%rax),%rax
    a715:	48 85 c0             	test   %rax,%rax
    a718:	75 e6                	jne    a700 <dlmalloc+0xa70>
    a71a:	48 8b 48 08          	mov    0x8(%rax),%rcx
    a71e:	48 03 08             	add    (%rax),%rcx
    a721:	48 c7 c2 a1 ff ff ff 	mov    $0xffffffffffffffa1,%rdx
    a728:	48 8d 41 b1          	lea    -0x4f(%rcx),%rax
    a72c:	a8 0f                	test   $0xf,%al
    a72e:	74 09                	je     a739 <dlmalloc+0xaa9>
    a730:	48 f7 d8             	neg    %rax
    a733:	83 e0 0f             	and    $0xf,%eax
    a736:	48 01 c2             	add    %rax,%rdx
    a739:	48 8d 46 20          	lea    0x20(%rsi),%rax
    a73d:	48 01 ca             	add    %rcx,%rdx
    a740:	4d 8d 4f b0          	lea    -0x50(%r15),%r9
    a744:	48 39 c2             	cmp    %rax,%rdx
    a747:	48 0f 42 d6          	cmovb  %rsi,%rdx
    a74b:	4d 85 c0             	test   %r8,%r8
    a74e:	4c 8d 52 10          	lea    0x10(%rdx),%r10
    a752:	0f 84 77 05 00 00    	je     accf <dlmalloc+0x103f>
    a758:	48 f7 df             	neg    %rdi
    a75b:	4c 89 c8             	mov    %r9,%rax
    a75e:	83 e7 0f             	and    $0xf,%edi
    a761:	4c 8d 04 3b          	lea    (%rbx,%rdi,1),%r8
    a765:	48 29 f8             	sub    %rdi,%rax
    a768:	48 89 05 c1 79 00 00 	mov    %rax,0x79c1(%rip)        # 12130 <_gm_+0x10>
    a76f:	48 83 c8 01          	or     $0x1,%rax
    a773:	4c 89 05 ce 79 00 00 	mov    %r8,0x79ce(%rip)        # 12148 <_gm_+0x28>
    a77a:	49 89 40 08          	mov    %rax,0x8(%r8)
    a77e:	48 8b 05 7b 7d 00 00 	mov    0x7d7b(%rip),%rax        # 12500 <mparams+0x20>
    a785:	f3 0f 6f 05 0b 7d 00 	movdqu 0x7d0b(%rip),%xmm0        # 12498 <_gm_+0x378>
    a78c:	00 
    a78d:	4a c7 44 0b 08 50 00 	movq   $0x50,0x8(%rbx,%r9,1)
    a794:	00 00 
    a796:	48 89 05 b3 79 00 00 	mov    %rax,0x79b3(%rip)        # 12150 <_gm_+0x30>
    a79d:	48 8b 05 3c 7d 00 00 	mov    0x7d3c(%rip),%rax        # 124e0 <mparams>
    a7a4:	0f 11 42 10          	movups %xmm0,0x10(%rdx)
    a7a8:	48 c7 42 08 33 00 00 	movq   $0x33,0x8(%rdx)
    a7af:	00 
    a7b0:	4c 31 e8             	xor    %r13,%rax
    a7b3:	f3 0f 6f 05 ed 7c 00 	movdqu 0x7ced(%rip),%xmm0        # 124a8 <_gm_+0x388>
    a7ba:	00 
    a7bb:	48 89 42 30          	mov    %rax,0x30(%rdx)
    a7bf:	48 8d 42 38          	lea    0x38(%rdx),%rax
    a7c3:	0f 11 42 20          	movups %xmm0,0x20(%rdx)
    a7c7:	48 89 1d ca 7c 00 00 	mov    %rbx,0x7cca(%rip)        # 12498 <_gm_+0x378>
    a7ce:	4c 89 3d cb 7c 00 00 	mov    %r15,0x7ccb(%rip)        # 124a0 <_gm_+0x380>
    a7d5:	c7 05 d1 7c 00 00 00 	movl   $0x0,0x7cd1(%rip)        # 124b0 <_gm_+0x390>
    a7dc:	00 00 00 
    a7df:	4c 89 15 c2 7c 00 00 	mov    %r10,0x7cc2(%rip)        # 124a8 <_gm_+0x388>
    a7e6:	66 2e 0f 1f 84 00 00 	nopw   %cs:0x0(%rax,%rax,1)
    a7ed:	00 00 00 
    a7f0:	48 c7 00 0b 00 00 00 	movq   $0xb,(%rax)
    a7f7:	48 83 c0 08          	add    $0x8,%rax
    a7fb:	48 39 c1             	cmp    %rax,%rcx
    a7fe:	77 f0                	ja     a7f0 <dlmalloc+0xb60>
    a800:	48 39 d6             	cmp    %rdx,%rsi
    a803:	0f 84 9f 06 00 00    	je     aea8 <dlmalloc+0x1218>
    a809:	48 89 d7             	mov    %rdx,%rdi
    a80c:	48 83 62 08 fe       	andq   $0xfffffffffffffffe,0x8(%rdx)
    a811:	48 29 f7             	sub    %rsi,%rdi
    a814:	48 89 f9             	mov    %rdi,%rcx
    a817:	48 89 f8             	mov    %rdi,%rax
    a81a:	48 c1 e9 03          	shr    $0x3,%rcx
    a81e:	48 83 c8 01          	or     $0x1,%rax
    a822:	48 83 f9 1f          	cmp    $0x1f,%rcx
    a826:	48 89 46 08          	mov    %rax,0x8(%rsi)
    a82a:	48 89 3a             	mov    %rdi,(%rdx)
    a82d:	0f 87 62 05 00 00    	ja     ad95 <dlmalloc+0x1105>
    a833:	8d 04 09             	lea    (%rcx,%rcx,1),%eax
    a836:	8b 15 e4 78 00 00    	mov    0x78e4(%rip),%edx        # 12120 <_gm_>
    a83c:	49 8d 7c c5 48       	lea    0x48(%r13,%rax,8),%rdi
    a841:	b8 01 00 00 00       	mov    $0x1,%eax
    a846:	d3 e0                	shl    %cl,%eax
    a848:	85 c2                	test   %eax,%edx
    a84a:	0f 85 4c 07 00 00    	jne    af9c <dlmalloc+0x130c>
    a850:	09 d0                	or     %edx,%eax
    a852:	89 05 c8 78 00 00    	mov    %eax,0x78c8(%rip)        # 12120 <_gm_>
    a858:	48 89 f8             	mov    %rdi,%rax
    a85b:	48 89 77 10          	mov    %rsi,0x10(%rdi)
    a85f:	48 89 70 18          	mov    %rsi,0x18(%rax)
    a863:	48 89 46 10          	mov    %rax,0x10(%rsi)
    a867:	48 8b 05 c2 78 00 00 	mov    0x78c2(%rip),%rax        # 12130 <_gm_+0x10>
    a86e:	48 89 7e 18          	mov    %rdi,0x18(%rsi)
    a872:	48 39 e8             	cmp    %rbp,%rax
    a875:	0f 86 ea f8 ff ff    	jbe    a165 <dlmalloc+0x4d5>
    a87b:	48 8b 1d c6 78 00 00 	mov    0x78c6(%rip),%rbx        # 12148 <_gm_+0x28>
    a882:	4c 33 2d 57 7c 00 00 	xor    0x7c57(%rip),%r13        # 124e0 <mparams>
    a889:	48 29 e8             	sub    %rbp,%rax
    a88c:	48 89 05 9d 78 00 00 	mov    %rax,0x789d(%rip)        # 12130 <_gm_+0x10>
    a893:	48 83 c8 01          	or     $0x1,%rax
    a897:	48 8d 14 2b          	lea    (%rbx,%rbp,1),%rdx
    a89b:	48 83 cd 03          	or     $0x3,%rbp
    a89f:	48 89 15 a2 78 00 00 	mov    %rdx,0x78a2(%rip)        # 12148 <_gm_+0x28>
    a8a6:	48 89 42 08          	mov    %rax,0x8(%rdx)
    a8aa:	48 89 6b 08          	mov    %rbp,0x8(%rbx)
    a8ae:	4c 89 2a             	mov    %r13,(%rdx)
    a8b1:	e9 d5 f5 ff ff       	jmpq   9e8b <dlmalloc+0x1fb>
    a8b6:	89 f0                	mov    %esi,%eax
    a8b8:	87 05 52 7c 00 00    	xchg   %eax,0x7c52(%rip)        # 12510 <malloc_global_mutex>
    a8be:	85 c0                	test   %eax,%eax
    a8c0:	0f 84 3b fd ff ff    	je     a601 <dlmalloc+0x971>
    a8c6:	66 2e 0f 1f 84 00 00 	nopw   %cs:0x0(%rax,%rax,1)
    a8cd:	00 00 00 
    a8d0:	8b 02                	mov    (%rdx),%eax
    a8d2:	85 c0                	test   %eax,%eax
    a8d4:	74 e0                	je     a8b6 <dlmalloc+0xc26>
    a8d6:	8b 02                	mov    (%rdx),%eax
    a8d8:	85 c0                	test   %eax,%eax
    a8da:	75 f4                	jne    a8d0 <dlmalloc+0xc40>
    a8dc:	eb d8                	jmp    a8b6 <dlmalloc+0xc26>
    a8de:	48 8d 7b 10          	lea    0x10(%rbx),%rdi
    a8e2:	49 89 f8             	mov    %rdi,%r8
    a8e5:	41 83 e0 0f          	and    $0xf,%r8d
    a8e9:	f6 40 18 08          	testb  $0x8,0x18(%rax)
    a8ed:	0f 85 fd fd ff ff    	jne    a6f0 <dlmalloc+0xa60>
    a8f3:	4c 01 78 08          	add    %r15,0x8(%rax)
    a8f7:	4d 85 c0             	test   %r8,%r8
    a8fa:	48 89 18             	mov    %rbx,(%rax)
    a8fd:	74 0c                	je     a90b <dlmalloc+0xc7b>
    a8ff:	48 89 f8             	mov    %rdi,%rax
    a902:	48 f7 d8             	neg    %rax
    a905:	83 e0 0f             	and    $0xf,%eax
    a908:	48 01 c3             	add    %rax,%rbx
    a90b:	48 8d 42 10          	lea    0x10(%rdx),%rax
    a90f:	a8 0f                	test   $0xf,%al
    a911:	74 09                	je     a91c <dlmalloc+0xc8c>
    a913:	48 f7 d8             	neg    %rax
    a916:	83 e0 0f             	and    $0xf,%eax
    a919:	48 01 c2             	add    %rax,%rdx
    a91c:	48 8b 0d bd 7b 00 00 	mov    0x7bbd(%rip),%rcx        # 124e0 <mparams>
    a923:	48 89 d7             	mov    %rdx,%rdi
    a926:	48 8d 04 2b          	lea    (%rbx,%rbp,1),%rax
    a92a:	48 29 df             	sub    %rbx,%rdi
    a92d:	48 29 ef             	sub    %rbp,%rdi
    a930:	48 83 cd 03          	or     $0x3,%rbp
    a934:	4c 31 e9             	xor    %r13,%rcx
    a937:	48 39 d6             	cmp    %rdx,%rsi
    a93a:	48 89 6b 08          	mov    %rbp,0x8(%rbx)
    a93e:	48 89 08             	mov    %rcx,(%rax)
    a941:	0f 84 2d 08 00 00    	je     b174 <dlmalloc+0x14e4>
    a947:	48 39 15 f2 77 00 00 	cmp    %rdx,0x77f2(%rip)        # 12140 <_gm_+0x20>
    a94e:	0f 84 a6 09 00 00    	je     b2fa <dlmalloc+0x166a>
    a954:	48 8b 4a 08          	mov    0x8(%rdx),%rcx
    a958:	48 89 ce             	mov    %rcx,%rsi
    a95b:	83 e6 03             	and    $0x3,%esi
    a95e:	48 83 fe 01          	cmp    $0x1,%rsi
    a962:	0f 84 bb 09 00 00    	je     b323 <dlmalloc+0x1693>
    a968:	48 83 e1 fe          	and    $0xfffffffffffffffe,%rcx
    a96c:	48 89 4a 08          	mov    %rcx,0x8(%rdx)
    a970:	48 89 f9             	mov    %rdi,%rcx
    a973:	48 89 fa             	mov    %rdi,%rdx
    a976:	48 c1 e9 03          	shr    $0x3,%rcx
    a97a:	48 83 ca 01          	or     $0x1,%rdx
    a97e:	48 83 f9 1f          	cmp    $0x1f,%rcx
    a982:	48 89 50 08          	mov    %rdx,0x8(%rax)
    a986:	48 89 3c 38          	mov    %rdi,(%rax,%rdi,1)
    a98a:	0f 87 11 08 00 00    	ja     b1a1 <dlmalloc+0x1511>
    a990:	8b 35 8a 77 00 00    	mov    0x778a(%rip),%esi        # 12120 <_gm_>
    a996:	bf 01 00 00 00       	mov    $0x1,%edi
    a99b:	8d 14 09             	lea    (%rcx,%rcx,1),%edx
    a99e:	d3 e7                	shl    %cl,%edi
    a9a0:	49 8d 54 d5 48       	lea    0x48(%r13,%rdx,8),%rdx
    a9a5:	85 fe                	test   %edi,%esi
    a9a7:	0f 85 5f 0b 00 00    	jne    b50c <dlmalloc+0x187c>
    a9ad:	09 fe                	or     %edi,%esi
    a9af:	48 89 d1             	mov    %rdx,%rcx
    a9b2:	89 35 68 77 00 00    	mov    %esi,0x7768(%rip)        # 12120 <_gm_>
    a9b8:	48 89 42 10          	mov    %rax,0x10(%rdx)
    a9bc:	48 89 41 18          	mov    %rax,0x18(%rcx)
    a9c0:	48 89 48 10          	mov    %rcx,0x10(%rax)
    a9c4:	48 89 50 18          	mov    %rdx,0x18(%rax)
    a9c8:	e9 be f4 ff ff       	jmpq   9e8b <dlmalloc+0x1fb>
    a9cd:	0f 1f 00             	nopl   (%rax)
    a9d0:	f6 40 18 08          	testb  $0x8,0x18(%rax)
    a9d4:	0f 85 db fc ff ff    	jne    a6b5 <dlmalloc+0xa25>
    a9da:	48 39 ce             	cmp    %rcx,%rsi
    a9dd:	0f 82 d2 fc ff ff    	jb     a6b5 <dlmalloc+0xa25>
    a9e3:	48 39 de             	cmp    %rbx,%rsi
    a9e6:	0f 83 c9 fc ff ff    	jae    a6b5 <dlmalloc+0xa25>
    a9ec:	4c 01 fa             	add    %r15,%rdx
    a9ef:	4c 03 3d 3a 77 00 00 	add    0x773a(%rip),%r15        # 12130 <_gm_+0x10>
    a9f6:	48 89 50 08          	mov    %rdx,0x8(%rax)
    a9fa:	48 8d 46 10          	lea    0x10(%rsi),%rax
    a9fe:	a8 0f                	test   $0xf,%al
    aa00:	0f 84 90 07 00 00    	je     b196 <dlmalloc+0x1506>
    aa06:	48 f7 d8             	neg    %rax
    aa09:	4c 89 ff             	mov    %r15,%rdi
    aa0c:	83 e0 0f             	and    $0xf,%eax
    aa0f:	48 29 c7             	sub    %rax,%rdi
    aa12:	48 8d 14 06          	lea    (%rsi,%rax,1),%rdx
    aa16:	48 89 f8             	mov    %rdi,%rax
    aa19:	48 89 c1             	mov    %rax,%rcx
    aa1c:	48 89 15 25 77 00 00 	mov    %rdx,0x7725(%rip)        # 12148 <_gm_+0x28>
    aa23:	48 89 05 06 77 00 00 	mov    %rax,0x7706(%rip)        # 12130 <_gm_+0x10>
    aa2a:	48 83 c9 01          	or     $0x1,%rcx
    aa2e:	48 89 4a 08          	mov    %rcx,0x8(%rdx)
    aa32:	48 8b 15 c7 7a 00 00 	mov    0x7ac7(%rip),%rdx        # 12500 <mparams+0x20>
    aa39:	4a c7 44 3e 08 50 00 	movq   $0x50,0x8(%rsi,%r15,1)
    aa40:	00 00 
    aa42:	48 89 15 07 77 00 00 	mov    %rdx,0x7707(%rip)        # 12150 <_gm_+0x30>
    aa49:	e9 24 fe ff ff       	jmpq   a872 <dlmalloc+0xbe2>
    aa4e:	45 31 f6             	xor    %r14d,%r14d
    aa51:	48 8d 15 b8 7a 00 00 	lea    0x7ab8(%rip),%rdx        # 12510 <malloc_global_mutex>
    aa58:	be 01 00 00 00       	mov    $0x1,%esi
    aa5d:	0f 1f 00             	nopl   (%rax)
    aa60:	8b 02                	mov    (%rdx),%eax
    aa62:	85 c0                	test   %eax,%eax
    aa64:	75 fa                	jne    aa60 <dlmalloc+0xdd0>
    aa66:	89 f0                	mov    %esi,%eax
    aa68:	87 05 a2 7a 00 00    	xchg   %eax,0x7aa2(%rip)        # 12510 <malloc_global_mutex>
    aa6e:	85 c0                	test   %eax,%eax
    aa70:	75 ee                	jne    aa60 <dlmalloc+0xdd0>
    aa72:	4d 85 f6             	test   %r14,%r14
    aa75:	0f 84 56 f6 ff ff    	je     a0d1 <dlmalloc+0x441>
    aa7b:	48 8b 05 6e 7a 00 00 	mov    0x7a6e(%rip),%rax        # 124f0 <mparams+0x10>
    aa82:	4c 8d 78 5f          	lea    0x5f(%rax),%r15
    aa86:	4c 2b 3d a3 76 00 00 	sub    0x76a3(%rip),%r15        # 12130 <_gm_+0x10>
    aa8d:	48 f7 d8             	neg    %rax
    aa90:	49 01 ef             	add    %rbp,%r15
    aa93:	49 21 c7             	and    %rax,%r15
    aa96:	48 b8 fe ff ff ff ff 	movabs $0x7ffffffffffffffe,%rax
    aa9d:	ff ff 7f 
    aaa0:	49 39 c7             	cmp    %rax,%r15
    aaa3:	0f 87 9f f6 ff ff    	ja     a148 <dlmalloc+0x4b8>
    aaa9:	4c 89 ff             	mov    %r15,%rdi
    aaac:	48 89 0c 24          	mov    %rcx,(%rsp)
    aab0:	e8 db 21 00 00       	callq  cc90 <sbrk>
    aab5:	48 89 c3             	mov    %rax,%rbx
    aab8:	49 8b 46 08          	mov    0x8(%r14),%rax
    aabc:	49 03 06             	add    (%r14),%rax
    aabf:	48 8b 0c 24          	mov    (%rsp),%rcx
    aac3:	48 39 c3             	cmp    %rax,%rbx
    aac6:	75 06                	jne    aace <dlmalloc+0xe3e>
    aac8:	48 83 fb ff          	cmp    $0xffffffffffffffff,%rbx
    aacc:	75 41                	jne    ab0f <dlmalloc+0xe7f>
    aace:	48 83 fb ff          	cmp    $0xffffffffffffffff,%rbx
    aad2:	0f 84 70 f6 ff ff    	je     a148 <dlmalloc+0x4b8>
    aad8:	48 8d 45 60          	lea    0x60(%rbp),%rax
    aadc:	4c 39 f8             	cmp    %r15,%rax
    aadf:	76 2e                	jbe    ab0f <dlmalloc+0xe7f>
    aae1:	48 8b 05 08 7a 00 00 	mov    0x7a08(%rip),%rax        # 124f0 <mparams+0x10>
    aae8:	4d 89 fe             	mov    %r15,%r14
    aaeb:	49 f7 de             	neg    %r14
    aaee:	48 8d 54 05 5f       	lea    0x5f(%rbp,%rax,1),%rdx
    aaf3:	48 f7 d8             	neg    %rax
    aaf6:	4c 29 fa             	sub    %r15,%rdx
    aaf9:	48 21 c2             	and    %rax,%rdx
    aafc:	48 b8 fe ff ff ff ff 	movabs $0x7ffffffffffffffe,%rax
    ab03:	ff ff 7f 
    ab06:	48 39 c2             	cmp    %rax,%rdx
    ab09:	0f 86 13 0a 00 00    	jbe    b522 <dlmalloc+0x1892>
    ab0f:	c7 05 f7 79 00 00 00 	movl   $0x0,0x79f7(%rip)        # 12510 <malloc_global_mutex>
    ab16:	00 00 00 
    ab19:	e9 3b fb ff ff       	jmpq   a659 <dlmalloc+0x9c9>
    ab1e:	48 89 e9             	mov    %rbp,%rcx
    ab21:	48 01 dd             	add    %rbx,%rbp
    ab24:	48 83 c9 03          	or     $0x3,%rcx
    ab28:	48 89 4b 08          	mov    %rcx,0x8(%rbx)
    ab2c:	48 89 d1             	mov    %rdx,%rcx
    ab2f:	48 89 7d 00          	mov    %rdi,0x0(%rbp)
    ab33:	48 83 c9 01          	or     $0x1,%rcx
    ab37:	48 85 f6             	test   %rsi,%rsi
    ab3a:	48 89 4d 08          	mov    %rcx,0x8(%rbp)
    ab3e:	48 89 10             	mov    %rdx,(%rax)
    ab41:	74 4c                	je     ab8f <dlmalloc+0xeff>
    ab43:	48 c1 ee 03          	shr    $0x3,%rsi
    ab47:	44 8b 05 d2 75 00 00 	mov    0x75d2(%rip),%r8d        # 12120 <_gm_>
    ab4e:	41 b9 01 00 00 00    	mov    $0x1,%r9d
    ab54:	48 89 f1             	mov    %rsi,%rcx
    ab57:	8d 3c 36             	lea    (%rsi,%rsi,1),%edi
    ab5a:	48 8b 05 df 75 00 00 	mov    0x75df(%rip),%rax        # 12140 <_gm_+0x20>
    ab61:	41 d3 e1             	shl    %cl,%r9d
    ab64:	45 85 c8             	test   %r9d,%r8d
    ab67:	49 8d 7c fd 48       	lea    0x48(%r13,%rdi,8),%rdi
    ab6c:	0f 85 40 04 00 00    	jne    afb2 <dlmalloc+0x1322>
    ab72:	45 09 c8             	or     %r9d,%r8d
    ab75:	48 89 f9             	mov    %rdi,%rcx
    ab78:	44 89 05 a1 75 00 00 	mov    %r8d,0x75a1(%rip)        # 12120 <_gm_>
    ab7f:	48 89 47 10          	mov    %rax,0x10(%rdi)
    ab83:	48 89 41 18          	mov    %rax,0x18(%rcx)
    ab87:	48 89 48 10          	mov    %rcx,0x10(%rax)
    ab8b:	48 89 78 18          	mov    %rdi,0x18(%rax)
    ab8f:	48 89 15 92 75 00 00 	mov    %rdx,0x7592(%rip)        # 12128 <_gm_+0x8>
    ab96:	48 89 2d a3 75 00 00 	mov    %rbp,0x75a3(%rip)        # 12140 <_gm_+0x20>
    ab9d:	e9 e9 f2 ff ff       	jmpq   9e8b <dlmalloc+0x1fb>
    aba2:	48 8b 05 8f 75 00 00 	mov    0x758f(%rip),%rax        # 12138 <_gm_+0x18>
    aba9:	48 39 d8             	cmp    %rbx,%rax
    abac:	77 05                	ja     abb3 <dlmalloc+0xf23>
    abae:	48 85 c0             	test   %rax,%rax
    abb1:	75 07                	jne    abba <dlmalloc+0xf2a>
    abb3:	48 89 1d 7e 75 00 00 	mov    %rbx,0x757e(%rip)        # 12138 <_gm_+0x18>
    abba:	48 8b 05 1f 79 00 00 	mov    0x791f(%rip),%rax        # 124e0 <mparams>
    abc1:	48 89 1d d0 78 00 00 	mov    %rbx,0x78d0(%rip)        # 12498 <_gm_+0x378>
    abc8:	4c 89 3d d1 78 00 00 	mov    %r15,0x78d1(%rip)        # 124a0 <_gm_+0x380>
    abcf:	c7 05 d7 78 00 00 00 	movl   $0x0,0x78d7(%rip)        # 124b0 <_gm_+0x390>
    abd6:	00 00 00 
    abd9:	48 c7 05 74 75 00 00 	movq   $0xffffffffffffffff,0x7574(%rip)        # 12158 <_gm_+0x38>
    abe0:	ff ff ff ff 
    abe4:	48 89 05 75 75 00 00 	mov    %rax,0x7575(%rip)        # 12160 <_gm_+0x40>
    abeb:	48 8d 05 76 75 00 00 	lea    0x7576(%rip),%rax        # 12168 <_gm_+0x48>
    abf2:	48 8d 90 00 02 00 00 	lea    0x200(%rax),%rdx
    abf9:	0f 1f 80 00 00 00 00 	nopl   0x0(%rax)
    ac00:	48 89 40 18          	mov    %rax,0x18(%rax)
    ac04:	48 89 40 10          	mov    %rax,0x10(%rax)
    ac08:	48 83 c0 10          	add    $0x10,%rax
    ac0c:	48 39 c2             	cmp    %rax,%rdx
    ac0f:	75 ef                	jne    ac00 <dlmalloc+0xf70>
    ac11:	48 8d 43 10          	lea    0x10(%rbx),%rax
    ac15:	49 83 ef 50          	sub    $0x50,%r15
    ac19:	a8 0f                	test   $0xf,%al
    ac1b:	0f 84 6f 02 00 00    	je     ae90 <dlmalloc+0x1200>
    ac21:	48 f7 d8             	neg    %rax
    ac24:	4c 89 fe             	mov    %r15,%rsi
    ac27:	83 e0 0f             	and    $0xf,%eax
    ac2a:	48 29 c6             	sub    %rax,%rsi
    ac2d:	48 8d 14 03          	lea    (%rbx,%rax,1),%rdx
    ac31:	48 89 f0             	mov    %rsi,%rax
    ac34:	48 89 c1             	mov    %rax,%rcx
    ac37:	48 89 15 0a 75 00 00 	mov    %rdx,0x750a(%rip)        # 12148 <_gm_+0x28>
    ac3e:	48 89 05 eb 74 00 00 	mov    %rax,0x74eb(%rip)        # 12130 <_gm_+0x10>
    ac45:	48 83 c9 01          	or     $0x1,%rcx
    ac49:	48 89 4a 08          	mov    %rcx,0x8(%rdx)
    ac4d:	48 8b 15 ac 78 00 00 	mov    0x78ac(%rip),%rdx        # 12500 <mparams+0x20>
    ac54:	4a c7 44 3b 08 50 00 	movq   $0x50,0x8(%rbx,%r15,1)
    ac5b:	00 00 
    ac5d:	48 89 15 ec 74 00 00 	mov    %rdx,0x74ec(%rip)        # 12150 <_gm_+0x30>
    ac64:	e9 09 fc ff ff       	jmpq   a872 <dlmalloc+0xbe2>
    ac69:	4d 85 db             	test   %r11,%r11
    ac6c:	4c 89 ca             	mov    %r9,%rdx
    ac6f:	4c 89 d8             	mov    %r11,%rax
    ac72:	0f 85 db f5 ff ff    	jne    a253 <dlmalloc+0x5c3>
    ac78:	e9 fe f5 ff ff       	jmpq   a27b <dlmalloc+0x5eb>
    ac7d:	0f bd c0             	bsr    %eax,%eax
    ac80:	b9 26 00 00 00       	mov    $0x26,%ecx
    ac85:	48 89 ea             	mov    %rbp,%rdx
    ac88:	83 f0 1f             	xor    $0x1f,%eax
    ac8b:	29 c1                	sub    %eax,%ecx
    ac8d:	48 d3 ea             	shr    %cl,%rdx
    ac90:	b9 1f 00 00 00       	mov    $0x1f,%ecx
    ac95:	83 e2 01             	and    $0x1,%edx
    ac98:	29 c1                	sub    %eax,%ecx
    ac9a:	8d 04 4a             	lea    (%rdx,%rcx,2),%eax
    ac9d:	49 89 c2             	mov    %rax,%r10
    aca0:	49 8b 84 c5 58 02 00 	mov    0x258(%r13,%rax,8),%rax
    aca7:	00 
    aca8:	48 85 c0             	test   %rax,%rax
    acab:	0f 84 67 f5 ff ff    	je     a218 <dlmalloc+0x588>
    acb1:	41 83 fa 1f          	cmp    $0x1f,%r10d
    acb5:	48 89 e9             	mov    %rbp,%rcx
    acb8:	0f 84 f8 f4 ff ff    	je     a1b6 <dlmalloc+0x526>
    acbe:	44 89 d2             	mov    %r10d,%edx
    acc1:	b9 39 00 00 00       	mov    $0x39,%ecx
    acc6:	d1 ea                	shr    %edx
    acc8:	29 d1                	sub    %edx,%ecx
    acca:	e9 de f4 ff ff       	jmpq   a1ad <dlmalloc+0x51d>
    accf:	4c 89 c8             	mov    %r9,%rax
    acd2:	49 89 d8             	mov    %rbx,%r8
    acd5:	e9 8e fa ff ff       	jmpq   a768 <dlmalloc+0xad8>
    acda:	48 89 c3             	mov    %rax,%rbx
    acdd:	e9 71 f5 ff ff       	jmpq   a253 <dlmalloc+0x5c3>
    ace2:	48 89 e8             	mov    %rbp,%rax
    ace5:	48 83 c8 03          	or     $0x3,%rax
    ace9:	48 89 43 08          	mov    %rax,0x8(%rbx)
    aced:	49 89 0a             	mov    %rcx,(%r10)
    acf0:	48 89 d1             	mov    %rdx,%rcx
    acf3:	48 89 d0             	mov    %rdx,%rax
    acf6:	48 c1 e9 03          	shr    $0x3,%rcx
    acfa:	48 83 c8 01          	or     $0x1,%rax
    acfe:	48 83 f9 1f          	cmp    $0x1f,%rcx
    ad02:	49 89 42 08          	mov    %rax,0x8(%r10)
    ad06:	49 89 14 12          	mov    %rdx,(%r10,%rdx,1)
    ad0a:	0f 87 e0 01 00 00    	ja     aef0 <dlmalloc+0x1260>
    ad10:	8b 15 0a 74 00 00    	mov    0x740a(%rip),%edx        # 12120 <_gm_>
    ad16:	bf 01 00 00 00       	mov    $0x1,%edi
    ad1b:	8d 04 09             	lea    (%rcx,%rcx,1),%eax
    ad1e:	d3 e7                	shl    %cl,%edi
    ad20:	49 8d 44 c5 48       	lea    0x48(%r13,%rax,8),%rax
    ad25:	85 fa                	test   %edi,%edx
    ad27:	0f 85 e6 02 00 00    	jne    b013 <dlmalloc+0x1383>
    ad2d:	09 fa                	or     %edi,%edx
    ad2f:	89 15 eb 73 00 00    	mov    %edx,0x73eb(%rip)        # 12120 <_gm_>
    ad35:	48 89 c2             	mov    %rax,%rdx
    ad38:	4c 89 50 10          	mov    %r10,0x10(%rax)
    ad3c:	4c 89 52 18          	mov    %r10,0x18(%rdx)
    ad40:	49 89 52 10          	mov    %rdx,0x10(%r10)
    ad44:	49 89 42 18          	mov    %rax,0x18(%r10)
    ad48:	e9 3f f6 ff ff       	jmpq   a38c <dlmalloc+0x6fc>
    ad4d:	48 8b 4b 28          	mov    0x28(%rbx),%rcx
    ad51:	48 8d 7b 28          	lea    0x28(%rbx),%rdi
    ad55:	48 85 c9             	test   %rcx,%rcx
    ad58:	0f 84 9f 02 00 00    	je     affd <dlmalloc+0x136d>
    ad5e:	66 90                	xchg   %ax,%ax
    ad60:	48 89 c8             	mov    %rcx,%rax
    ad63:	48 8b 49 28          	mov    0x28(%rcx),%rcx
    ad67:	49 89 f9             	mov    %rdi,%r9
    ad6a:	48 8d 78 28          	lea    0x28(%rax),%rdi
    ad6e:	48 85 c9             	test   %rcx,%rcx
    ad71:	75 ed                	jne    ad60 <dlmalloc+0x10d0>
    ad73:	48 8b 48 20          	mov    0x20(%rax),%rcx
    ad77:	48 8d 78 20          	lea    0x20(%rax),%rdi
    ad7b:	48 85 c9             	test   %rcx,%rcx
    ad7e:	75 e0                	jne    ad60 <dlmalloc+0x10d0>
    ad80:	4d 39 cb             	cmp    %r9,%r11
    ad83:	0f 87 47 f6 ff ff    	ja     a3d0 <dlmalloc+0x740>
    ad89:	49 c7 01 00 00 00 00 	movq   $0x0,(%r9)
    ad90:	e9 55 f5 ff ff       	jmpq   a2ea <dlmalloc+0x65a>
    ad95:	48 89 f8             	mov    %rdi,%rax
    ad98:	48 c1 e8 08          	shr    $0x8,%rax
    ad9c:	85 c0                	test   %eax,%eax
    ad9e:	0f 84 e4 01 00 00    	je     af88 <dlmalloc+0x12f8>
    ada4:	3d ff ff 00 00       	cmp    $0xffff,%eax
    ada9:	0f 87 ab 03 00 00    	ja     b15a <dlmalloc+0x14ca>
    adaf:	0f bd c0             	bsr    %eax,%eax
    adb2:	b9 26 00 00 00       	mov    $0x26,%ecx
    adb7:	48 89 fa             	mov    %rdi,%rdx
    adba:	83 f0 1f             	xor    $0x1f,%eax
    adbd:	29 c1                	sub    %eax,%ecx
    adbf:	48 d3 ea             	shr    %cl,%rdx
    adc2:	b9 1f 00 00 00       	mov    $0x1f,%ecx
    adc7:	29 c1                	sub    %eax,%ecx
    adc9:	83 e2 01             	and    $0x1,%edx
    adcc:	b8 01 00 00 00       	mov    $0x1,%eax
    add1:	8d 14 4a             	lea    (%rdx,%rcx,2),%edx
    add4:	48 89 d1             	mov    %rdx,%rcx
    add7:	4c 8d 04 d5 58 02 00 	lea    0x258(,%rdx,8),%r8
    adde:	00 
    addf:	d3 e0                	shl    %cl,%eax
    ade1:	44 8b 0d 3c 73 00 00 	mov    0x733c(%rip),%r9d        # 12124 <_gm_+0x4>
    ade8:	89 4e 38             	mov    %ecx,0x38(%rsi)
    adeb:	48 c7 46 28 00 00 00 	movq   $0x0,0x28(%rsi)
    adf2:	00 
    adf3:	48 c7 46 20 00 00 00 	movq   $0x0,0x20(%rsi)
    adfa:	00 
    adfb:	44 85 c8             	test   %r9d,%eax
    adfe:	0f 84 c4 01 00 00    	je     afc8 <dlmalloc+0x1338>
    ae04:	83 f9 1f             	cmp    $0x1f,%ecx
    ae07:	49 8b 94 d5 58 02 00 	mov    0x258(%r13,%rdx,8),%rdx
    ae0e:	00 
    ae0f:	49 89 f8             	mov    %rdi,%r8
    ae12:	74 2e                	je     ae42 <dlmalloc+0x11b2>
    ae14:	d1 e9                	shr    %ecx
    ae16:	b8 39 00 00 00       	mov    $0x39,%eax
    ae1b:	29 c8                	sub    %ecx,%eax
    ae1d:	89 c1                	mov    %eax,%ecx
    ae1f:	49 d3 e0             	shl    %cl,%r8
    ae22:	eb 1e                	jmp    ae42 <dlmalloc+0x11b2>
    ae24:	4c 89 c0             	mov    %r8,%rax
    ae27:	4d 01 c0             	add    %r8,%r8
    ae2a:	48 c1 e8 3f          	shr    $0x3f,%rax
    ae2e:	48 83 c0 04          	add    $0x4,%rax
    ae32:	48 8b 0c c2          	mov    (%rdx,%rax,8),%rcx
    ae36:	48 85 c9             	test   %rcx,%rcx
    ae39:	0f 84 ee 02 00 00    	je     b12d <dlmalloc+0x149d>
    ae3f:	48 89 ca             	mov    %rcx,%rdx
    ae42:	48 8b 42 08          	mov    0x8(%rdx),%rax
    ae46:	48 83 e0 f8          	and    $0xfffffffffffffff8,%rax
    ae4a:	48 39 c7             	cmp    %rax,%rdi
    ae4d:	75 d5                	jne    ae24 <dlmalloc+0x1194>
    ae4f:	48 8b 42 10          	mov    0x10(%rdx),%rax
    ae53:	48 8b 0d de 72 00 00 	mov    0x72de(%rip),%rcx        # 12138 <_gm_+0x18>
    ae5a:	48 39 c8             	cmp    %rcx,%rax
    ae5d:	0f 82 6d f5 ff ff    	jb     a3d0 <dlmalloc+0x740>
    ae63:	48 39 ca             	cmp    %rcx,%rdx
    ae66:	0f 82 64 f5 ff ff    	jb     a3d0 <dlmalloc+0x740>
    ae6c:	48 89 70 18          	mov    %rsi,0x18(%rax)
    ae70:	48 89 72 10          	mov    %rsi,0x10(%rdx)
    ae74:	48 89 46 10          	mov    %rax,0x10(%rsi)
    ae78:	48 89 56 18          	mov    %rdx,0x18(%rsi)
    ae7c:	48 c7 46 30 00 00 00 	movq   $0x0,0x30(%rsi)
    ae83:	00 
    ae84:	48 8b 05 a5 72 00 00 	mov    0x72a5(%rip),%rax        # 12130 <_gm_+0x10>
    ae8b:	e9 e2 f9 ff ff       	jmpq   a872 <dlmalloc+0xbe2>
    ae90:	4c 89 f8             	mov    %r15,%rax
    ae93:	48 89 da             	mov    %rbx,%rdx
    ae96:	e9 99 fd ff ff       	jmpq   ac34 <dlmalloc+0xfa4>
    ae9b:	4c 89 ca             	mov    %r9,%rdx
    ae9e:	b8 fe ff ff ff       	mov    $0xfffffffe,%eax
    aea3:	e9 7d f3 ff ff       	jmpq   a225 <dlmalloc+0x595>
    aea8:	48 8b 05 81 72 00 00 	mov    0x7281(%rip),%rax        # 12130 <_gm_+0x10>
    aeaf:	e9 be f9 ff ff       	jmpq   a872 <dlmalloc+0xbe2>
    aeb4:	b8 01 00 00 00       	mov    $0x1,%eax
    aeb9:	87 05 51 76 00 00    	xchg   %eax,0x7651(%rip)        # 12510 <malloc_global_mutex>
    aebf:	85 c0                	test   %eax,%eax
    aec1:	0f 84 b4 fb ff ff    	je     aa7b <dlmalloc+0xdeb>
    aec7:	e9 85 fb ff ff       	jmpq   aa51 <dlmalloc+0xdc1>
    aecc:	48 85 c0             	test   %rax,%rax
    aecf:	49 89 44 fd 08       	mov    %rax,0x8(%r13,%rdi,8)
    aed4:	0f 85 46 f4 ff ff    	jne    a320 <dlmalloc+0x690>
    aeda:	b8 fe ff ff ff       	mov    $0xfffffffe,%eax
    aedf:	d3 c0                	rol    %cl,%eax
    aee1:	41 21 c0             	and    %eax,%r8d
    aee4:	44 89 05 39 72 00 00 	mov    %r8d,0x7239(%rip)        # 12124 <_gm_+0x4>
    aeeb:	e9 6d f4 ff ff       	jmpq   a35d <dlmalloc+0x6cd>
    aef0:	48 89 d0             	mov    %rdx,%rax
    aef3:	48 c1 e8 08          	shr    $0x8,%rax
    aef7:	85 c0                	test   %eax,%eax
    aef9:	0f 84 af 01 00 00    	je     b0ae <dlmalloc+0x141e>
    aeff:	3d ff ff 00 00       	cmp    $0xffff,%eax
    af04:	0f 87 b4 03 00 00    	ja     b2be <dlmalloc+0x162e>
    af0a:	0f bd c0             	bsr    %eax,%eax
    af0d:	b9 26 00 00 00       	mov    $0x26,%ecx
    af12:	48 89 d7             	mov    %rdx,%rdi
    af15:	83 f0 1f             	xor    $0x1f,%eax
    af18:	29 c1                	sub    %eax,%ecx
    af1a:	48 d3 ef             	shr    %cl,%rdi
    af1d:	48 89 f9             	mov    %rdi,%rcx
    af20:	bf 1f 00 00 00       	mov    $0x1f,%edi
    af25:	83 e1 01             	and    $0x1,%ecx
    af28:	29 c7                	sub    %eax,%edi
    af2a:	b8 01 00 00 00       	mov    $0x1,%eax
    af2f:	8d 3c 79             	lea    (%rcx,%rdi,2),%edi
    af32:	48 89 f9             	mov    %rdi,%rcx
    af35:	4c 8d 04 fd 58 02 00 	lea    0x258(,%rdi,8),%r8
    af3c:	00 
    af3d:	d3 e0                	shl    %cl,%eax
    af3f:	44 8b 0d de 71 00 00 	mov    0x71de(%rip),%r9d        # 12124 <_gm_+0x4>
    af46:	41 89 4a 38          	mov    %ecx,0x38(%r10)
    af4a:	49 c7 42 28 00 00 00 	movq   $0x0,0x28(%r10)
    af51:	00 
    af52:	49 c7 42 20 00 00 00 	movq   $0x0,0x20(%r10)
    af59:	00 
    af5a:	41 85 c1             	test   %eax,%r9d
    af5d:	0f 85 c2 00 00 00    	jne    b025 <dlmalloc+0x1395>
    af63:	44 09 c8             	or     %r9d,%eax
    af66:	4d 01 e8             	add    %r13,%r8
    af69:	4d 89 94 fd 58 02 00 	mov    %r10,0x258(%r13,%rdi,8)
    af70:	00 
    af71:	89 05 ad 71 00 00    	mov    %eax,0x71ad(%rip)        # 12124 <_gm_+0x4>
    af77:	4d 89 42 30          	mov    %r8,0x30(%r10)
    af7b:	4d 89 52 18          	mov    %r10,0x18(%r10)
    af7f:	4d 89 52 10          	mov    %r10,0x10(%r10)
    af83:	e9 04 f4 ff ff       	jmpq   a38c <dlmalloc+0x6fc>
    af88:	41 b8 58 02 00 00    	mov    $0x258,%r8d
    af8e:	b8 01 00 00 00       	mov    $0x1,%eax
    af93:	31 c9                	xor    %ecx,%ecx
    af95:	31 d2                	xor    %edx,%edx
    af97:	e9 45 fe ff ff       	jmpq   ade1 <dlmalloc+0x1151>
    af9c:	48 8b 47 10          	mov    0x10(%rdi),%rax
    afa0:	48 3b 05 91 71 00 00 	cmp    0x7191(%rip),%rax        # 12138 <_gm_+0x18>
    afa7:	0f 83 ae f8 ff ff    	jae    a85b <dlmalloc+0xbcb>
    afad:	e9 1e f4 ff ff       	jmpq   a3d0 <dlmalloc+0x740>
    afb2:	48 8b 4f 10          	mov    0x10(%rdi),%rcx
    afb6:	48 3b 0d 7b 71 00 00 	cmp    0x717b(%rip),%rcx        # 12138 <_gm_+0x18>
    afbd:	0f 83 bc fb ff ff    	jae    ab7f <dlmalloc+0xeef>
    afc3:	e9 08 f4 ff ff       	jmpq   a3d0 <dlmalloc+0x740>
    afc8:	44 09 c8             	or     %r9d,%eax
    afcb:	4d 01 e8             	add    %r13,%r8
    afce:	49 89 b4 d5 58 02 00 	mov    %rsi,0x258(%r13,%rdx,8)
    afd5:	00 
    afd6:	89 05 48 71 00 00    	mov    %eax,0x7148(%rip)        # 12124 <_gm_+0x4>
    afdc:	4c 89 46 30          	mov    %r8,0x30(%rsi)
    afe0:	48 89 76 18          	mov    %rsi,0x18(%rsi)
    afe4:	48 89 76 10          	mov    %rsi,0x10(%rsi)
    afe8:	48 8b 05 41 71 00 00 	mov    0x7141(%rip),%rax        # 12130 <_gm_+0x10>
    afef:	e9 7e f8 ff ff       	jmpq   a872 <dlmalloc+0xbe2>
    aff4:	49 89 46 20          	mov    %rax,0x20(%r14)
    aff8:	e9 1e f3 ff ff       	jmpq   a31b <dlmalloc+0x68b>
    affd:	48 8b 4b 20          	mov    0x20(%rbx),%rcx
    b001:	48 85 c9             	test   %rcx,%rcx
    b004:	0f 84 98 04 00 00    	je     b4a2 <dlmalloc+0x1812>
    b00a:	48 8d 7b 20          	lea    0x20(%rbx),%rdi
    b00e:	e9 4d fd ff ff       	jmpq   ad60 <dlmalloc+0x10d0>
    b013:	48 8b 50 10          	mov    0x10(%rax),%rdx
    b017:	49 39 d3             	cmp    %rdx,%r11
    b01a:	0f 86 18 fd ff ff    	jbe    ad38 <dlmalloc+0x10a8>
    b020:	e9 ab f3 ff ff       	jmpq   a3d0 <dlmalloc+0x740>
    b025:	83 f9 1f             	cmp    $0x1f,%ecx
    b028:	49 8b 84 fd 58 02 00 	mov    0x258(%r13,%rdi,8),%rax
    b02f:	00 
    b030:	48 89 d7             	mov    %rdx,%rdi
    b033:	74 39                	je     b06e <dlmalloc+0x13de>
    b035:	d1 e9                	shr    %ecx
    b037:	bf 39 00 00 00       	mov    $0x39,%edi
    b03c:	29 cf                	sub    %ecx,%edi
    b03e:	89 f9                	mov    %edi,%ecx
    b040:	48 89 d7             	mov    %rdx,%rdi
    b043:	48 d3 e7             	shl    %cl,%rdi
    b046:	eb 26                	jmp    b06e <dlmalloc+0x13de>
    b048:	0f 1f 84 00 00 00 00 	nopl   0x0(%rax,%rax,1)
    b04f:	00 
    b050:	48 89 f9             	mov    %rdi,%rcx
    b053:	48 01 ff             	add    %rdi,%rdi
    b056:	48 c1 e9 3f          	shr    $0x3f,%rcx
    b05a:	48 83 c1 04          	add    $0x4,%rcx
    b05e:	4c 8b 04 c8          	mov    (%rax,%rcx,8),%r8
    b062:	4d 85 c0             	test   %r8,%r8
    b065:	0f 84 6d 02 00 00    	je     b2d8 <dlmalloc+0x1648>
    b06b:	4c 89 c0             	mov    %r8,%rax
    b06e:	48 8b 48 08          	mov    0x8(%rax),%rcx
    b072:	48 83 e1 f8          	and    $0xfffffffffffffff8,%rcx
    b076:	48 39 d1             	cmp    %rdx,%rcx
    b079:	75 d5                	jne    b050 <dlmalloc+0x13c0>
    b07b:	48 8b 50 10          	mov    0x10(%rax),%rdx
    b07f:	49 39 d3             	cmp    %rdx,%r11
    b082:	0f 87 48 f3 ff ff    	ja     a3d0 <dlmalloc+0x740>
    b088:	49 39 c3             	cmp    %rax,%r11
    b08b:	0f 87 3f f3 ff ff    	ja     a3d0 <dlmalloc+0x740>
    b091:	4c 89 52 18          	mov    %r10,0x18(%rdx)
    b095:	4c 89 50 10          	mov    %r10,0x10(%rax)
    b099:	49 89 52 10          	mov    %rdx,0x10(%r10)
    b09d:	49 89 42 18          	mov    %rax,0x18(%r10)
    b0a1:	49 c7 42 30 00 00 00 	movq   $0x0,0x30(%r10)
    b0a8:	00 
    b0a9:	e9 de f2 ff ff       	jmpq   a38c <dlmalloc+0x6fc>
    b0ae:	41 b8 58 02 00 00    	mov    $0x258,%r8d
    b0b4:	b8 01 00 00 00       	mov    $0x1,%eax
    b0b9:	31 c9                	xor    %ecx,%ecx
    b0bb:	31 ff                	xor    %edi,%edi
    b0bd:	e9 7d fe ff ff       	jmpq   af3f <dlmalloc+0x12af>
    b0c2:	48 8d 44 3d 00       	lea    0x0(%rbp,%rdi,1),%rax
    b0c7:	48 89 c2             	mov    %rax,%rdx
    b0ca:	48 01 d8             	add    %rbx,%rax
    b0cd:	48 83 ca 03          	or     $0x3,%rdx
    b0d1:	48 89 53 08          	mov    %rdx,0x8(%rbx)
    b0d5:	48 83 48 08 01       	orq    $0x1,0x8(%rax)
    b0da:	48 89 08             	mov    %rcx,(%rax)
    b0dd:	e9 a9 f4 ff ff       	jmpq   a58b <dlmalloc+0x8fb>
    b0e2:	48 8b 4b 28          	mov    0x28(%rbx),%rcx
    b0e6:	4c 8d 4b 28          	lea    0x28(%rbx),%r9
    b0ea:	48 85 c9             	test   %rcx,%rcx
    b0ed:	0f 84 96 03 00 00    	je     b489 <dlmalloc+0x17f9>
    b0f3:	0f 1f 44 00 00       	nopl   0x0(%rax,%rax,1)
    b0f8:	48 89 c8             	mov    %rcx,%rax
    b0fb:	48 8b 49 28          	mov    0x28(%rcx),%rcx
    b0ff:	4d 89 ca             	mov    %r9,%r10
    b102:	4c 8d 48 28          	lea    0x28(%rax),%r9
    b106:	48 85 c9             	test   %rcx,%rcx
    b109:	75 ed                	jne    b0f8 <dlmalloc+0x1468>
    b10b:	48 8b 48 20          	mov    0x20(%rax),%rcx
    b10f:	4c 8d 48 20          	lea    0x20(%rax),%r9
    b113:	48 85 c9             	test   %rcx,%rcx
    b116:	75 e0                	jne    b0f8 <dlmalloc+0x1468>
    b118:	4d 39 d6             	cmp    %r10,%r14
    b11b:	0f 87 af f2 ff ff    	ja     a3d0 <dlmalloc+0x740>
    b121:	49 c7 02 00 00 00 00 	movq   $0x0,(%r10)
    b128:	e9 5d f3 ff ff       	jmpq   a48a <dlmalloc+0x7fa>
    b12d:	48 8d 0c c2          	lea    (%rdx,%rax,8),%rcx
    b131:	48 39 0d 00 70 00 00 	cmp    %rcx,0x7000(%rip)        # 12138 <_gm_+0x18>
    b138:	0f 87 92 f2 ff ff    	ja     a3d0 <dlmalloc+0x740>
    b13e:	48 89 34 c2          	mov    %rsi,(%rdx,%rax,8)
    b142:	48 89 56 30          	mov    %rdx,0x30(%rsi)
    b146:	48 89 76 18          	mov    %rsi,0x18(%rsi)
    b14a:	48 89 76 10          	mov    %rsi,0x10(%rsi)
    b14e:	48 8b 05 db 6f 00 00 	mov    0x6fdb(%rip),%rax        # 12130 <_gm_+0x10>
    b155:	e9 18 f7 ff ff       	jmpq   a872 <dlmalloc+0xbe2>
    b15a:	41 b8 50 03 00 00    	mov    $0x350,%r8d
    b160:	b8 00 00 00 80       	mov    $0x80000000,%eax
    b165:	b9 1f 00 00 00       	mov    $0x1f,%ecx
    b16a:	ba 1f 00 00 00       	mov    $0x1f,%edx
    b16f:	e9 6d fc ff ff       	jmpq   ade1 <dlmalloc+0x1151>
    b174:	48 03 3d b5 6f 00 00 	add    0x6fb5(%rip),%rdi        # 12130 <_gm_+0x10>
    b17b:	48 89 05 c6 6f 00 00 	mov    %rax,0x6fc6(%rip)        # 12148 <_gm_+0x28>
    b182:	48 89 3d a7 6f 00 00 	mov    %rdi,0x6fa7(%rip)        # 12130 <_gm_+0x10>
    b189:	48 83 cf 01          	or     $0x1,%rdi
    b18d:	48 89 78 08          	mov    %rdi,0x8(%rax)
    b191:	e9 f5 ec ff ff       	jmpq   9e8b <dlmalloc+0x1fb>
    b196:	4c 89 f8             	mov    %r15,%rax
    b199:	48 89 f2             	mov    %rsi,%rdx
    b19c:	e9 78 f8 ff ff       	jmpq   aa19 <dlmalloc+0xd89>
    b1a1:	48 89 fa             	mov    %rdi,%rdx
    b1a4:	48 c1 ea 08          	shr    $0x8,%rdx
    b1a8:	85 d2                	test   %edx,%edx
    b1aa:	0f 84 c5 02 00 00    	je     b475 <dlmalloc+0x17e5>
    b1b0:	81 fa ff ff 00 00    	cmp    $0xffff,%edx
    b1b6:	0f 87 e5 03 00 00    	ja     b5a1 <dlmalloc+0x1911>
    b1bc:	0f bd d2             	bsr    %edx,%edx
    b1bf:	b9 26 00 00 00       	mov    $0x26,%ecx
    b1c4:	48 89 fe             	mov    %rdi,%rsi
    b1c7:	83 f2 1f             	xor    $0x1f,%edx
    b1ca:	29 d1                	sub    %edx,%ecx
    b1cc:	48 d3 ee             	shr    %cl,%rsi
    b1cf:	48 89 f1             	mov    %rsi,%rcx
    b1d2:	be 1f 00 00 00       	mov    $0x1f,%esi
    b1d7:	83 e1 01             	and    $0x1,%ecx
    b1da:	29 d6                	sub    %edx,%esi
    b1dc:	ba 01 00 00 00       	mov    $0x1,%edx
    b1e1:	8d 34 71             	lea    (%rcx,%rsi,2),%esi
    b1e4:	89 f1                	mov    %esi,%ecx
    b1e6:	d3 e2                	shl    %cl,%edx
    b1e8:	89 f1                	mov    %esi,%ecx
    b1ea:	4c 8d 04 cd 58 02 00 	lea    0x258(,%rcx,8),%r8
    b1f1:	00 
    b1f2:	44 8b 0d 2b 6f 00 00 	mov    0x6f2b(%rip),%r9d        # 12124 <_gm_+0x4>
    b1f9:	89 70 38             	mov    %esi,0x38(%rax)
    b1fc:	48 c7 40 28 00 00 00 	movq   $0x0,0x28(%rax)
    b203:	00 
    b204:	48 c7 40 20 00 00 00 	movq   $0x0,0x20(%rax)
    b20b:	00 
    b20c:	41 85 d1             	test   %edx,%r9d
    b20f:	0f 84 3b 02 00 00    	je     b450 <dlmalloc+0x17c0>
    b215:	49 8b 94 cd 58 02 00 	mov    0x258(%r13,%rcx,8),%rdx
    b21c:	00 
    b21d:	31 c9                	xor    %ecx,%ecx
    b21f:	83 fe 1f             	cmp    $0x1f,%esi
    b222:	74 09                	je     b22d <dlmalloc+0x159d>
    b224:	d1 ee                	shr    %esi
    b226:	b9 39 00 00 00       	mov    $0x39,%ecx
    b22b:	29 f1                	sub    %esi,%ecx
    b22d:	48 89 fe             	mov    %rdi,%rsi
    b230:	48 d3 e6             	shl    %cl,%rsi
    b233:	eb 1e                	jmp    b253 <dlmalloc+0x15c3>
    b235:	48 89 f1             	mov    %rsi,%rcx
    b238:	48 01 f6             	add    %rsi,%rsi
    b23b:	48 c1 e9 3f          	shr    $0x3f,%rcx
    b23f:	48 83 c1 04          	add    $0x4,%rcx
    b243:	4c 8b 04 ca          	mov    (%rdx,%rcx,8),%r8
    b247:	4d 85 c0             	test   %r8,%r8
    b24a:	0f 84 2b 03 00 00    	je     b57b <dlmalloc+0x18eb>
    b250:	4c 89 c2             	mov    %r8,%rdx
    b253:	48 8b 4a 08          	mov    0x8(%rdx),%rcx
    b257:	48 83 e1 f8          	and    $0xfffffffffffffff8,%rcx
    b25b:	48 39 cf             	cmp    %rcx,%rdi
    b25e:	75 d5                	jne    b235 <dlmalloc+0x15a5>
    b260:	48 8b 4a 10          	mov    0x10(%rdx),%rcx
    b264:	48 8b 35 cd 6e 00 00 	mov    0x6ecd(%rip),%rsi        # 12138 <_gm_+0x18>
    b26b:	48 39 f1             	cmp    %rsi,%rcx
    b26e:	0f 82 5c f1 ff ff    	jb     a3d0 <dlmalloc+0x740>
    b274:	48 39 f2             	cmp    %rsi,%rdx
    b277:	0f 82 53 f1 ff ff    	jb     a3d0 <dlmalloc+0x740>
    b27d:	48 89 41 18          	mov    %rax,0x18(%rcx)
    b281:	48 89 42 10          	mov    %rax,0x10(%rdx)
    b285:	48 89 48 10          	mov    %rcx,0x10(%rax)
    b289:	48 89 50 18          	mov    %rdx,0x18(%rax)
    b28d:	48 c7 40 30 00 00 00 	movq   $0x0,0x30(%rax)
    b294:	00 
    b295:	e9 f1 eb ff ff       	jmpq   9e8b <dlmalloc+0x1fb>
    b29a:	48 85 c0             	test   %rax,%rax
    b29d:	4b 89 44 cd 08       	mov    %rax,0x8(%r13,%r9,8)
    b2a2:	0f 85 19 f2 ff ff    	jne    a4c1 <dlmalloc+0x831>
    b2a8:	b8 fe ff ff ff       	mov    $0xfffffffe,%eax
    b2ad:	d3 c0                	rol    %cl,%eax
    b2af:	41 21 c0             	and    %eax,%r8d
    b2b2:	44 89 05 6b 6e 00 00 	mov    %r8d,0x6e6b(%rip)        # 12124 <_gm_+0x4>
    b2b9:	e9 44 f2 ff ff       	jmpq   a502 <dlmalloc+0x872>
    b2be:	41 b8 50 03 00 00    	mov    $0x350,%r8d
    b2c4:	b8 00 00 00 80       	mov    $0x80000000,%eax
    b2c9:	b9 1f 00 00 00       	mov    $0x1f,%ecx
    b2ce:	bf 1f 00 00 00       	mov    $0x1f,%edi
    b2d3:	e9 67 fc ff ff       	jmpq   af3f <dlmalloc+0x12af>
    b2d8:	48 8d 14 c8          	lea    (%rax,%rcx,8),%rdx
    b2dc:	49 39 d3             	cmp    %rdx,%r11
    b2df:	0f 87 eb f0 ff ff    	ja     a3d0 <dlmalloc+0x740>
    b2e5:	4c 89 14 c8          	mov    %r10,(%rax,%rcx,8)
    b2e9:	49 89 42 30          	mov    %rax,0x30(%r10)
    b2ed:	4d 89 52 18          	mov    %r10,0x18(%r10)
    b2f1:	4d 89 52 10          	mov    %r10,0x10(%r10)
    b2f5:	e9 92 f0 ff ff       	jmpq   a38c <dlmalloc+0x6fc>
    b2fa:	48 03 3d 27 6e 00 00 	add    0x6e27(%rip),%rdi        # 12128 <_gm_+0x8>
    b301:	48 89 05 38 6e 00 00 	mov    %rax,0x6e38(%rip)        # 12140 <_gm_+0x20>
    b308:	48 89 fa             	mov    %rdi,%rdx
    b30b:	48 89 3d 16 6e 00 00 	mov    %rdi,0x6e16(%rip)        # 12128 <_gm_+0x8>
    b312:	48 83 ca 01          	or     $0x1,%rdx
    b316:	48 89 50 08          	mov    %rdx,0x8(%rax)
    b31a:	48 89 3c 38          	mov    %rdi,(%rax,%rdi,1)
    b31e:	e9 68 eb ff ff       	jmpq   9e8b <dlmalloc+0x1fb>
    b323:	48 83 e1 f8          	and    $0xfffffffffffffff8,%rcx
    b327:	48 8b 72 18          	mov    0x18(%rdx),%rsi
    b32b:	49 89 c8             	mov    %rcx,%r8
    b32e:	48 c1 e9 03          	shr    $0x3,%rcx
    b332:	48 83 f9 1f          	cmp    $0x1f,%rcx
    b336:	77 48                	ja     b380 <dlmalloc+0x16f0>
    b338:	44 8d 14 09          	lea    (%rcx,%rcx,1),%r10d
    b33c:	4c 8b 4a 10          	mov    0x10(%rdx),%r9
    b340:	4f 8d 54 d5 48       	lea    0x48(%r13,%r10,8),%r10
    b345:	4d 39 d1             	cmp    %r10,%r9
    b348:	0f 85 66 f0 ff ff    	jne    a3b4 <dlmalloc+0x724>
    b34e:	49 39 f1             	cmp    %rsi,%r9
    b351:	0f 84 3d 03 00 00    	je     b694 <dlmalloc+0x1a04>
    b357:	49 39 f2             	cmp    %rsi,%r10
    b35a:	0f 85 18 03 00 00    	jne    b678 <dlmalloc+0x19e8>
    b360:	49 89 71 18          	mov    %rsi,0x18(%r9)
    b364:	4c 89 4e 10          	mov    %r9,0x10(%rsi)
    b368:	4c 01 c2             	add    %r8,%rdx
    b36b:	4c 01 c7             	add    %r8,%rdi
    b36e:	48 8b 4a 08          	mov    0x8(%rdx),%rcx
    b372:	e9 f1 f5 ff ff       	jmpq   a968 <dlmalloc+0xcd8>
    b377:	49 89 47 20          	mov    %rax,0x20(%r15)
    b37b:	e9 3c f1 ff ff       	jmpq   a4bc <dlmalloc+0x82c>
    b380:	48 39 d6             	cmp    %rdx,%rsi
    b383:	4c 8b 4a 30          	mov    0x30(%rdx),%r9
    b387:	0f 84 90 02 00 00    	je     b61d <dlmalloc+0x198d>
    b38d:	48 8b 4a 10          	mov    0x10(%rdx),%rcx
    b391:	48 3b 0d a0 6d 00 00 	cmp    0x6da0(%rip),%rcx        # 12138 <_gm_+0x18>
    b398:	0f 82 32 f0 ff ff    	jb     a3d0 <dlmalloc+0x740>
    b39e:	48 39 51 18          	cmp    %rdx,0x18(%rcx)
    b3a2:	0f 85 28 f0 ff ff    	jne    a3d0 <dlmalloc+0x740>
    b3a8:	48 3b 56 10          	cmp    0x10(%rsi),%rdx
    b3ac:	0f 85 1e f0 ff ff    	jne    a3d0 <dlmalloc+0x740>
    b3b2:	48 89 71 18          	mov    %rsi,0x18(%rcx)
    b3b6:	48 89 4e 10          	mov    %rcx,0x10(%rsi)
    b3ba:	4d 85 c9             	test   %r9,%r9
    b3bd:	74 a9                	je     b368 <dlmalloc+0x16d8>
    b3bf:	44 8b 52 38          	mov    0x38(%rdx),%r10d
    b3c3:	4c 89 d1             	mov    %r10,%rcx
    b3c6:	49 83 c2 4a          	add    $0x4a,%r10
    b3ca:	4b 39 54 d5 08       	cmp    %rdx,0x8(%r13,%r10,8)
    b3cf:	0f 84 28 02 00 00    	je     b5fd <dlmalloc+0x196d>
    b3d5:	4c 3b 0d 5c 6d 00 00 	cmp    0x6d5c(%rip),%r9        # 12138 <_gm_+0x18>
    b3dc:	0f 82 ee ef ff ff    	jb     a3d0 <dlmalloc+0x740>
    b3e2:	49 39 51 20          	cmp    %rdx,0x20(%r9)
    b3e6:	0f 84 08 02 00 00    	je     b5f4 <dlmalloc+0x1964>
    b3ec:	49 89 71 28          	mov    %rsi,0x28(%r9)
    b3f0:	48 85 f6             	test   %rsi,%rsi
    b3f3:	0f 84 6f ff ff ff    	je     b368 <dlmalloc+0x16d8>
    b3f9:	4c 8b 15 38 6d 00 00 	mov    0x6d38(%rip),%r10        # 12138 <_gm_+0x18>
    b400:	4c 39 d6             	cmp    %r10,%rsi
    b403:	0f 82 c7 ef ff ff    	jb     a3d0 <dlmalloc+0x740>
    b409:	48 8b 4a 20          	mov    0x20(%rdx),%rcx
    b40d:	4c 89 4e 30          	mov    %r9,0x30(%rsi)
    b411:	48 85 c9             	test   %rcx,%rcx
    b414:	74 11                	je     b427 <dlmalloc+0x1797>
    b416:	49 39 ca             	cmp    %rcx,%r10
    b419:	0f 87 b1 ef ff ff    	ja     a3d0 <dlmalloc+0x740>
    b41f:	48 89 4e 20          	mov    %rcx,0x20(%rsi)
    b423:	48 89 71 30          	mov    %rsi,0x30(%rcx)
    b427:	48 8b 4a 28          	mov    0x28(%rdx),%rcx
    b42b:	48 85 c9             	test   %rcx,%rcx
    b42e:	0f 84 34 ff ff ff    	je     b368 <dlmalloc+0x16d8>
    b434:	49 39 ca             	cmp    %rcx,%r10
    b437:	0f 87 93 ef ff ff    	ja     a3d0 <dlmalloc+0x740>
    b43d:	48 89 4e 28          	mov    %rcx,0x28(%rsi)
    b441:	48 89 71 30          	mov    %rsi,0x30(%rcx)
    b445:	e9 1e ff ff ff       	jmpq   b368 <dlmalloc+0x16d8>
    b44a:	66 0f 1f 44 00 00    	nopw   0x0(%rax,%rax,1)
    b450:	44 09 ca             	or     %r9d,%edx
    b453:	4d 01 e8             	add    %r13,%r8
    b456:	49 89 84 cd 58 02 00 	mov    %rax,0x258(%r13,%rcx,8)
    b45d:	00 
    b45e:	89 15 c0 6c 00 00    	mov    %edx,0x6cc0(%rip)        # 12124 <_gm_+0x4>
    b464:	4c 89 40 30          	mov    %r8,0x30(%rax)
    b468:	48 89 40 18          	mov    %rax,0x18(%rax)
    b46c:	48 89 40 10          	mov    %rax,0x10(%rax)
    b470:	e9 16 ea ff ff       	jmpq   9e8b <dlmalloc+0x1fb>
    b475:	41 b8 58 02 00 00    	mov    $0x258,%r8d
    b47b:	ba 01 00 00 00       	mov    $0x1,%edx
    b480:	31 f6                	xor    %esi,%esi
    b482:	31 c9                	xor    %ecx,%ecx
    b484:	e9 69 fd ff ff       	jmpq   b1f2 <dlmalloc+0x1562>
    b489:	48 8b 43 20          	mov    0x20(%rbx),%rax
    b48d:	48 85 c0             	test   %rax,%rax
    b490:	0f 84 b8 00 00 00    	je     b54e <dlmalloc+0x18be>
    b496:	4c 8d 4b 20          	lea    0x20(%rbx),%r9
    b49a:	48 89 c1             	mov    %rax,%rcx
    b49d:	e9 56 fc ff ff       	jmpq   b0f8 <dlmalloc+0x1468>
    b4a2:	4d 85 f6             	test   %r14,%r14
    b4a5:	0f 84 b2 ee ff ff    	je     a35d <dlmalloc+0x6cd>
    b4ab:	8b 7b 38             	mov    0x38(%rbx),%edi
    b4ae:	31 c0                	xor    %eax,%eax
    b4b0:	48 89 f9             	mov    %rdi,%rcx
    b4b3:	48 83 c7 4a          	add    $0x4a,%rdi
    b4b7:	49 39 5c fd 08       	cmp    %rbx,0x8(%r13,%rdi,8)
    b4bc:	0f 85 42 ee ff ff    	jne    a304 <dlmalloc+0x674>
    b4c2:	49 c7 44 fd 08 00 00 	movq   $0x0,0x8(%r13,%rdi,8)
    b4c9:	00 00 
    b4cb:	e9 0a fa ff ff       	jmpq   aeda <dlmalloc+0x124a>
    b4d0:	49 8b 50 10          	mov    0x10(%r8),%rdx
    b4d4:	49 39 d6             	cmp    %rdx,%r14
    b4d7:	0f 86 90 f0 ff ff    	jbe    a56d <dlmalloc+0x8dd>
    b4dd:	e9 ee ee ff ff       	jmpq   a3d0 <dlmalloc+0x740>
    b4e2:	66 0f 1f 44 00 00    	nopw   0x0(%rax,%rax,1)
    b4e8:	4c 89 ff             	mov    %r15,%rdi
    b4eb:	48 89 0c 24          	mov    %rcx,(%rsp)
    b4ef:	e8 9c 17 00 00       	callq  cc90 <sbrk>
    b4f4:	4c 39 f0             	cmp    %r14,%rax
    b4f7:	48 89 c3             	mov    %rax,%rbx
    b4fa:	48 8b 0c 24          	mov    (%rsp),%rcx
    b4fe:	0f 85 ca f5 ff ff    	jne    aace <dlmalloc+0xe3e>
    b504:	4c 89 f3             	mov    %r14,%rbx
    b507:	e9 03 f6 ff ff       	jmpq   ab0f <dlmalloc+0xe7f>
    b50c:	48 8b 4a 10          	mov    0x10(%rdx),%rcx
    b510:	48 3b 0d 21 6c 00 00 	cmp    0x6c21(%rip),%rcx        # 12138 <_gm_+0x18>
    b517:	0f 83 9b f4 ff ff    	jae    a9b8 <dlmalloc+0xd28>
    b51d:	e9 ae ee ff ff       	jmpq   a3d0 <dlmalloc+0x740>
    b522:	48 89 d7             	mov    %rdx,%rdi
    b525:	48 89 4c 24 08       	mov    %rcx,0x8(%rsp)
    b52a:	48 89 14 24          	mov    %rdx,(%rsp)
    b52e:	e8 5d 17 00 00       	callq  cc90 <sbrk>
    b533:	48 83 c0 01          	add    $0x1,%rax
    b537:	48 8b 4c 24 08       	mov    0x8(%rsp),%rcx
    b53c:	0f 84 93 00 00 00    	je     b5d5 <dlmalloc+0x1945>
    b542:	48 8b 14 24          	mov    (%rsp),%rdx
    b546:	49 01 d7             	add    %rdx,%r15
    b549:	e9 c1 f5 ff ff       	jmpq   ab0f <dlmalloc+0xe7f>
    b54e:	4d 85 ff             	test   %r15,%r15
    b551:	0f 84 ab ef ff ff    	je     a502 <dlmalloc+0x872>
    b557:	44 8b 4b 38          	mov    0x38(%rbx),%r9d
    b55b:	4c 89 c9             	mov    %r9,%rcx
    b55e:	49 83 c1 4a          	add    $0x4a,%r9
    b562:	4b 3b 5c cd 08       	cmp    0x8(%r13,%r9,8),%rbx
    b567:	0f 85 38 ef ff ff    	jne    a4a5 <dlmalloc+0x815>
    b56d:	4b c7 44 cd 08 00 00 	movq   $0x0,0x8(%r13,%r9,8)
    b574:	00 00 
    b576:	e9 2d fd ff ff       	jmpq   b2a8 <dlmalloc+0x1618>
    b57b:	48 8d 34 ca          	lea    (%rdx,%rcx,8),%rsi
    b57f:	48 39 35 b2 6b 00 00 	cmp    %rsi,0x6bb2(%rip)        # 12138 <_gm_+0x18>
    b586:	0f 87 44 ee ff ff    	ja     a3d0 <dlmalloc+0x740>
    b58c:	48 89 04 ca          	mov    %rax,(%rdx,%rcx,8)
    b590:	48 89 50 30          	mov    %rdx,0x30(%rax)
    b594:	48 89 40 18          	mov    %rax,0x18(%rax)
    b598:	48 89 40 10          	mov    %rax,0x10(%rax)
    b59c:	e9 ea e8 ff ff       	jmpq   9e8b <dlmalloc+0x1fb>
    b5a1:	41 b8 50 03 00 00    	mov    $0x350,%r8d
    b5a7:	ba 00 00 00 80       	mov    $0x80000000,%edx
    b5ac:	be 1f 00 00 00       	mov    $0x1f,%esi
    b5b1:	b9 1f 00 00 00       	mov    $0x1f,%ecx
    b5b6:	e9 37 fc ff ff       	jmpq   b1f2 <dlmalloc+0x1562>
    b5bb:	48 89 fe             	mov    %rdi,%rsi
    b5be:	48 83 ce 03          	or     $0x3,%rsi
    b5c2:	e9 2f e8 ff ff       	jmpq   9df6 <dlmalloc+0x166>
    b5c7:	48 85 d2             	test   %rdx,%rdx
    b5ca:	0f 85 65 ea ff ff    	jne    a035 <dlmalloc+0x3a5>
    b5d0:	e9 5b ea ff ff       	jmpq   a030 <dlmalloc+0x3a0>
    b5d5:	4c 89 f7             	mov    %r14,%rdi
    b5d8:	48 89 0c 24          	mov    %rcx,(%rsp)
    b5dc:	e8 af 16 00 00       	callq  cc90 <sbrk>
    b5e1:	c7 05 25 6f 00 00 00 	movl   $0x0,0x6f25(%rip)        # 12510 <malloc_global_mutex>
    b5e8:	00 00 00 
    b5eb:	48 8b 0c 24          	mov    (%rsp),%rcx
    b5ef:	e9 5e eb ff ff       	jmpq   a152 <dlmalloc+0x4c2>
    b5f4:	49 89 71 20          	mov    %rsi,0x20(%r9)
    b5f8:	e9 f3 fd ff ff       	jmpq   b3f0 <dlmalloc+0x1760>
    b5fd:	48 85 f6             	test   %rsi,%rsi
    b600:	4b 89 74 d5 08       	mov    %rsi,0x8(%r13,%r10,8)
    b605:	0f 85 ee fd ff ff    	jne    b3f9 <dlmalloc+0x1769>
    b60b:	be fe ff ff ff       	mov    $0xfffffffe,%esi
    b610:	d3 c6                	rol    %cl,%esi
    b612:	21 35 0c 6b 00 00    	and    %esi,0x6b0c(%rip)        # 12124 <_gm_+0x4>
    b618:	e9 4b fd ff ff       	jmpq   b368 <dlmalloc+0x16d8>
    b61d:	48 8b 72 28          	mov    0x28(%rdx),%rsi
    b621:	4c 8d 5a 28          	lea    0x28(%rdx),%r11
    b625:	48 85 f6             	test   %rsi,%rsi
    b628:	74 3c                	je     b666 <dlmalloc+0x19d6>
    b62a:	49 89 f2             	mov    %rsi,%r10
    b62d:	4c 89 d6             	mov    %r10,%rsi
    b630:	4d 8b 52 28          	mov    0x28(%r10),%r10
    b634:	4c 89 d9             	mov    %r11,%rcx
    b637:	4c 8d 5e 28          	lea    0x28(%rsi),%r11
    b63b:	4d 85 d2             	test   %r10,%r10
    b63e:	75 ed                	jne    b62d <dlmalloc+0x199d>
    b640:	4c 8b 56 20          	mov    0x20(%rsi),%r10
    b644:	4c 8d 5e 20          	lea    0x20(%rsi),%r11
    b648:	4d 85 d2             	test   %r10,%r10
    b64b:	75 e0                	jne    b62d <dlmalloc+0x199d>
    b64d:	48 39 0d e4 6a 00 00 	cmp    %rcx,0x6ae4(%rip)        # 12138 <_gm_+0x18>
    b654:	0f 87 76 ed ff ff    	ja     a3d0 <dlmalloc+0x740>
    b65a:	48 c7 01 00 00 00 00 	movq   $0x0,(%rcx)
    b661:	e9 54 fd ff ff       	jmpq   b3ba <dlmalloc+0x172a>
    b666:	48 8b 72 20          	mov    0x20(%rdx),%rsi
    b66a:	4c 8d 5a 20          	lea    0x20(%rdx),%r11
    b66e:	48 85 f6             	test   %rsi,%rsi
    b671:	75 b7                	jne    b62a <dlmalloc+0x199a>
    b673:	e9 42 fd ff ff       	jmpq   b3ba <dlmalloc+0x172a>
    b678:	48 3b 35 b9 6a 00 00 	cmp    0x6ab9(%rip),%rsi        # 12138 <_gm_+0x18>
    b67f:	0f 82 4b ed ff ff    	jb     a3d0 <dlmalloc+0x740>
    b685:	48 39 56 10          	cmp    %rdx,0x10(%rsi)
    b689:	0f 84 d1 fc ff ff    	je     b360 <dlmalloc+0x16d0>
    b68f:	e9 3c ed ff ff       	jmpq   a3d0 <dlmalloc+0x740>
    b694:	be fe ff ff ff       	mov    $0xfffffffe,%esi
    b699:	d3 c6                	rol    %cl,%esi
    b69b:	21 35 7f 6a 00 00    	and    %esi,0x6a7f(%rip)        # 12120 <_gm_>
    b6a1:	e9 c2 fc ff ff       	jmpq   b368 <dlmalloc+0x16d8>
    b6a6:	66 2e 0f 1f 84 00 00 	nopw   %cs:0x0(%rax,%rax,1)
    b6ad:	00 00 00 

000000000000b6b0 <dlfree>:
    b6b0:	48 85 ff             	test   %rdi,%rdi
    b6b3:	0f 84 37 02 00 00    	je     b8f0 <dlfree+0x240>
    b6b9:	41 55                	push   %r13
    b6bb:	41 54                	push   %r12
    b6bd:	48 8d 57 f0          	lea    -0x10(%rdi),%rdx
    b6c1:	55                   	push   %rbp
    b6c2:	53                   	push   %rbx
    b6c3:	48 83 ec 08          	sub    $0x8,%rsp
    b6c7:	48 8b 47 f8          	mov    -0x8(%rdi),%rax
    b6cb:	48 8b 0d 0e 6e 00 00 	mov    0x6e0e(%rip),%rcx        # 124e0 <mparams>
    b6d2:	48 83 e0 f8          	and    $0xfffffffffffffff8,%rax
    b6d6:	48 8b 5c 07 f0       	mov    -0x10(%rdi,%rax,1),%rbx
    b6db:	48 31 cb             	xor    %rcx,%rbx
    b6de:	48 3b 4b 40          	cmp    0x40(%rbx),%rcx
    b6e2:	0f 85 d4 03 00 00    	jne    babc <dlfree+0x40c>
    b6e8:	f6 83 70 03 00 00 02 	testb  $0x2,0x370(%rbx)
    b6ef:	0f 85 c3 01 00 00    	jne    b8b8 <dlfree+0x208>
    b6f5:	4c 8b 43 18          	mov    0x18(%rbx),%r8
    b6f9:	49 39 d0             	cmp    %rdx,%r8
    b6fc:	0f 87 f6 01 00 00    	ja     b8f8 <dlfree+0x248>
    b702:	48 8b 4f f8          	mov    -0x8(%rdi),%rcx
    b706:	49 89 c9             	mov    %rcx,%r9
    b709:	41 83 e1 03          	and    $0x3,%r9d
    b70d:	49 83 f9 01          	cmp    $0x1,%r9
    b711:	0f 84 e1 01 00 00    	je     b8f8 <dlfree+0x248>
    b717:	48 89 c8             	mov    %rcx,%rax
    b71a:	48 83 e0 f8          	and    $0xfffffffffffffff8,%rax
    b71e:	83 e1 01             	and    $0x1,%ecx
    b721:	48 8d 34 02          	lea    (%rdx,%rax,1),%rsi
    b725:	0f 84 95 00 00 00    	je     b7c0 <dlfree+0x110>
    b72b:	48 39 f2             	cmp    %rsi,%rdx
    b72e:	0f 83 c4 01 00 00    	jae    b8f8 <dlfree+0x248>
    b734:	48 8b 4e 08          	mov    0x8(%rsi),%rcx
    b738:	f6 c1 01             	test   $0x1,%cl
    b73b:	0f 84 b7 01 00 00    	je     b8f8 <dlfree+0x248>
    b741:	f6 c1 02             	test   $0x2,%cl
    b744:	0f 84 b6 01 00 00    	je     b900 <dlfree+0x250>
    b74a:	48 83 e1 fe          	and    $0xfffffffffffffffe,%rcx
    b74e:	48 89 4e 08          	mov    %rcx,0x8(%rsi)
    b752:	48 89 c1             	mov    %rax,%rcx
    b755:	48 83 c9 01          	or     $0x1,%rcx
    b759:	48 89 4a 08          	mov    %rcx,0x8(%rdx)
    b75d:	48 89 04 02          	mov    %rax,(%rdx,%rax,1)
    b761:	48 89 c1             	mov    %rax,%rcx
    b764:	48 c1 e9 03          	shr    $0x3,%rcx
    b768:	48 83 f9 1f          	cmp    $0x1f,%rcx
    b76c:	0f 87 96 02 00 00    	ja     ba08 <dlfree+0x358>
    b772:	8d 04 09             	lea    (%rcx,%rcx,1),%eax
    b775:	8b 3b                	mov    (%rbx),%edi
    b777:	48 8d 74 c3 48       	lea    0x48(%rbx,%rax,8),%rsi
    b77c:	b8 01 00 00 00       	mov    $0x1,%eax
    b781:	d3 e0                	shl    %cl,%eax
    b783:	85 c7                	test   %eax,%edi
    b785:	0f 85 23 03 00 00    	jne    baae <dlfree+0x3fe>
    b78b:	09 f8                	or     %edi,%eax
    b78d:	89 03                	mov    %eax,(%rbx)
    b78f:	48 89 f0             	mov    %rsi,%rax
    b792:	48 89 56 10          	mov    %rdx,0x10(%rsi)
    b796:	48 89 50 18          	mov    %rdx,0x18(%rax)
    b79a:	48 89 42 10          	mov    %rax,0x10(%rdx)
    b79e:	48 89 72 18          	mov    %rsi,0x18(%rdx)
    b7a2:	f6 83 70 03 00 00 02 	testb  $0x2,0x370(%rbx)
    b7a9:	74 0a                	je     b7b5 <dlfree+0x105>
    b7ab:	c7 83 74 03 00 00 00 	movl   $0x0,0x374(%rbx)
    b7b2:	00 00 00 
    b7b5:	48 83 c4 08          	add    $0x8,%rsp
    b7b9:	5b                   	pop    %rbx
    b7ba:	5d                   	pop    %rbp
    b7bb:	41 5c                	pop    %r12
    b7bd:	41 5d                	pop    %r13
    b7bf:	c3                   	retq   
    b7c0:	4d 85 c9             	test   %r9,%r9
    b7c3:	74 dd                	je     b7a2 <dlfree+0xf2>
    b7c5:	48 8b 4f f0          	mov    -0x10(%rdi),%rcx
    b7c9:	48 29 ca             	sub    %rcx,%rdx
    b7cc:	48 01 c8             	add    %rcx,%rax
    b7cf:	49 39 d0             	cmp    %rdx,%r8
    b7d2:	0f 87 20 01 00 00    	ja     b8f8 <dlfree+0x248>
    b7d8:	48 39 53 20          	cmp    %rdx,0x20(%rbx)
    b7dc:	0f 84 30 05 00 00    	je     bd12 <dlfree+0x662>
    b7e2:	48 c1 e9 03          	shr    $0x3,%rcx
    b7e6:	48 8b 7a 18          	mov    0x18(%rdx),%rdi
    b7ea:	48 83 f9 1f          	cmp    $0x1f,%rcx
    b7ee:	0f 86 4a 03 00 00    	jbe    bb3e <dlfree+0x48e>
    b7f4:	48 39 d7             	cmp    %rdx,%rdi
    b7f7:	4c 8b 5a 30          	mov    0x30(%rdx),%r11
    b7fb:	0f 84 9c 05 00 00    	je     bd9d <dlfree+0x6ed>
    b801:	48 8b 4a 10          	mov    0x10(%rdx),%rcx
    b805:	49 39 c8             	cmp    %rcx,%r8
    b808:	0f 87 ae 02 00 00    	ja     babc <dlfree+0x40c>
    b80e:	48 39 51 18          	cmp    %rdx,0x18(%rcx)
    b812:	0f 85 a4 02 00 00    	jne    babc <dlfree+0x40c>
    b818:	48 39 57 10          	cmp    %rdx,0x10(%rdi)
    b81c:	0f 85 9a 02 00 00    	jne    babc <dlfree+0x40c>
    b822:	48 89 79 18          	mov    %rdi,0x18(%rcx)
    b826:	48 89 4f 10          	mov    %rcx,0x10(%rdi)
    b82a:	4d 85 db             	test   %r11,%r11
    b82d:	0f 84 f8 fe ff ff    	je     b72b <dlfree+0x7b>
    b833:	44 8b 4a 38          	mov    0x38(%rdx),%r9d
    b837:	4c 89 c9             	mov    %r9,%rcx
    b83a:	4e 8d 0c cb          	lea    (%rbx,%r9,8),%r9
    b83e:	49 39 91 58 02 00 00 	cmp    %rdx,0x258(%r9)
    b845:	0f 84 02 06 00 00    	je     be4d <dlfree+0x79d>
    b84b:	4d 39 d8             	cmp    %r11,%r8
    b84e:	0f 87 68 02 00 00    	ja     babc <dlfree+0x40c>
    b854:	49 39 53 20          	cmp    %rdx,0x20(%r11)
    b858:	0f 84 2d 06 00 00    	je     be8b <dlfree+0x7db>
    b85e:	49 89 7b 28          	mov    %rdi,0x28(%r11)
    b862:	48 85 ff             	test   %rdi,%rdi
    b865:	0f 84 c0 fe ff ff    	je     b72b <dlfree+0x7b>
    b86b:	49 39 f8             	cmp    %rdi,%r8
    b86e:	0f 87 48 02 00 00    	ja     babc <dlfree+0x40c>
    b874:	48 8b 4a 20          	mov    0x20(%rdx),%rcx
    b878:	4c 89 5f 30          	mov    %r11,0x30(%rdi)
    b87c:	48 85 c9             	test   %rcx,%rcx
    b87f:	74 11                	je     b892 <dlfree+0x1e2>
    b881:	49 39 c8             	cmp    %rcx,%r8
    b884:	0f 87 32 02 00 00    	ja     babc <dlfree+0x40c>
    b88a:	48 89 4f 20          	mov    %rcx,0x20(%rdi)
    b88e:	48 89 79 30          	mov    %rdi,0x30(%rcx)
    b892:	48 8b 4a 28          	mov    0x28(%rdx),%rcx
    b896:	48 85 c9             	test   %rcx,%rcx
    b899:	0f 84 8c fe ff ff    	je     b72b <dlfree+0x7b>
    b89f:	49 39 c8             	cmp    %rcx,%r8
    b8a2:	0f 87 14 02 00 00    	ja     babc <dlfree+0x40c>
    b8a8:	48 89 4f 28          	mov    %rcx,0x28(%rdi)
    b8ac:	48 89 79 30          	mov    %rdi,0x30(%rcx)
    b8b0:	e9 76 fe ff ff       	jmpq   b72b <dlfree+0x7b>
    b8b5:	0f 1f 00             	nopl   (%rax)
    b8b8:	48 8d 8b 74 03 00 00 	lea    0x374(%rbx),%rcx
    b8bf:	b8 01 00 00 00       	mov    $0x1,%eax
    b8c4:	87 01                	xchg   %eax,(%rcx)
    b8c6:	85 c0                	test   %eax,%eax
    b8c8:	0f 84 27 fe ff ff    	je     b6f5 <dlfree+0x45>
    b8ce:	be 01 00 00 00       	mov    $0x1,%esi
    b8d3:	0f 1f 44 00 00       	nopl   0x0(%rax,%rax,1)
    b8d8:	8b 83 74 03 00 00    	mov    0x374(%rbx),%eax
    b8de:	85 c0                	test   %eax,%eax
    b8e0:	75 f6                	jne    b8d8 <dlfree+0x228>
    b8e2:	89 f0                	mov    %esi,%eax
    b8e4:	87 01                	xchg   %eax,(%rcx)
    b8e6:	85 c0                	test   %eax,%eax
    b8e8:	75 ee                	jne    b8d8 <dlfree+0x228>
    b8ea:	e9 06 fe ff ff       	jmpq   b6f5 <dlfree+0x45>
    b8ef:	90                   	nop
    b8f0:	f3 c3                	repz retq 
    b8f2:	66 0f 1f 44 00 00    	nopw   0x0(%rax,%rax,1)
    b8f8:	e8 33 24 00 00       	callq  dd30 <abort>
    b8fd:	0f 1f 00             	nopl   (%rax)
    b900:	48 39 73 28          	cmp    %rsi,0x28(%rbx)
    b904:	4c 8b 53 20          	mov    0x20(%rbx),%r10
    b908:	0f 84 d5 02 00 00    	je     bbe3 <dlfree+0x533>
    b90e:	49 39 f2             	cmp    %rsi,%r10
    b911:	0f 84 2e 04 00 00    	je     bd45 <dlfree+0x695>
    b917:	48 83 e1 f8          	and    $0xfffffffffffffff8,%rcx
    b91b:	48 8b 7e 18          	mov    0x18(%rsi),%rdi
    b91f:	48 01 c8             	add    %rcx,%rax
    b922:	48 c1 e9 03          	shr    $0x3,%rcx
    b926:	48 83 f9 1f          	cmp    $0x1f,%rcx
    b92a:	0f 86 43 02 00 00    	jbe    bb73 <dlfree+0x4c3>
    b930:	48 39 f7             	cmp    %rsi,%rdi
    b933:	48 8b 6e 30          	mov    0x30(%rsi),%rbp
    b937:	0f 84 c4 04 00 00    	je     be01 <dlfree+0x751>
    b93d:	48 8b 4e 10          	mov    0x10(%rsi),%rcx
    b941:	49 39 c8             	cmp    %rcx,%r8
    b944:	0f 87 72 01 00 00    	ja     babc <dlfree+0x40c>
    b94a:	48 39 71 18          	cmp    %rsi,0x18(%rcx)
    b94e:	0f 85 68 01 00 00    	jne    babc <dlfree+0x40c>
    b954:	48 39 77 10          	cmp    %rsi,0x10(%rdi)
    b958:	0f 85 5e 01 00 00    	jne    babc <dlfree+0x40c>
    b95e:	48 89 79 18          	mov    %rdi,0x18(%rcx)
    b962:	48 89 4f 10          	mov    %rcx,0x10(%rdi)
    b966:	48 85 ed             	test   %rbp,%rbp
    b969:	74 75                	je     b9e0 <dlfree+0x330>
    b96b:	44 8b 4e 38          	mov    0x38(%rsi),%r9d
    b96f:	4c 89 c9             	mov    %r9,%rcx
    b972:	4e 8d 0c cb          	lea    (%rbx,%r9,8),%r9
    b976:	49 39 b1 58 02 00 00 	cmp    %rsi,0x258(%r9)
    b97d:	0f 84 e9 04 00 00    	je     be6c <dlfree+0x7bc>
    b983:	49 39 e8             	cmp    %rbp,%r8
    b986:	0f 87 30 01 00 00    	ja     babc <dlfree+0x40c>
    b98c:	48 39 75 20          	cmp    %rsi,0x20(%rbp)
    b990:	0f 84 5a 05 00 00    	je     bef0 <dlfree+0x840>
    b996:	48 89 7d 28          	mov    %rdi,0x28(%rbp)
    b99a:	48 85 ff             	test   %rdi,%rdi
    b99d:	74 41                	je     b9e0 <dlfree+0x330>
    b99f:	49 39 f8             	cmp    %rdi,%r8
    b9a2:	0f 87 14 01 00 00    	ja     babc <dlfree+0x40c>
    b9a8:	48 8b 4e 20          	mov    0x20(%rsi),%rcx
    b9ac:	48 89 6f 30          	mov    %rbp,0x30(%rdi)
    b9b0:	48 85 c9             	test   %rcx,%rcx
    b9b3:	74 11                	je     b9c6 <dlfree+0x316>
    b9b5:	49 39 c8             	cmp    %rcx,%r8
    b9b8:	0f 87 fe 00 00 00    	ja     babc <dlfree+0x40c>
    b9be:	48 89 4f 20          	mov    %rcx,0x20(%rdi)
    b9c2:	48 89 79 30          	mov    %rdi,0x30(%rcx)
    b9c6:	48 8b 4e 28          	mov    0x28(%rsi),%rcx
    b9ca:	48 85 c9             	test   %rcx,%rcx
    b9cd:	74 11                	je     b9e0 <dlfree+0x330>
    b9cf:	49 39 c8             	cmp    %rcx,%r8
    b9d2:	0f 87 e4 00 00 00    	ja     babc <dlfree+0x40c>
    b9d8:	48 89 4f 28          	mov    %rcx,0x28(%rdi)
    b9dc:	48 89 79 30          	mov    %rdi,0x30(%rcx)
    b9e0:	48 89 c1             	mov    %rax,%rcx
    b9e3:	48 83 c9 01          	or     $0x1,%rcx
    b9e7:	4c 39 d2             	cmp    %r10,%rdx
    b9ea:	48 89 4a 08          	mov    %rcx,0x8(%rdx)
    b9ee:	48 89 04 02          	mov    %rax,(%rdx,%rax,1)
    b9f2:	0f 85 69 fd ff ff    	jne    b761 <dlfree+0xb1>
    b9f8:	48 89 43 08          	mov    %rax,0x8(%rbx)
    b9fc:	e9 a1 fd ff ff       	jmpq   b7a2 <dlfree+0xf2>
    ba01:	0f 1f 80 00 00 00 00 	nopl   0x0(%rax)
    ba08:	48 89 c1             	mov    %rax,%rcx
    ba0b:	48 c1 e9 08          	shr    $0x8,%rcx
    ba0f:	85 c9                	test   %ecx,%ecx
    ba11:	74 24                	je     ba37 <dlfree+0x387>
    ba13:	81 f9 ff ff 00 00    	cmp    $0xffff,%ecx
    ba19:	0f 86 89 01 00 00    	jbe    bba8 <dlfree+0x4f8>
    ba1f:	be 00 00 00 80       	mov    $0x80000000,%esi
    ba24:	41 b9 50 03 00 00    	mov    $0x350,%r9d
    ba2a:	b9 1f 00 00 00       	mov    $0x1f,%ecx
    ba2f:	41 ba 1f 00 00 00    	mov    $0x1f,%r10d
    ba35:	eb 10                	jmp    ba47 <dlfree+0x397>
    ba37:	be 01 00 00 00       	mov    $0x1,%esi
    ba3c:	41 b9 58 02 00 00    	mov    $0x258,%r9d
    ba42:	31 c9                	xor    %ecx,%ecx
    ba44:	45 31 d2             	xor    %r10d,%r10d
    ba47:	8b 7b 04             	mov    0x4(%rbx),%edi
    ba4a:	89 4a 38             	mov    %ecx,0x38(%rdx)
    ba4d:	48 c7 42 28 00 00 00 	movq   $0x0,0x28(%rdx)
    ba54:	00 
    ba55:	48 c7 42 20 00 00 00 	movq   $0x0,0x20(%rdx)
    ba5c:	00 
    ba5d:	85 fe                	test   %edi,%esi
    ba5f:	75 60                	jne    bac1 <dlfree+0x411>
    ba61:	09 fe                	or     %edi,%esi
    ba63:	49 01 d9             	add    %rbx,%r9
    ba66:	89 73 04             	mov    %esi,0x4(%rbx)
    ba69:	4a 89 94 d3 58 02 00 	mov    %rdx,0x258(%rbx,%r10,8)
    ba70:	00 
    ba71:	4c 89 4a 30          	mov    %r9,0x30(%rdx)
    ba75:	48 89 52 18          	mov    %rdx,0x18(%rdx)
    ba79:	48 89 52 10          	mov    %rdx,0x10(%rdx)
    ba7d:	48 83 6b 38 01       	subq   $0x1,0x38(%rbx)
    ba82:	0f 85 1a fd ff ff    	jne    b7a2 <dlfree+0xf2>
    ba88:	48 8b 83 88 03 00 00 	mov    0x388(%rbx),%rax
    ba8f:	48 85 c0             	test   %rax,%rax
    ba92:	74 0d                	je     baa1 <dlfree+0x3f1>
    ba94:	0f 1f 40 00          	nopl   0x0(%rax)
    ba98:	48 8b 40 10          	mov    0x10(%rax),%rax
    ba9c:	48 85 c0             	test   %rax,%rax
    ba9f:	75 f7                	jne    ba98 <dlfree+0x3e8>
    baa1:	48 c7 43 38 ff ff ff 	movq   $0xffffffffffffffff,0x38(%rbx)
    baa8:	ff 
    baa9:	e9 f4 fc ff ff       	jmpq   b7a2 <dlfree+0xf2>
    baae:	48 8b 46 10          	mov    0x10(%rsi),%rax
    bab2:	48 3b 43 18          	cmp    0x18(%rbx),%rax
    bab6:	0f 83 d6 fc ff ff    	jae    b792 <dlfree+0xe2>
    babc:	e8 6f 22 00 00       	callq  dd30 <abort>
    bac1:	83 f9 1f             	cmp    $0x1f,%ecx
    bac4:	4a 8b b4 d3 58 02 00 	mov    0x258(%rbx,%r10,8),%rsi
    bacb:	00 
    bacc:	48 89 c7             	mov    %rax,%rdi
    bacf:	74 35                	je     bb06 <dlfree+0x456>
    bad1:	d1 e9                	shr    %ecx
    bad3:	bf 39 00 00 00       	mov    $0x39,%edi
    bad8:	29 cf                	sub    %ecx,%edi
    bada:	89 f9                	mov    %edi,%ecx
    badc:	48 89 c7             	mov    %rax,%rdi
    badf:	48 d3 e7             	shl    %cl,%rdi
    bae2:	eb 22                	jmp    bb06 <dlfree+0x456>
    bae4:	0f 1f 40 00          	nopl   0x0(%rax)
    bae8:	48 89 f9             	mov    %rdi,%rcx
    baeb:	48 01 ff             	add    %rdi,%rdi
    baee:	48 c1 e9 3f          	shr    $0x3f,%rcx
    baf2:	48 83 c1 04          	add    $0x4,%rcx
    baf6:	4c 8b 0c ce          	mov    (%rsi,%rcx,8),%r9
    bafa:	4d 85 c9             	test   %r9,%r9
    bafd:	0f 84 62 02 00 00    	je     bd65 <dlfree+0x6b5>
    bb03:	4c 89 ce             	mov    %r9,%rsi
    bb06:	48 8b 4e 08          	mov    0x8(%rsi),%rcx
    bb0a:	48 83 e1 f8          	and    $0xfffffffffffffff8,%rcx
    bb0e:	48 39 c1             	cmp    %rax,%rcx
    bb11:	75 d5                	jne    bae8 <dlfree+0x438>
    bb13:	49 39 f0             	cmp    %rsi,%r8
    bb16:	48 8b 46 10          	mov    0x10(%rsi),%rax
    bb1a:	77 a0                	ja     babc <dlfree+0x40c>
    bb1c:	49 39 c0             	cmp    %rax,%r8
    bb1f:	77 9b                	ja     babc <dlfree+0x40c>
    bb21:	48 89 50 18          	mov    %rdx,0x18(%rax)
    bb25:	48 89 56 10          	mov    %rdx,0x10(%rsi)
    bb29:	48 89 42 10          	mov    %rax,0x10(%rdx)
    bb2d:	48 89 72 18          	mov    %rsi,0x18(%rdx)
    bb31:	48 c7 42 30 00 00 00 	movq   $0x0,0x30(%rdx)
    bb38:	00 
    bb39:	e9 3f ff ff ff       	jmpq   ba7d <dlfree+0x3cd>
    bb3e:	44 8d 14 09          	lea    (%rcx,%rcx,1),%r10d
    bb42:	4c 8b 4a 10          	mov    0x10(%rdx),%r9
    bb46:	4e 8d 54 d3 48       	lea    0x48(%rbx,%r10,8),%r10
    bb4b:	4d 39 ca             	cmp    %r9,%r10
    bb4e:	0f 85 40 03 00 00    	jne    be94 <dlfree+0x7e4>
    bb54:	4c 39 cf             	cmp    %r9,%rdi
    bb57:	0f 84 88 02 00 00    	je     bde5 <dlfree+0x735>
    bb5d:	49 39 fa             	cmp    %rdi,%r10
    bb60:	0f 85 bd 03 00 00    	jne    bf23 <dlfree+0x873>
    bb66:	49 89 79 18          	mov    %rdi,0x18(%r9)
    bb6a:	4c 89 4f 10          	mov    %r9,0x10(%rdi)
    bb6e:	e9 b8 fb ff ff       	jmpq   b72b <dlfree+0x7b>
    bb73:	44 8d 1c 09          	lea    (%rcx,%rcx,1),%r11d
    bb77:	4c 8b 4e 10          	mov    0x10(%rsi),%r9
    bb7b:	4e 8d 5c db 48       	lea    0x48(%rbx,%r11,8),%r11
    bb80:	4d 39 cb             	cmp    %r9,%r11
    bb83:	0f 85 82 03 00 00    	jne    bf0b <dlfree+0x85b>
    bb89:	4c 39 cf             	cmp    %r9,%rdi
    bb8c:	0f 84 61 02 00 00    	je     bdf3 <dlfree+0x743>
    bb92:	4c 39 df             	cmp    %r11,%rdi
    bb95:	0f 85 a0 03 00 00    	jne    bf3b <dlfree+0x88b>
    bb9b:	49 89 79 18          	mov    %rdi,0x18(%r9)
    bb9f:	4c 89 4f 10          	mov    %r9,0x10(%rdi)
    bba3:	e9 38 fe ff ff       	jmpq   b9e0 <dlfree+0x330>
    bba8:	0f bd f1             	bsr    %ecx,%esi
    bbab:	b9 26 00 00 00       	mov    $0x26,%ecx
    bbb0:	48 89 c7             	mov    %rax,%rdi
    bbb3:	83 f6 1f             	xor    $0x1f,%esi
    bbb6:	29 f1                	sub    %esi,%ecx
    bbb8:	48 d3 ef             	shr    %cl,%rdi
    bbbb:	48 89 f9             	mov    %rdi,%rcx
    bbbe:	bf 1f 00 00 00       	mov    $0x1f,%edi
    bbc3:	83 e1 01             	and    $0x1,%ecx
    bbc6:	29 f7                	sub    %esi,%edi
    bbc8:	be 01 00 00 00       	mov    $0x1,%esi
    bbcd:	44 8d 14 79          	lea    (%rcx,%rdi,2),%r10d
    bbd1:	4c 89 d1             	mov    %r10,%rcx
    bbd4:	4e 8d 0c d5 58 02 00 	lea    0x258(,%r10,8),%r9
    bbdb:	00 
    bbdc:	d3 e6                	shl    %cl,%esi
    bbde:	e9 64 fe ff ff       	jmpq   ba47 <dlfree+0x397>
    bbe3:	48 03 43 10          	add    0x10(%rbx),%rax
    bbe7:	48 89 53 28          	mov    %rdx,0x28(%rbx)
    bbeb:	48 89 c1             	mov    %rax,%rcx
    bbee:	48 89 43 10          	mov    %rax,0x10(%rbx)
    bbf2:	48 83 c9 01          	or     $0x1,%rcx
    bbf6:	4c 39 d2             	cmp    %r10,%rdx
    bbf9:	48 89 4a 08          	mov    %rcx,0x8(%rdx)
    bbfd:	0f 84 85 01 00 00    	je     bd88 <dlfree+0x6d8>
    bc03:	48 3b 43 30          	cmp    0x30(%rbx),%rax
    bc07:	0f 86 95 fb ff ff    	jbe    b7a2 <dlfree+0xf2>
    bc0d:	48 83 3d cb 68 00 00 	cmpq   $0x0,0x68cb(%rip)        # 124e0 <mparams>
    bc14:	00 
    bc15:	75 09                	jne    bc20 <dlfree+0x570>
    bc17:	e8 34 d8 ff ff       	callq  9450 <init_mparams>
    bc1c:	48 8b 53 28          	mov    0x28(%rbx),%rdx
    bc20:	48 85 d2             	test   %rdx,%rdx
    bc23:	0f 84 79 fb ff ff    	je     b7a2 <dlfree+0xf2>
    bc29:	48 8b 4b 10          	mov    0x10(%rbx),%rcx
    bc2d:	48 83 f9 50          	cmp    $0x50,%rcx
    bc31:	0f 86 c4 00 00 00    	jbe    bcfb <dlfree+0x64b>
    bc37:	48 8d ab 78 03 00 00 	lea    0x378(%rbx),%rbp
    bc3e:	48 8b 45 00          	mov    0x0(%rbp),%rax
    bc42:	48 39 c2             	cmp    %rax,%rdx
    bc45:	72 09                	jb     bc50 <dlfree+0x5a0>
    bc47:	48 03 45 08          	add    0x8(%rbp),%rax
    bc4b:	48 39 c2             	cmp    %rax,%rdx
    bc4e:	72 09                	jb     bc59 <dlfree+0x5a9>
    bc50:	48 8b 6d 10          	mov    0x10(%rbp),%rbp
    bc54:	48 85 ed             	test   %rbp,%rbp
    bc57:	75 e5                	jne    bc3e <dlfree+0x58e>
    bc59:	f6 45 18 08          	testb  $0x8,0x18(%rbp)
    bc5d:	0f 85 98 00 00 00    	jne    bcfb <dlfree+0x64b>
    bc63:	48 8b 35 86 68 00 00 	mov    0x6886(%rip),%rsi        # 124f0 <mparams+0x10>
    bc6a:	31 d2                	xor    %edx,%edx
    bc6c:	48 8d 44 31 af       	lea    -0x51(%rcx,%rsi,1),%rax
    bc71:	48 f7 f6             	div    %rsi
    bc74:	48 83 e8 01          	sub    $0x1,%rax
    bc78:	48 0f af c6          	imul   %rsi,%rax
    bc7c:	49 89 c4             	mov    %rax,%r12
    bc7f:	48 b8 fe ff ff ff ff 	movabs $0x7ffffffffffffffe,%rax
    bc86:	ff ff 7f 
    bc89:	49 39 c4             	cmp    %rax,%r12
    bc8c:	76 0d                	jbe    bc9b <dlfree+0x5eb>
    bc8e:	49 bc 00 00 00 00 00 	movabs $0x8000000000000000,%r12
    bc95:	00 00 80 
    bc98:	49 29 f4             	sub    %rsi,%r12
    bc9b:	b8 01 00 00 00       	mov    $0x1,%eax
    bca0:	87 05 6a 68 00 00    	xchg   %eax,0x686a(%rip)        # 12510 <malloc_global_mutex>
    bca6:	85 c0                	test   %eax,%eax
    bca8:	74 28                	je     bcd2 <dlfree+0x622>
    bcaa:	48 8d 15 5f 68 00 00 	lea    0x685f(%rip),%rdx        # 12510 <malloc_global_mutex>
    bcb1:	b9 01 00 00 00       	mov    $0x1,%ecx
    bcb6:	66 2e 0f 1f 84 00 00 	nopw   %cs:0x0(%rax,%rax,1)
    bcbd:	00 00 00 
    bcc0:	8b 02                	mov    (%rdx),%eax
    bcc2:	85 c0                	test   %eax,%eax
    bcc4:	75 fa                	jne    bcc0 <dlfree+0x610>
    bcc6:	89 c8                	mov    %ecx,%eax
    bcc8:	87 05 42 68 00 00    	xchg   %eax,0x6842(%rip)        # 12510 <malloc_global_mutex>
    bcce:	85 c0                	test   %eax,%eax
    bcd0:	75 ee                	jne    bcc0 <dlfree+0x610>
    bcd2:	31 ff                	xor    %edi,%edi
    bcd4:	e8 b7 0f 00 00       	callq  cc90 <sbrk>
    bcd9:	49 89 c5             	mov    %rax,%r13
    bcdc:	48 8b 45 08          	mov    0x8(%rbp),%rax
    bce0:	48 03 45 00          	add    0x0(%rbp),%rax
    bce4:	49 39 c5             	cmp    %rax,%r13
    bce7:	0f 84 98 02 00 00    	je     bf85 <dlfree+0x8d5>
    bced:	c7 05 19 68 00 00 00 	movl   $0x0,0x6819(%rip)        # 12510 <malloc_global_mutex>
    bcf4:	00 00 00 
    bcf7:	48 8b 4b 10          	mov    0x10(%rbx),%rcx
    bcfb:	48 3b 4b 30          	cmp    0x30(%rbx),%rcx
    bcff:	0f 86 9d fa ff ff    	jbe    b7a2 <dlfree+0xf2>
    bd05:	48 c7 43 30 ff ff ff 	movq   $0xffffffffffffffff,0x30(%rbx)
    bd0c:	ff 
    bd0d:	e9 90 fa ff ff       	jmpq   b7a2 <dlfree+0xf2>
    bd12:	48 8b 4e 08          	mov    0x8(%rsi),%rcx
    bd16:	48 89 cf             	mov    %rcx,%rdi
    bd19:	83 e7 03             	and    $0x3,%edi
    bd1c:	48 83 ff 03          	cmp    $0x3,%rdi
    bd20:	0f 85 05 fa ff ff    	jne    b72b <dlfree+0x7b>
    bd26:	48 83 e1 fe          	and    $0xfffffffffffffffe,%rcx
    bd2a:	48 89 43 08          	mov    %rax,0x8(%rbx)
    bd2e:	48 89 4e 08          	mov    %rcx,0x8(%rsi)
    bd32:	48 89 c1             	mov    %rax,%rcx
    bd35:	48 83 c9 01          	or     $0x1,%rcx
    bd39:	48 89 4a 08          	mov    %rcx,0x8(%rdx)
    bd3d:	48 89 06             	mov    %rax,(%rsi)
    bd40:	e9 5d fa ff ff       	jmpq   b7a2 <dlfree+0xf2>
    bd45:	48 03 43 08          	add    0x8(%rbx),%rax
    bd49:	48 89 53 20          	mov    %rdx,0x20(%rbx)
    bd4d:	48 89 c1             	mov    %rax,%rcx
    bd50:	48 89 43 08          	mov    %rax,0x8(%rbx)
    bd54:	48 83 c9 01          	or     $0x1,%rcx
    bd58:	48 89 4a 08          	mov    %rcx,0x8(%rdx)
    bd5c:	48 89 04 02          	mov    %rax,(%rdx,%rax,1)
    bd60:	e9 3d fa ff ff       	jmpq   b7a2 <dlfree+0xf2>
    bd65:	48 8d 04 ce          	lea    (%rsi,%rcx,8),%rax
    bd69:	48 39 43 18          	cmp    %rax,0x18(%rbx)
    bd6d:	0f 87 49 fd ff ff    	ja     babc <dlfree+0x40c>
    bd73:	48 89 14 ce          	mov    %rdx,(%rsi,%rcx,8)
    bd77:	48 89 72 30          	mov    %rsi,0x30(%rdx)
    bd7b:	48 89 52 18          	mov    %rdx,0x18(%rdx)
    bd7f:	48 89 52 10          	mov    %rdx,0x10(%rdx)
    bd83:	e9 f5 fc ff ff       	jmpq   ba7d <dlfree+0x3cd>
    bd88:	48 c7 43 20 00 00 00 	movq   $0x0,0x20(%rbx)
    bd8f:	00 
    bd90:	48 c7 43 08 00 00 00 	movq   $0x0,0x8(%rbx)
    bd97:	00 
    bd98:	e9 66 fe ff ff       	jmpq   bc03 <dlfree+0x553>
    bd9d:	48 8b 4a 28          	mov    0x28(%rdx),%rcx
    bda1:	4c 8d 4a 28          	lea    0x28(%rdx),%r9
    bda5:	48 85 c9             	test   %rcx,%rcx
    bda8:	0f 84 fe 00 00 00    	je     beac <dlfree+0x7fc>
    bdae:	66 90                	xchg   %ax,%ax
    bdb0:	48 89 cf             	mov    %rcx,%rdi
    bdb3:	48 8b 49 28          	mov    0x28(%rcx),%rcx
    bdb7:	4d 89 ca             	mov    %r9,%r10
    bdba:	4c 8d 4f 28          	lea    0x28(%rdi),%r9
    bdbe:	48 85 c9             	test   %rcx,%rcx
    bdc1:	75 ed                	jne    bdb0 <dlfree+0x700>
    bdc3:	48 8b 4f 20          	mov    0x20(%rdi),%rcx
    bdc7:	4c 8d 4f 20          	lea    0x20(%rdi),%r9
    bdcb:	48 85 c9             	test   %rcx,%rcx
    bdce:	75 e0                	jne    bdb0 <dlfree+0x700>
    bdd0:	4d 39 d0             	cmp    %r10,%r8
    bdd3:	0f 87 e3 fc ff ff    	ja     babc <dlfree+0x40c>
    bdd9:	49 c7 02 00 00 00 00 	movq   $0x0,(%r10)
    bde0:	e9 45 fa ff ff       	jmpq   b82a <dlfree+0x17a>
    bde5:	bf fe ff ff ff       	mov    $0xfffffffe,%edi
    bdea:	d3 c7                	rol    %cl,%edi
    bdec:	21 3b                	and    %edi,(%rbx)
    bdee:	e9 38 f9 ff ff       	jmpq   b72b <dlfree+0x7b>
    bdf3:	be fe ff ff ff       	mov    $0xfffffffe,%esi
    bdf8:	d3 c6                	rol    %cl,%esi
    bdfa:	21 33                	and    %esi,(%rbx)
    bdfc:	e9 df fb ff ff       	jmpq   b9e0 <dlfree+0x330>
    be01:	48 8b 4e 28          	mov    0x28(%rsi),%rcx
    be05:	4c 8d 4e 28          	lea    0x28(%rsi),%r9
    be09:	48 85 c9             	test   %rcx,%rcx
    be0c:	0f 84 e7 00 00 00    	je     bef9 <dlfree+0x849>
    be12:	66 0f 1f 44 00 00    	nopw   0x0(%rax,%rax,1)
    be18:	48 89 cf             	mov    %rcx,%rdi
    be1b:	48 8b 49 28          	mov    0x28(%rcx),%rcx
    be1f:	4d 89 cb             	mov    %r9,%r11
    be22:	4c 8d 4f 28          	lea    0x28(%rdi),%r9
    be26:	48 85 c9             	test   %rcx,%rcx
    be29:	75 ed                	jne    be18 <dlfree+0x768>
    be2b:	48 8b 4f 20          	mov    0x20(%rdi),%rcx
    be2f:	4c 8d 4f 20          	lea    0x20(%rdi),%r9
    be33:	48 85 c9             	test   %rcx,%rcx
    be36:	75 e0                	jne    be18 <dlfree+0x768>
    be38:	4d 39 d8             	cmp    %r11,%r8
    be3b:	0f 87 7b fc ff ff    	ja     babc <dlfree+0x40c>
    be41:	49 c7 03 00 00 00 00 	movq   $0x0,(%r11)
    be48:	e9 19 fb ff ff       	jmpq   b966 <dlfree+0x2b6>
    be4d:	48 85 ff             	test   %rdi,%rdi
    be50:	49 89 b9 58 02 00 00 	mov    %rdi,0x258(%r9)
    be57:	0f 85 0e fa ff ff    	jne    b86b <dlfree+0x1bb>
    be5d:	bf fe ff ff ff       	mov    $0xfffffffe,%edi
    be62:	d3 c7                	rol    %cl,%edi
    be64:	21 7b 04             	and    %edi,0x4(%rbx)
    be67:	e9 bf f8 ff ff       	jmpq   b72b <dlfree+0x7b>
    be6c:	48 85 ff             	test   %rdi,%rdi
    be6f:	49 89 b9 58 02 00 00 	mov    %rdi,0x258(%r9)
    be76:	0f 85 23 fb ff ff    	jne    b99f <dlfree+0x2ef>
    be7c:	be fe ff ff ff       	mov    $0xfffffffe,%esi
    be81:	d3 c6                	rol    %cl,%esi
    be83:	21 73 04             	and    %esi,0x4(%rbx)
    be86:	e9 55 fb ff ff       	jmpq   b9e0 <dlfree+0x330>
    be8b:	49 89 7b 20          	mov    %rdi,0x20(%r11)
    be8f:	e9 ce f9 ff ff       	jmpq   b862 <dlfree+0x1b2>
    be94:	4d 39 c8             	cmp    %r9,%r8
    be97:	0f 87 1f fc ff ff    	ja     babc <dlfree+0x40c>
    be9d:	49 39 51 18          	cmp    %rdx,0x18(%r9)
    bea1:	0f 84 ad fc ff ff    	je     bb54 <dlfree+0x4a4>
    bea7:	e9 10 fc ff ff       	jmpq   babc <dlfree+0x40c>
    beac:	48 8b 4a 20          	mov    0x20(%rdx),%rcx
    beb0:	4c 8d 4a 20          	lea    0x20(%rdx),%r9
    beb4:	48 85 c9             	test   %rcx,%rcx
    beb7:	0f 85 f3 fe ff ff    	jne    bdb0 <dlfree+0x700>
    bebd:	4d 85 db             	test   %r11,%r11
    bec0:	0f 84 65 f8 ff ff    	je     b72b <dlfree+0x7b>
    bec6:	8b 7a 38             	mov    0x38(%rdx),%edi
    bec9:	4c 8d 0c fb          	lea    (%rbx,%rdi,8),%r9
    becd:	48 89 f9             	mov    %rdi,%rcx
    bed0:	31 ff                	xor    %edi,%edi
    bed2:	49 39 91 58 02 00 00 	cmp    %rdx,0x258(%r9)
    bed9:	0f 85 6c f9 ff ff    	jne    b84b <dlfree+0x19b>
    bedf:	49 c7 81 58 02 00 00 	movq   $0x0,0x258(%r9)
    bee6:	00 00 00 00 
    beea:	e9 6e ff ff ff       	jmpq   be5d <dlfree+0x7ad>
    beef:	90                   	nop
    bef0:	48 89 7d 20          	mov    %rdi,0x20(%rbp)
    bef4:	e9 a1 fa ff ff       	jmpq   b99a <dlfree+0x2ea>
    bef9:	48 8b 4e 20          	mov    0x20(%rsi),%rcx
    befd:	48 85 c9             	test   %rcx,%rcx
    bf00:	74 51                	je     bf53 <dlfree+0x8a3>
    bf02:	4c 8d 4e 20          	lea    0x20(%rsi),%r9
    bf06:	e9 0d ff ff ff       	jmpq   be18 <dlfree+0x768>
    bf0b:	4d 39 c8             	cmp    %r9,%r8
    bf0e:	0f 87 a8 fb ff ff    	ja     babc <dlfree+0x40c>
    bf14:	49 39 71 18          	cmp    %rsi,0x18(%r9)
    bf18:	0f 84 6b fc ff ff    	je     bb89 <dlfree+0x4d9>
    bf1e:	e9 99 fb ff ff       	jmpq   babc <dlfree+0x40c>
    bf23:	49 39 f8             	cmp    %rdi,%r8
    bf26:	0f 87 90 fb ff ff    	ja     babc <dlfree+0x40c>
    bf2c:	48 39 57 10          	cmp    %rdx,0x10(%rdi)
    bf30:	0f 84 30 fc ff ff    	je     bb66 <dlfree+0x4b6>
    bf36:	e9 81 fb ff ff       	jmpq   babc <dlfree+0x40c>
    bf3b:	49 39 f8             	cmp    %rdi,%r8
    bf3e:	0f 87 78 fb ff ff    	ja     babc <dlfree+0x40c>
    bf44:	48 39 77 10          	cmp    %rsi,0x10(%rdi)
    bf48:	0f 84 4d fc ff ff    	je     bb9b <dlfree+0x4eb>
    bf4e:	e9 69 fb ff ff       	jmpq   babc <dlfree+0x40c>
    bf53:	48 85 ed             	test   %rbp,%rbp
    bf56:	0f 84 84 fa ff ff    	je     b9e0 <dlfree+0x330>
    bf5c:	8b 7e 38             	mov    0x38(%rsi),%edi
    bf5f:	4c 8d 0c fb          	lea    (%rbx,%rdi,8),%r9
    bf63:	48 89 f9             	mov    %rdi,%rcx
    bf66:	31 ff                	xor    %edi,%edi
    bf68:	49 39 b1 58 02 00 00 	cmp    %rsi,0x258(%r9)
    bf6f:	0f 85 0e fa ff ff    	jne    b983 <dlfree+0x2d3>
    bf75:	49 c7 81 58 02 00 00 	movq   $0x0,0x258(%r9)
    bf7c:	00 00 00 00 
    bf80:	e9 f7 fe ff ff       	jmpq   be7c <dlfree+0x7cc>
    bf85:	4c 89 e7             	mov    %r12,%rdi
    bf88:	48 f7 df             	neg    %rdi
    bf8b:	e8 00 0d 00 00       	callq  cc90 <sbrk>
    bf90:	31 ff                	xor    %edi,%edi
    bf92:	49 89 c4             	mov    %rax,%r12
    bf95:	e8 f6 0c 00 00       	callq  cc90 <sbrk>
    bf9a:	49 83 c4 01          	add    $0x1,%r12
    bf9e:	c7 05 68 65 00 00 00 	movl   $0x0,0x6568(%rip)        # 12510 <malloc_global_mutex>
    bfa5:	00 00 00 
    bfa8:	74 6c                	je     c016 <dlfree+0x966>
    bfaa:	49 39 c5             	cmp    %rax,%r13
    bfad:	76 67                	jbe    c016 <dlfree+0x966>
    bfaf:	49 29 c5             	sub    %rax,%r13
    bfb2:	74 62                	je     c016 <dlfree+0x966>
    bfb4:	48 8b 4b 28          	mov    0x28(%rbx),%rcx
    bfb8:	48 8b 53 10          	mov    0x10(%rbx),%rdx
    bfbc:	4c 29 6d 08          	sub    %r13,0x8(%rbp)
    bfc0:	4c 29 ab 58 03 00 00 	sub    %r13,0x358(%rbx)
    bfc7:	48 8d 41 10          	lea    0x10(%rcx),%rax
    bfcb:	4c 29 ea             	sub    %r13,%rdx
    bfce:	a8 0f                	test   $0xf,%al
    bfd0:	74 3c                	je     c00e <dlfree+0x95e>
    bfd2:	48 f7 d8             	neg    %rax
    bfd5:	48 89 d7             	mov    %rdx,%rdi
    bfd8:	83 e0 0f             	and    $0xf,%eax
    bfdb:	48 29 c7             	sub    %rax,%rdi
    bfde:	48 8d 34 01          	lea    (%rcx,%rax,1),%rsi
    bfe2:	48 89 f8             	mov    %rdi,%rax
    bfe5:	48 89 43 10          	mov    %rax,0x10(%rbx)
    bfe9:	48 83 c8 01          	or     $0x1,%rax
    bfed:	48 89 73 28          	mov    %rsi,0x28(%rbx)
    bff1:	48 89 46 08          	mov    %rax,0x8(%rsi)
    bff5:	48 8b 05 04 65 00 00 	mov    0x6504(%rip),%rax        # 12500 <mparams+0x20>
    bffc:	48 c7 44 11 08 50 00 	movq   $0x50,0x8(%rcx,%rdx,1)
    c003:	00 00 
    c005:	48 89 43 30          	mov    %rax,0x30(%rbx)
    c009:	e9 94 f7 ff ff       	jmpq   b7a2 <dlfree+0xf2>
    c00e:	48 89 d0             	mov    %rdx,%rax
    c011:	48 89 ce             	mov    %rcx,%rsi
    c014:	eb cf                	jmp    bfe5 <dlfree+0x935>
    c016:	48 8b 4b 10          	mov    0x10(%rbx),%rcx
    c01a:	e9 dc fc ff ff       	jmpq   bcfb <dlfree+0x64b>
    c01f:	90                   	nop

000000000000c020 <calloc>:
    c020:	55                   	push   %rbp
    c021:	53                   	push   %rbx
    c022:	48 89 fb             	mov    %rdi,%rbx
    c025:	48 83 ec 08          	sub    $0x8,%rsp
    c029:	48 85 ff             	test   %rdi,%rdi
    c02c:	74 2b                	je     c059 <calloc+0x39>
    c02e:	48 89 f8             	mov    %rdi,%rax
    c031:	48 89 f9             	mov    %rdi,%rcx
    c034:	48 09 f0             	or     %rsi,%rax
    c037:	48 0f af ce          	imul   %rsi,%rcx
    c03b:	48 a9 00 00 ff ff    	test   $0xffffffffffff0000,%rax
    c041:	74 3d                	je     c080 <calloc+0x60>
    c043:	31 d2                	xor    %edx,%edx
    c045:	48 89 c8             	mov    %rcx,%rax
    c048:	48 c7 c3 ff ff ff ff 	mov    $0xffffffffffffffff,%rbx
    c04f:	48 f7 f7             	div    %rdi
    c052:	48 39 f0             	cmp    %rsi,%rax
    c055:	48 0f 44 d9          	cmove  %rcx,%rbx
    c059:	48 89 df             	mov    %rbx,%rdi
    c05c:	e8 2f dc ff ff       	callq  9c90 <dlmalloc>
    c061:	48 85 c0             	test   %rax,%rax
    c064:	48 89 c5             	mov    %rax,%rbp
    c067:	74 0d                	je     c076 <calloc+0x56>
    c069:	48 89 da             	mov    %rbx,%rdx
    c06c:	31 f6                	xor    %esi,%esi
    c06e:	48 89 c7             	mov    %rax,%rdi
    c071:	e8 57 0b 00 00       	callq  cbcd <memset>
    c076:	48 83 c4 08          	add    $0x8,%rsp
    c07a:	48 89 e8             	mov    %rbp,%rax
    c07d:	5b                   	pop    %rbx
    c07e:	5d                   	pop    %rbp
    c07f:	c3                   	retq   
    c080:	48 89 cb             	mov    %rcx,%rbx
    c083:	eb d4                	jmp    c059 <calloc+0x39>
    c085:	66 2e 0f 1f 84 00 00 	nopw   %cs:0x0(%rax,%rax,1)
    c08c:	00 00 00 
    c08f:	90                   	nop

000000000000c090 <dlrealloc>:
    c090:	41 57                	push   %r15
    c092:	41 56                	push   %r14
    c094:	41 55                	push   %r13
    c096:	41 54                	push   %r12
    c098:	49 89 f5             	mov    %rsi,%r13
    c09b:	55                   	push   %rbp
    c09c:	53                   	push   %rbx
    c09d:	48 83 ec 08          	sub    $0x8,%rsp
    c0a1:	48 85 ff             	test   %rdi,%rdi
    c0a4:	0f 84 66 03 00 00    	je     c410 <dlrealloc+0x380>
    c0aa:	48 81 fe 7f ff ff ff 	cmp    $0xffffffffffffff7f,%rsi
    c0b1:	0f 87 c4 03 00 00    	ja     c47b <dlrealloc+0x3eb>
    c0b7:	48 85 f6             	test   %rsi,%rsi
    c0ba:	48 89 fd             	mov    %rdi,%rbp
    c0bd:	0f 84 12 04 00 00    	je     c4d5 <dlrealloc+0x445>
    c0c3:	48 83 fe 0e          	cmp    $0xe,%rsi
    c0c7:	bf 20 00 00 00       	mov    $0x20,%edi
    c0cc:	0f 87 ce 00 00 00    	ja     c1a0 <dlrealloc+0x110>
    c0d2:	4c 8b 45 f8          	mov    -0x8(%rbp),%r8
    c0d6:	4c 8d 75 f0          	lea    -0x10(%rbp),%r14
    c0da:	48 8b 05 ff 63 00 00 	mov    0x63ff(%rip),%rax        # 124e0 <mparams>
    c0e1:	4c 89 c2             	mov    %r8,%rdx
    c0e4:	48 83 e2 f8          	and    $0xfffffffffffffff8,%rdx
    c0e8:	49 8d 34 16          	lea    (%r14,%rdx,1),%rsi
    c0ec:	48 8b 1e             	mov    (%rsi),%rbx
    c0ef:	48 31 c3             	xor    %rax,%rbx
    c0f2:	48 3b 43 40          	cmp    0x40(%rbx),%rax
    c0f6:	0f 85 f4 01 00 00    	jne    c2f0 <dlrealloc+0x260>
    c0fc:	f6 83 70 03 00 00 02 	testb  $0x2,0x370(%rbx)
    c103:	0f 85 ef 01 00 00    	jne    c2f8 <dlrealloc+0x268>
    c109:	4c 8b 4b 18          	mov    0x18(%rbx),%r9
    c10d:	4d 39 ce             	cmp    %r9,%r14
    c110:	0f 82 da 01 00 00    	jb     c2f0 <dlrealloc+0x260>
    c116:	4c 89 c0             	mov    %r8,%rax
    c119:	83 e0 03             	and    $0x3,%eax
    c11c:	49 39 f6             	cmp    %rsi,%r14
    c11f:	0f 83 cb 01 00 00    	jae    c2f0 <dlrealloc+0x260>
    c125:	48 83 f8 01          	cmp    $0x1,%rax
    c129:	0f 84 c1 01 00 00    	je     c2f0 <dlrealloc+0x260>
    c12f:	48 8b 4e 08          	mov    0x8(%rsi),%rcx
    c133:	f6 c1 01             	test   $0x1,%cl
    c136:	0f 84 b4 01 00 00    	je     c2f0 <dlrealloc+0x260>
    c13c:	48 85 c0             	test   %rax,%rax
    c13f:	75 6f                	jne    c1b0 <dlrealloc+0x120>
    c141:	48 81 ff f8 00 00 00 	cmp    $0xf8,%rdi
    c148:	0f 86 5a 02 00 00    	jbe    c3a8 <dlrealloc+0x318>
    c14e:	48 8d 47 08          	lea    0x8(%rdi),%rax
    c152:	48 39 d0             	cmp    %rdx,%rax
    c155:	0f 87 4d 02 00 00    	ja     c3a8 <dlrealloc+0x318>
    c15b:	48 8b 05 8e 63 00 00 	mov    0x638e(%rip),%rax        # 124f0 <mparams+0x10>
    c162:	48 29 fa             	sub    %rdi,%rdx
    c165:	48 01 c0             	add    %rax,%rax
    c168:	48 39 c2             	cmp    %rax,%rdx
    c16b:	0f 87 37 02 00 00    	ja     c3a8 <dlrealloc+0x318>
    c171:	f6 83 70 03 00 00 02 	testb  $0x2,0x370(%rbx)
    c178:	0f 85 b2 02 00 00    	jne    c430 <dlrealloc+0x3a0>
    c17e:	4d 85 f6             	test   %r14,%r14
    c181:	0f 84 2e 02 00 00    	je     c3b5 <dlrealloc+0x325>
    c187:	48 83 c4 08          	add    $0x8,%rsp
    c18b:	48 89 e8             	mov    %rbp,%rax
    c18e:	5b                   	pop    %rbx
    c18f:	5d                   	pop    %rbp
    c190:	41 5c                	pop    %r12
    c192:	41 5d                	pop    %r13
    c194:	41 5e                	pop    %r14
    c196:	41 5f                	pop    %r15
    c198:	c3                   	retq   
    c199:	0f 1f 80 00 00 00 00 	nopl   0x0(%rax)
    c1a0:	48 8d 7e 1f          	lea    0x1f(%rsi),%rdi
    c1a4:	48 83 e7 f0          	and    $0xfffffffffffffff0,%rdi
    c1a8:	e9 25 ff ff ff       	jmpq   c0d2 <dlrealloc+0x42>
    c1ad:	0f 1f 00             	nopl   (%rax)
    c1b0:	48 39 d7             	cmp    %rdx,%rdi
    c1b3:	0f 86 87 01 00 00    	jbe    c340 <dlrealloc+0x2b0>
    c1b9:	48 39 73 28          	cmp    %rsi,0x28(%rbx)
    c1bd:	0f 84 ca 02 00 00    	je     c48d <dlrealloc+0x3fd>
    c1c3:	48 39 73 20          	cmp    %rsi,0x20(%rbx)
    c1c7:	0f 84 14 03 00 00    	je     c4e1 <dlrealloc+0x451>
    c1cd:	f6 c1 02             	test   $0x2,%cl
    c1d0:	0f 85 d2 01 00 00    	jne    c3a8 <dlrealloc+0x318>
    c1d6:	48 83 e1 f8          	and    $0xfffffffffffffff8,%rcx
    c1da:	48 8d 04 11          	lea    (%rcx,%rdx,1),%rax
    c1de:	48 39 c7             	cmp    %rax,%rdi
    c1e1:	0f 87 c1 01 00 00    	ja     c3a8 <dlrealloc+0x318>
    c1e7:	48 89 c2             	mov    %rax,%rdx
    c1ea:	48 c1 e9 03          	shr    $0x3,%rcx
    c1ee:	4c 8b 56 18          	mov    0x18(%rsi),%r10
    c1f2:	48 29 fa             	sub    %rdi,%rdx
    c1f5:	48 83 f9 1f          	cmp    $0x1f,%rcx
    c1f9:	0f 86 40 02 00 00    	jbe    c43f <dlrealloc+0x3af>
    c1ff:	49 39 f2             	cmp    %rsi,%r10
    c202:	4c 8b 7e 30          	mov    0x30(%rsi),%r15
    c206:	0f 84 93 03 00 00    	je     c59f <dlrealloc+0x50f>
    c20c:	48 8b 4e 10          	mov    0x10(%rsi),%rcx
    c210:	49 39 c9             	cmp    %rcx,%r9
    c213:	0f 87 d7 00 00 00    	ja     c2f0 <dlrealloc+0x260>
    c219:	48 39 71 18          	cmp    %rsi,0x18(%rcx)
    c21d:	0f 85 cd 00 00 00    	jne    c2f0 <dlrealloc+0x260>
    c223:	49 3b 72 10          	cmp    0x10(%r10),%rsi
    c227:	0f 85 c3 00 00 00    	jne    c2f0 <dlrealloc+0x260>
    c22d:	4c 89 51 18          	mov    %r10,0x18(%rcx)
    c231:	49 89 4a 10          	mov    %rcx,0x10(%r10)
    c235:	4d 85 ff             	test   %r15,%r15
    c238:	74 69                	je     c2a3 <dlrealloc+0x213>
    c23a:	44 8b 5e 38          	mov    0x38(%rsi),%r11d
    c23e:	4c 89 d9             	mov    %r11,%rcx
    c241:	4e 8d 1c db          	lea    (%rbx,%r11,8),%r11
    c245:	49 39 b3 58 02 00 00 	cmp    %rsi,0x258(%r11)
    c24c:	0f 84 a2 03 00 00    	je     c5f4 <dlrealloc+0x564>
    c252:	4d 39 f9             	cmp    %r15,%r9
    c255:	0f 87 95 00 00 00    	ja     c2f0 <dlrealloc+0x260>
    c25b:	49 39 77 20          	cmp    %rsi,0x20(%r15)
    c25f:	0f 84 cb 03 00 00    	je     c630 <dlrealloc+0x5a0>
    c265:	4d 89 57 28          	mov    %r10,0x28(%r15)
    c269:	4d 85 d2             	test   %r10,%r10
    c26c:	74 35                	je     c2a3 <dlrealloc+0x213>
    c26e:	4d 39 d1             	cmp    %r10,%r9
    c271:	77 7d                	ja     c2f0 <dlrealloc+0x260>
    c273:	48 8b 4e 20          	mov    0x20(%rsi),%rcx
    c277:	4d 89 7a 30          	mov    %r15,0x30(%r10)
    c27b:	48 85 c9             	test   %rcx,%rcx
    c27e:	74 0d                	je     c28d <dlrealloc+0x1fd>
    c280:	49 39 c9             	cmp    %rcx,%r9
    c283:	77 6b                	ja     c2f0 <dlrealloc+0x260>
    c285:	49 89 4a 20          	mov    %rcx,0x20(%r10)
    c289:	4c 89 51 30          	mov    %r10,0x30(%rcx)
    c28d:	48 8b 4e 28          	mov    0x28(%rsi),%rcx
    c291:	48 85 c9             	test   %rcx,%rcx
    c294:	74 0d                	je     c2a3 <dlrealloc+0x213>
    c296:	49 39 c9             	cmp    %rcx,%r9
    c299:	77 55                	ja     c2f0 <dlrealloc+0x260>
    c29b:	49 89 4a 28          	mov    %rcx,0x28(%r10)
    c29f:	4c 89 51 30          	mov    %r10,0x30(%rcx)
    c2a3:	4c 8b 0d 36 62 00 00 	mov    0x6236(%rip),%r9        # 124e0 <mparams>
    c2aa:	41 83 e0 01          	and    $0x1,%r8d
    c2ae:	49 8d 0c 06          	lea    (%r14,%rax,1),%rcx
    c2b2:	49 83 c8 02          	or     $0x2,%r8
    c2b6:	49 31 d9             	xor    %rbx,%r9
    c2b9:	48 83 fa 1f          	cmp    $0x1f,%rdx
    c2bd:	0f 87 8a 02 00 00    	ja     c54d <dlrealloc+0x4bd>
    c2c3:	4c 09 c0             	or     %r8,%rax
    c2c6:	48 89 45 f8          	mov    %rax,-0x8(%rbp)
    c2ca:	4c 89 09             	mov    %r9,(%rcx)
    c2cd:	48 83 49 08 01       	orq    $0x1,0x8(%rcx)
    c2d2:	e9 9a fe ff ff       	jmpq   c171 <dlrealloc+0xe1>
    c2d7:	4d 39 d1             	cmp    %r10,%r9
    c2da:	77 14                	ja     c2f0 <dlrealloc+0x260>
    c2dc:	49 39 72 10          	cmp    %rsi,0x10(%r10)
    c2e0:	0f 84 81 01 00 00    	je     c467 <dlrealloc+0x3d7>
    c2e6:	66 2e 0f 1f 84 00 00 	nopw   %cs:0x0(%rax,%rax,1)
    c2ed:	00 00 00 
    c2f0:	e8 3b 1a 00 00       	callq  dd30 <abort>
    c2f5:	0f 1f 00             	nopl   (%rax)
    c2f8:	48 8d 93 74 03 00 00 	lea    0x374(%rbx),%rdx
    c2ff:	b8 01 00 00 00       	mov    $0x1,%eax
    c304:	87 02                	xchg   %eax,(%rdx)
    c306:	85 c0                	test   %eax,%eax
    c308:	74 18                	je     c322 <dlrealloc+0x292>
    c30a:	b9 01 00 00 00       	mov    $0x1,%ecx
    c30f:	90                   	nop
    c310:	8b 83 74 03 00 00    	mov    0x374(%rbx),%eax
    c316:	85 c0                	test   %eax,%eax
    c318:	75 f6                	jne    c310 <dlrealloc+0x280>
    c31a:	89 c8                	mov    %ecx,%eax
    c31c:	87 02                	xchg   %eax,(%rdx)
    c31e:	85 c0                	test   %eax,%eax
    c320:	75 ee                	jne    c310 <dlrealloc+0x280>
    c322:	4c 8b 45 f8          	mov    -0x8(%rbp),%r8
    c326:	4c 89 c2             	mov    %r8,%rdx
    c329:	48 83 e2 f8          	and    $0xfffffffffffffff8,%rdx
    c32d:	49 8d 34 16          	lea    (%r14,%rdx,1),%rsi
    c331:	e9 d3 fd ff ff       	jmpq   c109 <dlrealloc+0x79>
    c336:	66 2e 0f 1f 84 00 00 	nopw   %cs:0x0(%rax,%rax,1)
    c33d:	00 00 00 
    c340:	48 29 fa             	sub    %rdi,%rdx
    c343:	48 83 fa 1f          	cmp    $0x1f,%rdx
    c347:	49 89 d4             	mov    %rdx,%r12
    c34a:	0f 86 21 fe ff ff    	jbe    c171 <dlrealloc+0xe1>
    c350:	48 8b 05 89 61 00 00 	mov    0x6189(%rip),%rax        # 124e0 <mparams>
    c357:	4d 8d 3c 3e          	lea    (%r14,%rdi,1),%r15
    c35b:	41 83 e0 01          	and    $0x1,%r8d
    c35f:	48 83 cf 02          	or     $0x2,%rdi
    c363:	48 83 ca 03          	or     $0x3,%rdx
    c367:	4c 09 c7             	or     %r8,%rdi
    c36a:	48 31 d8             	xor    %rbx,%rax
    c36d:	48 89 7d f8          	mov    %rdi,-0x8(%rbp)
    c371:	49 89 57 08          	mov    %rdx,0x8(%r15)
    c375:	49 89 07             	mov    %rax,(%r15)
    c378:	48 83 4e 08 01       	orq    $0x1,0x8(%rsi)
    c37d:	49 8d 54 24 f0       	lea    -0x10(%r12),%rdx
    c382:	49 8d 7f 10          	lea    0x10(%r15),%rdi
    c386:	48 89 06             	mov    %rax,(%rsi)
    c389:	31 f6                	xor    %esi,%esi
    c38b:	e8 3d 08 00 00       	callq  cbcd <memset>
    c390:	4c 89 e2             	mov    %r12,%rdx
    c393:	4c 89 fe             	mov    %r15,%rsi
    c396:	48 89 df             	mov    %rbx,%rdi
    c399:	e8 a2 d1 ff ff       	callq  9540 <dispose_chunk>
    c39e:	e9 ce fd ff ff       	jmpq   c171 <dlrealloc+0xe1>
    c3a3:	0f 1f 44 00 00       	nopl   0x0(%rax,%rax,1)
    c3a8:	f6 83 70 03 00 00 02 	testb  $0x2,0x370(%rbx)
    c3af:	0f 85 89 01 00 00    	jne    c53e <dlrealloc+0x4ae>
    c3b5:	4c 89 ef             	mov    %r13,%rdi
    c3b8:	e8 d3 d8 ff ff       	callq  9c90 <dlmalloc>
    c3bd:	48 85 c0             	test   %rax,%rax
    c3c0:	49 89 c4             	mov    %rax,%r12
    c3c3:	0f 84 ab 00 00 00    	je     c474 <dlrealloc+0x3e4>
    c3c9:	48 8b 5d f8          	mov    -0x8(%rbp),%rbx
    c3cd:	4c 89 ea             	mov    %r13,%rdx
    c3d0:	48 89 ee             	mov    %rbp,%rsi
    c3d3:	48 89 c7             	mov    %rax,%rdi
    c3d6:	48 83 e3 f8          	and    $0xfffffffffffffff8,%rbx
    c3da:	48 83 eb 10          	sub    $0x10,%rbx
    c3de:	49 39 dd             	cmp    %rbx,%r13
    c3e1:	48 0f 47 d3          	cmova  %rbx,%rdx
    c3e5:	e8 96 07 00 00       	callq  cb80 <memcpy>
    c3ea:	48 89 ef             	mov    %rbp,%rdi
    c3ed:	48 89 da             	mov    %rbx,%rdx
    c3f0:	31 f6                	xor    %esi,%esi
    c3f2:	e8 d6 07 00 00       	callq  cbcd <memset>
    c3f7:	48 89 ef             	mov    %rbp,%rdi
    c3fa:	4c 89 e5             	mov    %r12,%rbp
    c3fd:	e8 ae f2 ff ff       	callq  b6b0 <dlfree>
    c402:	e9 80 fd ff ff       	jmpq   c187 <dlrealloc+0xf7>
    c407:	66 0f 1f 84 00 00 00 	nopw   0x0(%rax,%rax,1)
    c40e:	00 00 
    c410:	48 83 c4 08          	add    $0x8,%rsp
    c414:	48 89 f7             	mov    %rsi,%rdi
    c417:	5b                   	pop    %rbx
    c418:	5d                   	pop    %rbp
    c419:	41 5c                	pop    %r12
    c41b:	41 5d                	pop    %r13
    c41d:	41 5e                	pop    %r14
    c41f:	41 5f                	pop    %r15
    c421:	e9 6a d8 ff ff       	jmpq   9c90 <dlmalloc>
    c426:	66 2e 0f 1f 84 00 00 	nopw   %cs:0x0(%rax,%rax,1)
    c42d:	00 00 00 
    c430:	c7 83 74 03 00 00 00 	movl   $0x0,0x374(%rbx)
    c437:	00 00 00 
    c43a:	e9 3f fd ff ff       	jmpq   c17e <dlrealloc+0xee>
    c43f:	44 8d 24 09          	lea    (%rcx,%rcx,1),%r12d
    c443:	4c 8b 5e 10          	mov    0x10(%rsi),%r11
    c447:	4e 8d 64 e3 48       	lea    0x48(%rbx,%r12,8),%r12
    c44c:	4d 39 e3             	cmp    %r12,%r11
    c44f:	0f 85 be 01 00 00    	jne    c613 <dlrealloc+0x583>
    c455:	4d 39 d3             	cmp    %r10,%r11
    c458:	0f 84 88 01 00 00    	je     c5e6 <dlrealloc+0x556>
    c45e:	4d 39 d4             	cmp    %r10,%r12
    c461:	0f 85 70 fe ff ff    	jne    c2d7 <dlrealloc+0x247>
    c467:	4d 89 53 18          	mov    %r10,0x18(%r11)
    c46b:	4d 89 5a 10          	mov    %r11,0x10(%r10)
    c46f:	e9 2f fe ff ff       	jmpq   c2a3 <dlrealloc+0x213>
    c474:	31 ed                	xor    %ebp,%ebp
    c476:	e9 0c fd ff ff       	jmpq   c187 <dlrealloc+0xf7>
    c47b:	e8 20 0b 00 00       	callq  cfa0 <__errno_location>
    c480:	31 ed                	xor    %ebp,%ebp
    c482:	c7 00 0c 00 00 00    	movl   $0xc,(%rax)
    c488:	e9 fa fc ff ff       	jmpq   c187 <dlrealloc+0xf7>
    c48d:	48 03 53 10          	add    0x10(%rbx),%rdx
    c491:	48 39 d7             	cmp    %rdx,%rdi
    c494:	0f 83 0e ff ff ff    	jae    c3a8 <dlrealloc+0x318>
    c49a:	48 8b 0d 3f 60 00 00 	mov    0x603f(%rip),%rcx        # 124e0 <mparams>
    c4a1:	49 8d 04 3e          	lea    (%r14,%rdi,1),%rax
    c4a5:	48 29 fa             	sub    %rdi,%rdx
    c4a8:	41 83 e0 01          	and    $0x1,%r8d
    c4ac:	48 83 cf 02          	or     $0x2,%rdi
    c4b0:	4c 09 c7             	or     %r8,%rdi
    c4b3:	48 31 d9             	xor    %rbx,%rcx
    c4b6:	48 89 7d f8          	mov    %rdi,-0x8(%rbp)
    c4ba:	48 89 08             	mov    %rcx,(%rax)
    c4bd:	48 89 d1             	mov    %rdx,%rcx
    c4c0:	48 83 c9 01          	or     $0x1,%rcx
    c4c4:	48 89 48 08          	mov    %rcx,0x8(%rax)
    c4c8:	48 89 43 28          	mov    %rax,0x28(%rbx)
    c4cc:	48 89 53 10          	mov    %rdx,0x10(%rbx)
    c4d0:	e9 9c fc ff ff       	jmpq   c171 <dlrealloc+0xe1>
    c4d5:	e8 d6 f1 ff ff       	callq  b6b0 <dlfree>
    c4da:	31 ed                	xor    %ebp,%ebp
    c4dc:	e9 a6 fc ff ff       	jmpq   c187 <dlrealloc+0xf7>
    c4e1:	48 03 53 08          	add    0x8(%rbx),%rdx
    c4e5:	48 39 d7             	cmp    %rdx,%rdi
    c4e8:	0f 87 ba fe ff ff    	ja     c3a8 <dlrealloc+0x318>
    c4ee:	48 8b 35 eb 5f 00 00 	mov    0x5feb(%rip),%rsi        # 124e0 <mparams>
    c4f5:	48 89 d1             	mov    %rdx,%rcx
    c4f8:	41 83 e0 01          	and    $0x1,%r8d
    c4fc:	48 29 f9             	sub    %rdi,%rcx
    c4ff:	49 83 c8 02          	or     $0x2,%r8
    c503:	49 8d 04 16          	lea    (%r14,%rdx,1),%rax
    c507:	48 31 de             	xor    %rbx,%rsi
    c50a:	48 83 f9 1f          	cmp    $0x1f,%rcx
    c50e:	76 6b                	jbe    c57b <dlrealloc+0x4eb>
    c510:	4d 8d 0c 3e          	lea    (%r14,%rdi,1),%r9
    c514:	48 89 ca             	mov    %rcx,%rdx
    c517:	4c 09 c7             	or     %r8,%rdi
    c51a:	48 83 ca 01          	or     $0x1,%rdx
    c51e:	48 89 7d f8          	mov    %rdi,-0x8(%rbp)
    c522:	49 89 31             	mov    %rsi,(%r9)
    c525:	49 89 51 08          	mov    %rdx,0x8(%r9)
    c529:	48 89 08             	mov    %rcx,(%rax)
    c52c:	48 83 60 08 fe       	andq   $0xfffffffffffffffe,0x8(%rax)
    c531:	48 89 4b 08          	mov    %rcx,0x8(%rbx)
    c535:	4c 89 4b 20          	mov    %r9,0x20(%rbx)
    c539:	e9 33 fc ff ff       	jmpq   c171 <dlrealloc+0xe1>
    c53e:	c7 83 74 03 00 00 00 	movl   $0x0,0x374(%rbx)
    c545:	00 00 00 
    c548:	e9 68 fe ff ff       	jmpq   c3b5 <dlrealloc+0x325>
    c54d:	49 8d 34 3e          	lea    (%r14,%rdi,1),%rsi
    c551:	48 89 d0             	mov    %rdx,%rax
    c554:	4c 09 c7             	or     %r8,%rdi
    c557:	48 83 c8 03          	or     $0x3,%rax
    c55b:	48 89 7d f8          	mov    %rdi,-0x8(%rbp)
    c55f:	48 89 df             	mov    %rbx,%rdi
    c562:	4c 89 0e             	mov    %r9,(%rsi)
    c565:	48 89 46 08          	mov    %rax,0x8(%rsi)
    c569:	48 83 49 08 01       	orq    $0x1,0x8(%rcx)
    c56e:	4c 89 09             	mov    %r9,(%rcx)
    c571:	e8 ca cf ff ff       	callq  9540 <dispose_chunk>
    c576:	e9 f6 fb ff ff       	jmpq   c171 <dlrealloc+0xe1>
    c57b:	4c 09 c2             	or     %r8,%rdx
    c57e:	48 89 55 f8          	mov    %rdx,-0x8(%rbp)
    c582:	48 89 30             	mov    %rsi,(%rax)
    c585:	48 83 48 08 01       	orq    $0x1,0x8(%rax)
    c58a:	48 c7 43 08 00 00 00 	movq   $0x0,0x8(%rbx)
    c591:	00 
    c592:	48 c7 43 20 00 00 00 	movq   $0x0,0x20(%rbx)
    c599:	00 
    c59a:	e9 d2 fb ff ff       	jmpq   c171 <dlrealloc+0xe1>
    c59f:	48 8b 4e 28          	mov    0x28(%rsi),%rcx
    c5a3:	4c 8d 5e 28          	lea    0x28(%rsi),%r11
    c5a7:	48 85 c9             	test   %rcx,%rcx
    c5aa:	0f 84 89 00 00 00    	je     c639 <dlrealloc+0x5a9>
    c5b0:	49 89 ca             	mov    %rcx,%r10
    c5b3:	48 8b 49 28          	mov    0x28(%rcx),%rcx
    c5b7:	4d 89 dc             	mov    %r11,%r12
    c5ba:	4d 8d 5a 28          	lea    0x28(%r10),%r11
    c5be:	48 85 c9             	test   %rcx,%rcx
    c5c1:	75 ed                	jne    c5b0 <dlrealloc+0x520>
    c5c3:	49 8b 4a 20          	mov    0x20(%r10),%rcx
    c5c7:	4d 8d 5a 20          	lea    0x20(%r10),%r11
    c5cb:	48 85 c9             	test   %rcx,%rcx
    c5ce:	75 e0                	jne    c5b0 <dlrealloc+0x520>
    c5d0:	4d 39 e1             	cmp    %r12,%r9
    c5d3:	0f 87 17 fd ff ff    	ja     c2f0 <dlrealloc+0x260>
    c5d9:	49 c7 04 24 00 00 00 	movq   $0x0,(%r12)
    c5e0:	00 
    c5e1:	e9 4f fc ff ff       	jmpq   c235 <dlrealloc+0x1a5>
    c5e6:	be fe ff ff ff       	mov    $0xfffffffe,%esi
    c5eb:	d3 c6                	rol    %cl,%esi
    c5ed:	21 33                	and    %esi,(%rbx)
    c5ef:	e9 af fc ff ff       	jmpq   c2a3 <dlrealloc+0x213>
    c5f4:	4d 85 d2             	test   %r10,%r10
    c5f7:	4d 89 93 58 02 00 00 	mov    %r10,0x258(%r11)
    c5fe:	0f 85 6a fc ff ff    	jne    c26e <dlrealloc+0x1de>
    c604:	be fe ff ff ff       	mov    $0xfffffffe,%esi
    c609:	d3 c6                	rol    %cl,%esi
    c60b:	21 73 04             	and    %esi,0x4(%rbx)
    c60e:	e9 90 fc ff ff       	jmpq   c2a3 <dlrealloc+0x213>
    c613:	4d 39 d9             	cmp    %r11,%r9
    c616:	0f 87 d4 fc ff ff    	ja     c2f0 <dlrealloc+0x260>
    c61c:	49 39 73 18          	cmp    %rsi,0x18(%r11)
    c620:	0f 84 2f fe ff ff    	je     c455 <dlrealloc+0x3c5>
    c626:	e9 c5 fc ff ff       	jmpq   c2f0 <dlrealloc+0x260>
    c62b:	0f 1f 44 00 00       	nopl   0x0(%rax,%rax,1)
    c630:	4d 89 57 20          	mov    %r10,0x20(%r15)
    c634:	e9 30 fc ff ff       	jmpq   c269 <dlrealloc+0x1d9>
    c639:	48 8b 4e 20          	mov    0x20(%rsi),%rcx
    c63d:	4c 8d 5e 20          	lea    0x20(%rsi),%r11
    c641:	48 85 c9             	test   %rcx,%rcx
    c644:	0f 85 66 ff ff ff    	jne    c5b0 <dlrealloc+0x520>
    c64a:	4d 85 ff             	test   %r15,%r15
    c64d:	0f 84 50 fc ff ff    	je     c2a3 <dlrealloc+0x213>
    c653:	44 8b 56 38          	mov    0x38(%rsi),%r10d
    c657:	4e 8d 1c d3          	lea    (%rbx,%r10,8),%r11
    c65b:	4c 89 d1             	mov    %r10,%rcx
    c65e:	45 31 d2             	xor    %r10d,%r10d
    c661:	49 3b b3 58 02 00 00 	cmp    0x258(%r11),%rsi
    c668:	0f 85 e4 fb ff ff    	jne    c252 <dlrealloc+0x1c2>
    c66e:	49 c7 83 58 02 00 00 	movq   $0x0,0x258(%r11)
    c675:	00 00 00 00 
    c679:	eb 89                	jmp    c604 <dlrealloc+0x574>
    c67b:	0f 1f 44 00 00       	nopl   0x0(%rax,%rax,1)

000000000000c680 <dlmemalign>:
    c680:	48 83 ff 10          	cmp    $0x10,%rdi
    c684:	0f 86 de 00 00 00    	jbe    c768 <dlmemalign+0xe8>
    c68a:	48 83 ff 1f          	cmp    $0x1f,%rdi
    c68e:	41 54                	push   %r12
    c690:	48 c7 c0 60 ff ff ff 	mov    $0xffffffffffffff60,%rax
    c697:	55                   	push   %rbp
    c698:	53                   	push   %rbx
    c699:	bb 20 00 00 00       	mov    $0x20,%ebx
    c69e:	76 2a                	jbe    c6ca <dlmemalign+0x4a>
    c6a0:	48 8d 57 ff          	lea    -0x1(%rdi),%rdx
    c6a4:	48 85 fa             	test   %rdi,%rdx
    c6a7:	0f 84 00 02 00 00    	je     c8ad <dlmemalign+0x22d>
    c6ad:	48 83 ff 20          	cmp    $0x20,%rdi
    c6b1:	74 17                	je     c6ca <dlmemalign+0x4a>
    c6b3:	0f 1f 44 00 00       	nopl   0x0(%rax,%rax,1)
    c6b8:	48 01 db             	add    %rbx,%rbx
    c6bb:	48 39 df             	cmp    %rbx,%rdi
    c6be:	77 f8                	ja     c6b8 <dlmemalign+0x38>
    c6c0:	48 c7 c0 80 ff ff ff 	mov    $0xffffffffffffff80,%rax
    c6c7:	48 29 d8             	sub    %rbx,%rax
    c6ca:	48 39 c6             	cmp    %rax,%rsi
    c6cd:	72 19                	jb     c6e8 <dlmemalign+0x68>
    c6cf:	e8 cc 08 00 00       	callq  cfa0 <__errno_location>
    c6d4:	c7 00 0c 00 00 00    	movl   $0xc,(%rax)
    c6da:	31 c0                	xor    %eax,%eax
    c6dc:	5b                   	pop    %rbx
    c6dd:	5d                   	pop    %rbp
    c6de:	41 5c                	pop    %r12
    c6e0:	c3                   	retq   
    c6e1:	0f 1f 80 00 00 00 00 	nopl   0x0(%rax)
    c6e8:	48 83 fe 0e          	cmp    $0xe,%rsi
    c6ec:	bd 20 00 00 00       	mov    $0x20,%ebp
    c6f1:	76 0b                	jbe    c6fe <dlmemalign+0x7e>
    c6f3:	48 83 c6 1f          	add    $0x1f,%rsi
    c6f7:	48 83 e6 f0          	and    $0xfffffffffffffff0,%rsi
    c6fb:	48 89 f5             	mov    %rsi,%rbp
    c6fe:	48 8d 7c 2b 10       	lea    0x10(%rbx,%rbp,1),%rdi
    c703:	e8 88 d5 ff ff       	callq  9c90 <dlmalloc>
    c708:	48 85 c0             	test   %rax,%rax
    c70b:	74 cf                	je     c6dc <dlmemalign+0x5c>
    c70d:	f6 05 7c 5d 00 00 02 	testb  $0x2,0x5d7c(%rip)        # 12490 <_gm_+0x370>
    c714:	4c 8d 60 f0          	lea    -0x10(%rax),%r12
    c718:	0f 85 a2 00 00 00    	jne    c7c0 <dlmemalign+0x140>
    c71e:	48 8d 53 ff          	lea    -0x1(%rbx),%rdx
    c722:	48 85 d0             	test   %rdx,%rax
    c725:	75 49                	jne    c770 <dlmemalign+0xf0>
    c727:	48 8b 48 f8          	mov    -0x8(%rax),%rcx
    c72b:	f6 c1 03             	test   $0x3,%cl
    c72e:	74 14                	je     c744 <dlmemalign+0xc4>
    c730:	48 89 c8             	mov    %rcx,%rax
    c733:	48 8d 55 20          	lea    0x20(%rbp),%rdx
    c737:	48 83 e0 f8          	and    $0xfffffffffffffff8,%rax
    c73b:	48 39 d0             	cmp    %rdx,%rax
    c73e:	0f 87 1c 01 00 00    	ja     c860 <dlmemalign+0x1e0>
    c744:	f6 05 45 5d 00 00 02 	testb  $0x2,0x5d45(%rip)        # 12490 <_gm_+0x370>
    c74b:	49 8d 44 24 10       	lea    0x10(%r12),%rax
    c750:	74 8a                	je     c6dc <dlmemalign+0x5c>
    c752:	c7 05 38 5d 00 00 00 	movl   $0x0,0x5d38(%rip)        # 12494 <_gm_+0x374>
    c759:	00 00 00 
    c75c:	e9 7b ff ff ff       	jmpq   c6dc <dlmemalign+0x5c>
    c761:	0f 1f 80 00 00 00 00 	nopl   0x0(%rax)
    c768:	48 89 f7             	mov    %rsi,%rdi
    c76b:	e9 20 d5 ff ff       	jmpq   9c90 <dlmalloc>
    c770:	48 89 d9             	mov    %rbx,%rcx
    c773:	48 01 c2             	add    %rax,%rdx
    c776:	48 8b 70 f8          	mov    -0x8(%rax),%rsi
    c77a:	48 f7 d9             	neg    %rcx
    c77d:	48 21 ca             	and    %rcx,%rdx
    c780:	48 83 ea 10          	sub    $0x10,%rdx
    c784:	48 89 d1             	mov    %rdx,%rcx
    c787:	48 01 d3             	add    %rdx,%rbx
    c78a:	4c 29 e1             	sub    %r12,%rcx
    c78d:	48 83 f9 20          	cmp    $0x20,%rcx
    c791:	48 89 f1             	mov    %rsi,%rcx
    c794:	48 0f 43 da          	cmovae %rdx,%rbx
    c798:	48 83 e1 f8          	and    $0xfffffffffffffff8,%rcx
    c79c:	48 89 da             	mov    %rbx,%rdx
    c79f:	4c 29 e2             	sub    %r12,%rdx
    c7a2:	48 29 d1             	sub    %rdx,%rcx
    c7a5:	83 e6 03             	and    $0x3,%esi
    c7a8:	75 56                	jne    c800 <dlmemalign+0x180>
    c7aa:	48 03 50 f0          	add    -0x10(%rax),%rdx
    c7ae:	49 89 dc             	mov    %rbx,%r12
    c7b1:	48 89 4b 08          	mov    %rcx,0x8(%rbx)
    c7b5:	48 89 13             	mov    %rdx,(%rbx)
    c7b8:	e9 6e ff ff ff       	jmpq   c72b <dlmemalign+0xab>
    c7bd:	0f 1f 00             	nopl   (%rax)
    c7c0:	ba 01 00 00 00       	mov    $0x1,%edx
    c7c5:	87 15 c9 5c 00 00    	xchg   %edx,0x5cc9(%rip)        # 12494 <_gm_+0x374>
    c7cb:	85 d2                	test   %edx,%edx
    c7cd:	0f 84 4b ff ff ff    	je     c71e <dlmemalign+0x9e>
    c7d3:	b9 01 00 00 00       	mov    $0x1,%ecx
    c7d8:	0f 1f 84 00 00 00 00 	nopl   0x0(%rax,%rax,1)
    c7df:	00 
    c7e0:	8b 15 ae 5c 00 00    	mov    0x5cae(%rip),%edx        # 12494 <_gm_+0x374>
    c7e6:	85 d2                	test   %edx,%edx
    c7e8:	75 f6                	jne    c7e0 <dlmemalign+0x160>
    c7ea:	89 ca                	mov    %ecx,%edx
    c7ec:	87 15 a2 5c 00 00    	xchg   %edx,0x5ca2(%rip)        # 12494 <_gm_+0x374>
    c7f2:	85 d2                	test   %edx,%edx
    c7f4:	75 ea                	jne    c7e0 <dlmemalign+0x160>
    c7f6:	e9 23 ff ff ff       	jmpq   c71e <dlmemalign+0x9e>
    c7fb:	0f 1f 44 00 00       	nopl   0x0(%rax,%rax,1)
    c800:	48 8b 73 08          	mov    0x8(%rbx),%rsi
    c804:	48 8d 3d 15 59 00 00 	lea    0x5915(%rip),%rdi        # 12120 <_gm_>
    c80b:	83 e6 01             	and    $0x1,%esi
    c80e:	48 83 ce 02          	or     $0x2,%rsi
    c812:	48 09 ce             	or     %rcx,%rsi
    c815:	48 01 d9             	add    %rbx,%rcx
    c818:	48 89 73 08          	mov    %rsi,0x8(%rbx)
    c81c:	48 8b 35 bd 5c 00 00 	mov    0x5cbd(%rip),%rsi        # 124e0 <mparams>
    c823:	48 83 49 08 01       	orq    $0x1,0x8(%rcx)
    c828:	48 31 fe             	xor    %rdi,%rsi
    c82b:	48 89 31             	mov    %rsi,(%rcx)
    c82e:	48 8b 48 f8          	mov    -0x8(%rax),%rcx
    c832:	83 e1 01             	and    $0x1,%ecx
    c835:	48 83 c9 02          	or     $0x2,%rcx
    c839:	48 09 d1             	or     %rdx,%rcx
    c83c:	48 89 48 f8          	mov    %rcx,-0x8(%rax)
    c840:	49 8d 04 14          	lea    (%r12,%rdx,1),%rax
    c844:	48 83 48 08 01       	orq    $0x1,0x8(%rax)
    c849:	48 89 30             	mov    %rsi,(%rax)
    c84c:	4c 89 e6             	mov    %r12,%rsi
    c84f:	49 89 dc             	mov    %rbx,%r12
    c852:	e8 e9 cc ff ff       	callq  9540 <dispose_chunk>
    c857:	48 8b 4b 08          	mov    0x8(%rbx),%rcx
    c85b:	e9 cb fe ff ff       	jmpq   c72b <dlmemalign+0xab>
    c860:	48 89 c2             	mov    %rax,%rdx
    c863:	49 8d 34 2c          	lea    (%r12,%rbp,1),%rsi
    c867:	83 e1 01             	and    $0x1,%ecx
    c86a:	48 29 ea             	sub    %rbp,%rdx
    c86d:	48 83 cd 02          	or     $0x2,%rbp
    c871:	48 8d 3d a8 58 00 00 	lea    0x58a8(%rip),%rdi        # 12120 <_gm_>
    c878:	48 09 e9             	or     %rbp,%rcx
    c87b:	49 89 d0             	mov    %rdx,%r8
    c87e:	4c 01 e0             	add    %r12,%rax
    c881:	49 89 4c 24 08       	mov    %rcx,0x8(%r12)
    c886:	48 8b 0d 53 5c 00 00 	mov    0x5c53(%rip),%rcx        # 124e0 <mparams>
    c88d:	49 83 c8 03          	or     $0x3,%r8
    c891:	4c 89 46 08          	mov    %r8,0x8(%rsi)
    c895:	48 31 f9             	xor    %rdi,%rcx
    c898:	48 89 0e             	mov    %rcx,(%rsi)
    c89b:	48 83 48 08 01       	orq    $0x1,0x8(%rax)
    c8a0:	48 89 08             	mov    %rcx,(%rax)
    c8a3:	e8 98 cc ff ff       	callq  9540 <dispose_chunk>
    c8a8:	e9 97 fe ff ff       	jmpq   c744 <dlmemalign+0xc4>
    c8ad:	48 83 c0 20          	add    $0x20,%rax
    c8b1:	48 89 fb             	mov    %rdi,%rbx
    c8b4:	48 29 f8             	sub    %rdi,%rax
    c8b7:	e9 0e fe ff ff       	jmpq   c6ca <dlmemalign+0x4a>
    c8bc:	0f 1f 40 00          	nopl   0x0(%rax)

000000000000c8c0 <dlmallinfo>:
    c8c0:	41 55                	push   %r13
    c8c2:	41 54                	push   %r12
    c8c4:	55                   	push   %rbp
    c8c5:	53                   	push   %rbx
    c8c6:	48 83 ec 18          	sub    $0x18,%rsp
    c8ca:	48 83 3d 0e 5c 00 00 	cmpq   $0x0,0x5c0e(%rip)        # 124e0 <mparams>
    c8d1:	00 
    c8d2:	0f 84 98 01 00 00    	je     ca70 <dlmallinfo+0x1b0>
    c8d8:	8b 1d b2 5b 00 00    	mov    0x5bb2(%rip),%ebx        # 12490 <_gm_+0x370>
    c8de:	83 e3 02             	and    $0x2,%ebx
    c8e1:	0f 85 29 01 00 00    	jne    ca10 <dlmallinfo+0x150>
    c8e7:	4c 8b 05 5a 58 00 00 	mov    0x585a(%rip),%r8        # 12148 <_gm_+0x28>
    c8ee:	4d 85 c0             	test   %r8,%r8
    c8f1:	0f 84 05 01 00 00    	je     c9fc <dlmallinfo+0x13c>
    c8f7:	48 8b 2d 32 58 00 00 	mov    0x5832(%rip),%rbp        # 12130 <_gm_+0x10>
    c8fe:	4c 8d 15 93 5b 00 00 	lea    0x5b93(%rip),%r10        # 12498 <_gm_+0x378>
    c905:	41 bb 01 00 00 00    	mov    $0x1,%r11d
    c90b:	4c 8d 4d 50          	lea    0x50(%rbp),%r9
    c90f:	4c 89 c9             	mov    %r9,%rcx
    c912:	66 0f 1f 44 00 00    	nopw   0x0(%rax,%rax,1)
    c918:	49 8b 32             	mov    (%r10),%rsi
    c91b:	48 8d 46 10          	lea    0x10(%rsi),%rax
    c91f:	a8 0f                	test   $0xf,%al
    c921:	0f 84 b9 00 00 00    	je     c9e0 <dlmallinfo+0x120>
    c927:	48 f7 d8             	neg    %rax
    c92a:	83 e0 0f             	and    $0xf,%eax
    c92d:	48 01 f0             	add    %rsi,%rax
    c930:	72 4c                	jb     c97e <dlmallinfo+0xbe>
    c932:	4d 8b 6a 08          	mov    0x8(%r10),%r13
    c936:	49 01 f5             	add    %rsi,%r13
    c939:	49 39 c5             	cmp    %rax,%r13
    c93c:	76 40                	jbe    c97e <dlmallinfo+0xbe>
    c93e:	49 39 c0             	cmp    %rax,%r8
    c941:	75 31                	jne    c974 <dlmallinfo+0xb4>
    c943:	eb 39                	jmp    c97e <dlmallinfo+0xbe>
    c945:	0f 1f 00             	nopl   (%rax)
    c948:	49 89 d4             	mov    %rdx,%r12
    c94b:	83 e2 03             	and    $0x3,%edx
    c94e:	49 83 e4 f8          	and    $0xfffffffffffffff8,%r12
    c952:	4c 01 e1             	add    %r12,%rcx
    c955:	48 83 fa 01          	cmp    $0x1,%rdx
    c959:	75 07                	jne    c962 <dlmallinfo+0xa2>
    c95b:	4d 01 e1             	add    %r12,%r9
    c95e:	49 83 c3 01          	add    $0x1,%r11
    c962:	4c 01 e0             	add    %r12,%rax
    c965:	48 39 c6             	cmp    %rax,%rsi
    c968:	77 14                	ja     c97e <dlmallinfo+0xbe>
    c96a:	4c 39 c0             	cmp    %r8,%rax
    c96d:	74 0f                	je     c97e <dlmallinfo+0xbe>
    c96f:	4c 39 e8             	cmp    %r13,%rax
    c972:	73 0a                	jae    c97e <dlmallinfo+0xbe>
    c974:	48 8b 50 08          	mov    0x8(%rax),%rdx
    c978:	48 83 fa 0b          	cmp    $0xb,%rdx
    c97c:	75 ca                	jne    c948 <dlmallinfo+0x88>
    c97e:	4d 8b 52 10          	mov    0x10(%r10),%r10
    c982:	4d 85 d2             	test   %r10,%r10
    c985:	75 91                	jne    c918 <dlmallinfo+0x58>
    c987:	48 8b 05 ea 5a 00 00 	mov    0x5aea(%rip),%rax        # 12478 <_gm_+0x358>
    c98e:	89 ca                	mov    %ecx,%edx
    c990:	89 c6                	mov    %eax,%esi
    c992:	44 29 c8             	sub    %r9d,%eax
    c995:	29 ce                	sub    %ecx,%esi
    c997:	89 f1                	mov    %esi,%ecx
    c999:	8b 35 e1 5a 00 00    	mov    0x5ae1(%rip),%esi        # 12480 <_gm_+0x360>
    c99f:	85 db                	test   %ebx,%ebx
    c9a1:	75 4d                	jne    c9f0 <dlmallinfo+0x130>
    c9a3:	89 47 1c             	mov    %eax,0x1c(%rdi)
    c9a6:	89 17                	mov    %edx,(%rdi)
    c9a8:	48 89 f8             	mov    %rdi,%rax
    c9ab:	44 89 5f 04          	mov    %r11d,0x4(%rdi)
    c9af:	48 c7 47 08 00 00 00 	movq   $0x0,0x8(%rdi)
    c9b6:	00 
    c9b7:	89 4f 10             	mov    %ecx,0x10(%rdi)
    c9ba:	89 77 14             	mov    %esi,0x14(%rdi)
    c9bd:	c7 47 18 00 00 00 00 	movl   $0x0,0x18(%rdi)
    c9c4:	44 89 4f 20          	mov    %r9d,0x20(%rdi)
    c9c8:	89 6f 24             	mov    %ebp,0x24(%rdi)
    c9cb:	48 83 c4 18          	add    $0x18,%rsp
    c9cf:	5b                   	pop    %rbx
    c9d0:	5d                   	pop    %rbp
    c9d1:	41 5c                	pop    %r12
    c9d3:	41 5d                	pop    %r13
    c9d5:	c3                   	retq   
    c9d6:	66 2e 0f 1f 84 00 00 	nopw   %cs:0x0(%rax,%rax,1)
    c9dd:	00 00 00 
    c9e0:	48 89 f0             	mov    %rsi,%rax
    c9e3:	e9 4a ff ff ff       	jmpq   c932 <dlmallinfo+0x72>
    c9e8:	0f 1f 84 00 00 00 00 	nopl   0x0(%rax,%rax,1)
    c9ef:	00 
    c9f0:	c7 05 9a 5a 00 00 00 	movl   $0x0,0x5a9a(%rip)        # 12494 <_gm_+0x374>
    c9f7:	00 00 00 
    c9fa:	eb a7                	jmp    c9a3 <dlmallinfo+0xe3>
    c9fc:	31 ed                	xor    %ebp,%ebp
    c9fe:	45 31 c9             	xor    %r9d,%r9d
    ca01:	31 c0                	xor    %eax,%eax
    ca03:	31 f6                	xor    %esi,%esi
    ca05:	31 c9                	xor    %ecx,%ecx
    ca07:	45 31 db             	xor    %r11d,%r11d
    ca0a:	31 d2                	xor    %edx,%edx
    ca0c:	eb 95                	jmp    c9a3 <dlmallinfo+0xe3>
    ca0e:	66 90                	xchg   %ax,%ax
    ca10:	b8 01 00 00 00       	mov    $0x1,%eax
    ca15:	87 05 79 5a 00 00    	xchg   %eax,0x5a79(%rip)        # 12494 <_gm_+0x374>
    ca1b:	85 c0                	test   %eax,%eax
    ca1d:	74 1f                	je     ca3e <dlmallinfo+0x17e>
    ca1f:	ba 01 00 00 00       	mov    $0x1,%edx
    ca24:	0f 1f 40 00          	nopl   0x0(%rax)
    ca28:	8b 05 66 5a 00 00    	mov    0x5a66(%rip),%eax        # 12494 <_gm_+0x374>
    ca2e:	85 c0                	test   %eax,%eax
    ca30:	75 f6                	jne    ca28 <dlmallinfo+0x168>
    ca32:	89 d0                	mov    %edx,%eax
    ca34:	87 05 5a 5a 00 00    	xchg   %eax,0x5a5a(%rip)        # 12494 <_gm_+0x374>
    ca3a:	85 c0                	test   %eax,%eax
    ca3c:	75 ea                	jne    ca28 <dlmallinfo+0x168>
    ca3e:	4c 8b 05 03 57 00 00 	mov    0x5703(%rip),%r8        # 12148 <_gm_+0x28>
    ca45:	8b 1d 45 5a 00 00    	mov    0x5a45(%rip),%ebx        # 12490 <_gm_+0x370>
    ca4b:	83 e3 02             	and    $0x2,%ebx
    ca4e:	4d 85 c0             	test   %r8,%r8
    ca51:	0f 85 a0 fe ff ff    	jne    c8f7 <dlmallinfo+0x37>
    ca57:	31 ed                	xor    %ebp,%ebp
    ca59:	45 31 c9             	xor    %r9d,%r9d
    ca5c:	31 c0                	xor    %eax,%eax
    ca5e:	31 f6                	xor    %esi,%esi
    ca60:	31 c9                	xor    %ecx,%ecx
    ca62:	45 31 db             	xor    %r11d,%r11d
    ca65:	31 d2                	xor    %edx,%edx
    ca67:	e9 33 ff ff ff       	jmpq   c99f <dlmallinfo+0xdf>
    ca6c:	0f 1f 40 00          	nopl   0x0(%rax)
    ca70:	48 89 7c 24 08       	mov    %rdi,0x8(%rsp)
    ca75:	e8 d6 c9 ff ff       	callq  9450 <init_mparams>
    ca7a:	48 8b 7c 24 08       	mov    0x8(%rsp),%rdi
    ca7f:	e9 54 fe ff ff       	jmpq   c8d8 <dlmallinfo+0x18>
    ca84:	66 2e 0f 1f 84 00 00 	nopw   %cs:0x0(%rax,%rax,1)
    ca8b:	00 00 00 
    ca8e:	66 90                	xchg   %ax,%ax

000000000000ca90 <__memcpy>:
    ca90:	48 85 d2             	test   %rdx,%rdx
    ca93:	48 89 f8             	mov    %rdi,%rax
    ca96:	74 7e                	je     cb16 <__memcpy+0x86>
    ca98:	48 39 f7             	cmp    %rsi,%rdi
    ca9b:	74 79                	je     cb16 <__memcpy+0x86>
    ca9d:	48 39 f7             	cmp    %rsi,%rdi
    caa0:	73 0d                	jae    caaf <__memcpy+0x1f>
    caa2:	48 8d 0c 17          	lea    (%rdi,%rdx,1),%rcx
    caa6:	48 39 ce             	cmp    %rcx,%rsi
    caa9:	0f 82 c8 00 00 00    	jb     cb77 <__memcpy+0xe7>
    caaf:	48 39 f0             	cmp    %rsi,%rax
    cab2:	76 0d                	jbe    cac1 <__memcpy+0x31>
    cab4:	48 8d 0c 16          	lea    (%rsi,%rdx,1),%rcx
    cab8:	48 39 c8             	cmp    %rcx,%rax
    cabb:	0f 82 b6 00 00 00    	jb     cb77 <__memcpy+0xe7>
    cac1:	48 89 f1             	mov    %rsi,%rcx
    cac4:	48 09 c1             	or     %rax,%rcx
    cac7:	83 e1 07             	and    $0x7,%ecx
    caca:	75 54                	jne    cb20 <__memcpy+0x90>
    cacc:	48 89 d1             	mov    %rdx,%rcx
    cacf:	83 e2 07             	and    $0x7,%edx
    cad2:	48 89 c7             	mov    %rax,%rdi
    cad5:	48 c1 e9 03          	shr    $0x3,%rcx
    cad9:	49 89 d0             	mov    %rdx,%r8
    cadc:	48 85 c9             	test   %rcx,%rcx
    cadf:	74 26                	je     cb07 <__memcpy+0x77>
    cae1:	4c 8d 0c cd 00 00 00 	lea    0x0(,%rcx,8),%r9
    cae8:	00 
    cae9:	48 89 f9             	mov    %rdi,%rcx
    caec:	4e 8d 14 0e          	lea    (%rsi,%r9,1),%r10
    caf0:	48 8b 16             	mov    (%rsi),%rdx
    caf3:	48 83 c6 08          	add    $0x8,%rsi
    caf7:	48 83 c1 08          	add    $0x8,%rcx
    cafb:	48 89 51 f8          	mov    %rdx,-0x8(%rcx)
    caff:	49 39 f2             	cmp    %rsi,%r10
    cb02:	75 ec                	jne    caf0 <__memcpy+0x60>
    cb04:	4c 01 cf             	add    %r9,%rdi
    cb07:	4d 85 c0             	test   %r8,%r8
    cb0a:	74 0a                	je     cb16 <__memcpy+0x86>
    cb0c:	4a 8d 14 06          	lea    (%rsi,%r8,1),%rdx
    cb10:	a4                   	movsb  %ds:(%rsi),%es:(%rdi)
    cb11:	48 39 d6             	cmp    %rdx,%rsi
    cb14:	75 fa                	jne    cb10 <__memcpy+0x80>
    cb16:	f3 c3                	repz retq 
    cb18:	0f 1f 84 00 00 00 00 	nopl   0x0(%rax,%rax,1)
    cb1f:	00 
    cb20:	48 89 f1             	mov    %rsi,%rcx
    cb23:	48 31 c1             	xor    %rax,%rcx
    cb26:	83 e1 07             	and    $0x7,%ecx
    cb29:	75 2d                	jne    cb58 <__memcpy+0xc8>
    cb2b:	48 83 fa 07          	cmp    $0x7,%rdx
    cb2f:	76 27                	jbe    cb58 <__memcpy+0xc8>
    cb31:	48 89 f1             	mov    %rsi,%rcx
    cb34:	bf 08 00 00 00       	mov    $0x8,%edi
    cb39:	83 e1 07             	and    $0x7,%ecx
    cb3c:	48 29 cf             	sub    %rcx,%rdi
    cb3f:	48 29 fa             	sub    %rdi,%rdx
    cb42:	48 89 d1             	mov    %rdx,%rcx
    cb45:	83 e2 07             	and    $0x7,%edx
    cb48:	49 89 d0             	mov    %rdx,%r8
    cb4b:	48 c1 e9 03          	shr    $0x3,%rcx
    cb4f:	48 89 fa             	mov    %rdi,%rdx
    cb52:	eb 09                	jmp    cb5d <__memcpy+0xcd>
    cb54:	0f 1f 40 00          	nopl   0x0(%rax)
    cb58:	45 31 c0             	xor    %r8d,%r8d
    cb5b:	31 c9                	xor    %ecx,%ecx
    cb5d:	4c 8d 0c 16          	lea    (%rsi,%rdx,1),%r9
    cb61:	48 89 c7             	mov    %rax,%rdi
    cb64:	0f 1f 40 00          	nopl   0x0(%rax)
    cb68:	a4                   	movsb  %ds:(%rsi),%es:(%rdi)
    cb69:	4c 39 ce             	cmp    %r9,%rsi
    cb6c:	75 fa                	jne    cb68 <__memcpy+0xd8>
    cb6e:	48 8d 3c 10          	lea    (%rax,%rdx,1),%rdi
    cb72:	e9 65 ff ff ff       	jmpq   cadc <__memcpy+0x4c>
    cb77:	48 83 ec 08          	sub    $0x8,%rsp
    cb7b:	e8 b0 11 00 00       	callq  dd30 <abort>

000000000000cb80 <memcpy>:
    cb80:	e9 0b ff ff ff       	jmpq   ca90 <__memcpy>

000000000000cb85 <__memset>:
    cb85:	48 89 7c 24 e8       	mov    %rdi,-0x18(%rsp)
    cb8a:	89 74 24 e4          	mov    %esi,-0x1c(%rsp)
    cb8e:	48 89 54 24 d8       	mov    %rdx,-0x28(%rsp)
    cb93:	48 83 7c 24 d8 00    	cmpq   $0x0,-0x28(%rsp)
    cb99:	74 2c                	je     cbc7 <__memset+0x42>
    cb9b:	48 8b 44 24 e8       	mov    -0x18(%rsp),%rax
    cba0:	48 89 44 24 f8       	mov    %rax,-0x8(%rsp)
    cba5:	48 8b 44 24 f8       	mov    -0x8(%rsp),%rax
    cbaa:	48 8d 50 01          	lea    0x1(%rax),%rdx
    cbae:	48 89 54 24 f8       	mov    %rdx,-0x8(%rsp)
    cbb3:	8b 54 24 e4          	mov    -0x1c(%rsp),%edx
    cbb7:	88 10                	mov    %dl,(%rax)
    cbb9:	48 83 6c 24 d8 01    	subq   $0x1,-0x28(%rsp)
    cbbf:	48 83 7c 24 d8 00    	cmpq   $0x0,-0x28(%rsp)
    cbc5:	75 de                	jne    cba5 <__memset+0x20>
    cbc7:	48 8b 44 24 e8       	mov    -0x18(%rsp),%rax
    cbcc:	c3                   	retq   

000000000000cbcd <memset>:
    cbcd:	e9 b3 ff ff ff       	jmpq   cb85 <__memset>
    cbd2:	66 2e 0f 1f 84 00 00 	nopw   %cs:0x0(%rax,%rax,1)
    cbd9:	00 00 00 
    cbdc:	0f 1f 40 00          	nopl   0x0(%rax)

000000000000cbe0 <memset_s>:
    cbe0:	48 85 ff             	test   %rdi,%rdi
    cbe3:	53                   	push   %rbx
    cbe4:	74 42                	je     cc28 <memset_s+0x48>
    cbe6:	48 39 f1             	cmp    %rsi,%rcx
    cbe9:	89 d0                	mov    %edx,%eax
    cbeb:	76 23                	jbe    cc10 <memset_s+0x30>
    cbed:	bb 4b 00 00 00       	mov    $0x4b,%ebx
    cbf2:	48 89 f2             	mov    %rsi,%rdx
    cbf5:	48 8b 0d 3c 54 00 00 	mov    0x543c(%rip),%rcx        # 12038 <__memset_vp>
    cbfc:	89 c6                	mov    %eax,%esi
    cbfe:	ff d1                	callq  *%rcx
    cc00:	e8 9b 03 00 00       	callq  cfa0 <__errno_location>
    cc05:	89 18                	mov    %ebx,(%rax)
    cc07:	89 d8                	mov    %ebx,%eax
    cc09:	5b                   	pop    %rbx
    cc0a:	c3                   	retq   
    cc0b:	0f 1f 44 00 00       	nopl   0x0(%rax,%rax,1)
    cc10:	31 db                	xor    %ebx,%ebx
    cc12:	4c 8b 05 1f 54 00 00 	mov    0x541f(%rip),%r8        # 12038 <__memset_vp>
    cc19:	48 89 ca             	mov    %rcx,%rdx
    cc1c:	89 c6                	mov    %eax,%esi
    cc1e:	41 ff d0             	callq  *%r8
    cc21:	89 d8                	mov    %ebx,%eax
    cc23:	5b                   	pop    %rbx
    cc24:	c3                   	retq   
    cc25:	0f 1f 00             	nopl   (%rax)
    cc28:	bb 16 00 00 00       	mov    $0x16,%ebx
    cc2d:	eb d1                	jmp    cc00 <memset_s+0x20>
    cc2f:	90                   	nop

000000000000cc30 <heap_init>:
    cc30:	48 83 3d 18 52 00 00 	cmpq   $0x0,0x5218(%rip)        # 11e50 <heap_base>
    cc37:	00 
    cc38:	b8 01 00 00 00       	mov    $0x1,%eax
    cc3d:	75 05                	jne    cc44 <heap_init+0x14>
    cc3f:	48 85 ff             	test   %rdi,%rdi
    cc42:	75 0c                	jne    cc50 <heap_init+0x20>
    cc44:	f3 c3                	repz retq 
    cc46:	66 2e 0f 1f 84 00 00 	nopw   %cs:0x0(%rax,%rax,1)
    cc4d:	00 00 00 
    cc50:	f7 c7 ff 0f 00 00    	test   $0xfff,%edi
    cc56:	75 ec                	jne    cc44 <heap_init+0x14>
    cc58:	49 89 f0             	mov    %rsi,%r8
    cc5b:	49 09 d0             	or     %rdx,%r8
    cc5e:	41 f7 c0 ff 0f 00 00 	test   $0xfff,%r8d
    cc65:	75 dd                	jne    cc44 <heap_init+0x14>
    cc67:	48 89 3d e2 51 00 00 	mov    %rdi,0x51e2(%rip)        # 11e50 <heap_base>
    cc6e:	48 89 35 d3 51 00 00 	mov    %rsi,0x51d3(%rip)        # 11e48 <heap_size>
    cc75:	31 c0                	xor    %eax,%eax
    cc77:	48 89 15 ba 51 00 00 	mov    %rdx,0x51ba(%rip)        # 11e38 <heap_min_size>
    cc7e:	89 0d bc 51 00 00    	mov    %ecx,0x51bc(%rip)        # 11e40 <is_edmm_supported>
    cc84:	c3                   	retq   
    cc85:	66 2e 0f 1f 84 00 00 	nopw   %cs:0x0(%rax,%rax,1)
    cc8c:	00 00 00 
    cc8f:	90                   	nop

000000000000cc90 <sbrk>:
    cc90:	55                   	push   %rbp
    cc91:	53                   	push   %rbx
    cc92:	48 c7 c3 ff ff ff ff 	mov    $0xffffffffffffffff,%rbx
    cc99:	48 83 ec 08          	sub    $0x8,%rsp
    cc9d:	48 8b 15 ac 51 00 00 	mov    0x51ac(%rip),%rdx        # 11e50 <heap_base>
    cca4:	48 85 d2             	test   %rdx,%rdx
    cca7:	0f 84 87 00 00 00    	je     cd34 <sbrk+0xa4>
    ccad:	48 85 ff             	test   %rdi,%rdi
    ccb0:	48 8b 2d 61 58 00 00 	mov    0x5861(%rip),%rbp        # 12518 <heap_used.2396>
    ccb7:	0f 88 83 00 00 00    	js     cd40 <sbrk+0xb0>
    ccbd:	48 89 f8             	mov    %rdi,%rax
    ccc0:	48 f7 d0             	not    %rax
    ccc3:	48 39 e8             	cmp    %rbp,%rax
    ccc6:	72 6c                	jb     cd34 <sbrk+0xa4>
    ccc8:	48 8d 04 2f          	lea    (%rdi,%rbp,1),%rax
    cccc:	48 3b 05 75 51 00 00 	cmp    0x5175(%rip),%rax        # 11e48 <heap_size>
    ccd3:	77 5f                	ja     cd34 <sbrk+0xa4>
    ccd5:	48 39 05 44 58 00 00 	cmp    %rax,0x5844(%rip)        # 12520 <g_peak_heap_used>
    ccdc:	48 89 c1             	mov    %rax,%rcx
    ccdf:	48 8d 1c 2a          	lea    (%rdx,%rbp,1),%rbx
    cce3:	48 0f 43 0d 35 58 00 	cmovae 0x5835(%rip),%rcx        # 12520 <g_peak_heap_used>
    ccea:	00 
    cceb:	48 89 05 26 58 00 00 	mov    %rax,0x5826(%rip)        # 12518 <heap_used.2396>
    ccf2:	48 89 0d 27 58 00 00 	mov    %rcx,0x5827(%rip)        # 12520 <g_peak_heap_used>
    ccf9:	8b 0d 41 51 00 00    	mov    0x5141(%rip),%ecx        # 11e40 <is_edmm_supported>
    ccff:	85 c9                	test   %ecx,%ecx
    cd01:	74 31                	je     cd34 <sbrk+0xa4>
    cd03:	48 8b 0d 2e 51 00 00 	mov    0x512e(%rip),%rcx        # 11e38 <heap_min_size>
    cd0a:	48 39 c8             	cmp    %rcx,%rax
    cd0d:	76 25                	jbe    cd34 <sbrk+0xa4>
    cd0f:	48 39 e9             	cmp    %rbp,%rcx
    cd12:	49 89 d8             	mov    %rbx,%r8
    cd15:	72 0a                	jb     cd21 <sbrk+0x91>
    cd17:	48 29 c8             	sub    %rcx,%rax
    cd1a:	4c 8d 04 0a          	lea    (%rdx,%rcx,1),%r8
    cd1e:	48 89 c7             	mov    %rax,%rdi
    cd21:	48 89 fe             	mov    %rdi,%rsi
    cd24:	4c 89 c7             	mov    %r8,%rdi
    cd27:	48 c1 ee 0c          	shr    $0xc,%rsi
    cd2b:	e8 d0 a1 ff ff       	callq  6f00 <apply_EPC_pages>
    cd30:	85 c0                	test   %eax,%eax
    cd32:	75 5b                	jne    cd8f <sbrk+0xff>
    cd34:	48 83 c4 08          	add    $0x8,%rsp
    cd38:	48 89 d8             	mov    %rbx,%rax
    cd3b:	5b                   	pop    %rbx
    cd3c:	5d                   	pop    %rbp
    cd3d:	c3                   	retq   
    cd3e:	66 90                	xchg   %ax,%ax
    cd40:	48 89 fe             	mov    %rdi,%rsi
    cd43:	48 f7 de             	neg    %rsi
    cd46:	48 39 ee             	cmp    %rbp,%rsi
    cd49:	77 e9                	ja     cd34 <sbrk+0xa4>
    cd4b:	48 8d 04 2f          	lea    (%rdi,%rbp,1),%rax
    cd4f:	8b 3d eb 50 00 00    	mov    0x50eb(%rip),%edi        # 11e40 <is_edmm_supported>
    cd55:	48 89 05 bc 57 00 00 	mov    %rax,0x57bc(%rip)        # 12518 <heap_used.2396>
    cd5c:	48 8d 1c 02          	lea    (%rdx,%rax,1),%rbx
    cd60:	85 ff                	test   %edi,%edi
    cd62:	74 d0                	je     cd34 <sbrk+0xa4>
    cd64:	48 8b 0d cd 50 00 00 	mov    0x50cd(%rip),%rcx        # 11e38 <heap_min_size>
    cd6b:	48 39 e9             	cmp    %rbp,%rcx
    cd6e:	73 c4                	jae    cd34 <sbrk+0xa4>
    cd70:	48 39 c1             	cmp    %rax,%rcx
    cd73:	48 89 df             	mov    %rbx,%rdi
    cd76:	72 0a                	jb     cd82 <sbrk+0xf2>
    cd78:	48 89 ee             	mov    %rbp,%rsi
    cd7b:	48 8d 3c 0a          	lea    (%rdx,%rcx,1),%rdi
    cd7f:	48 29 ce             	sub    %rcx,%rsi
    cd82:	48 c1 ee 0c          	shr    $0xc,%rsi
    cd86:	e8 f5 a1 ff ff       	callq  6f80 <trim_EPC_pages>
    cd8b:	85 c0                	test   %eax,%eax
    cd8d:	74 a5                	je     cd34 <sbrk+0xa4>
    cd8f:	48 89 2d 82 57 00 00 	mov    %rbp,0x5782(%rip)        # 12518 <heap_used.2396>
    cd96:	48 c7 c3 ff ff ff ff 	mov    $0xffffffffffffffff,%rbx
    cd9d:	eb 95                	jmp    cd34 <sbrk+0xa4>
    cd9f:	90                   	nop

000000000000cda0 <sgx_init_string_lib>:
    cda0:	31 c0                	xor    %eax,%eax
    cda2:	c3                   	retq   
    cda3:	66 2e 0f 1f 84 00 00 	nopw   %cs:0x0(%rax,%rax,1)
    cdaa:	00 00 00 
    cdad:	0f 1f 00             	nopl   (%rax)

000000000000cdb0 <sgx_spin_lock>:
    cdb0:	48 83 ec 18          	sub    $0x18,%rsp
    cdb4:	ba 01 00 00 00       	mov    $0x1,%edx
    cdb9:	64 48 8b 04 25 28 00 	mov    %fs:0x28,%rax
    cdc0:	00 00 
    cdc2:	48 89 44 24 08       	mov    %rax,0x8(%rsp)
    cdc7:	31 c0                	xor    %eax,%eax
    cdc9:	0f 1f 80 00 00 00 00 	nopl   0x0(%rax)
    cdd0:	f0 87 17             	lock xchg %edx,(%rdi)
    cdd3:	89 54 24 04          	mov    %edx,0x4(%rsp)
    cdd7:	8b 44 24 04          	mov    0x4(%rsp),%eax
    cddb:	85 c0                	test   %eax,%eax
    cddd:	74 11                	je     cdf0 <sgx_spin_lock+0x40>
    cddf:	90                   	nop
    cde0:	8b 07                	mov    (%rdi),%eax
    cde2:	85 c0                	test   %eax,%eax
    cde4:	74 ea                	je     cdd0 <sgx_spin_lock+0x20>
    cde6:	f3 90                	pause  
    cde8:	eb f6                	jmp    cde0 <sgx_spin_lock+0x30>
    cdea:	66 0f 1f 44 00 00    	nopw   0x0(%rax,%rax,1)
    cdf0:	31 c0                	xor    %eax,%eax
    cdf2:	48 8b 4c 24 08       	mov    0x8(%rsp),%rcx
    cdf7:	64 48 33 0c 25 28 00 	xor    %fs:0x28,%rcx
    cdfe:	00 00 
    ce00:	75 05                	jne    ce07 <sgx_spin_lock+0x57>
    ce02:	48 83 c4 18          	add    $0x18,%rsp
    ce06:	c3                   	retq   
    ce07:	e8 04 c6 ff ff       	callq  9410 <__stack_chk_fail>
    ce0c:	0f 1f 40 00          	nopl   0x0(%rax)

000000000000ce10 <sgx_spin_unlock>:
    ce10:	c7 07 00 00 00 00    	movl   $0x0,(%rdi)
    ce16:	31 c0                	xor    %eax,%eax
    ce18:	c3                   	retq   

000000000000ce19 <setjmp>:
    ce19:	50                   	push   %rax
    ce1a:	53                   	push   %rbx
    ce1b:	51                   	push   %rcx
    ce1c:	52                   	push   %rdx
    ce1d:	56                   	push   %rsi
    ce1e:	57                   	push   %rdi
    ce1f:	41 50                	push   %r8
    ce21:	41 51                	push   %r9
    ce23:	41 52                	push   %r10
    ce25:	41 53                	push   %r11
    ce27:	41 54                	push   %r12
    ce29:	41 55                	push   %r13
    ce2b:	41 56                	push   %r14
    ce2d:	41 57                	push   %r15
    ce2f:	48 c7 c6 08 00 00 00 	mov    $0x8,%rsi
    ce36:	e8 55 94 ff ff       	callq  6290 <sgx_is_within_enclave>
    ce3b:	83 f8 00             	cmp    $0x0,%eax
    ce3e:	74 60                	je     cea0 <.crash>
    ce40:	41 5f                	pop    %r15
    ce42:	41 5e                	pop    %r14
    ce44:	41 5d                	pop    %r13
    ce46:	41 5c                	pop    %r12
    ce48:	41 5b                	pop    %r11
    ce4a:	41 5a                	pop    %r10
    ce4c:	41 59                	pop    %r9
    ce4e:	41 58                	pop    %r8
    ce50:	5f                   	pop    %rdi
    ce51:	5e                   	pop    %rsi
    ce52:	5a                   	pop    %rdx
    ce53:	59                   	pop    %rcx
    ce54:	5b                   	pop    %rbx
    ce55:	58                   	pop    %rax
    ce56:	4c 8b 1c 24          	mov    (%rsp),%r11
    ce5a:	48 89 1f             	mov    %rbx,(%rdi)
    ce5d:	48 89 6f 08          	mov    %rbp,0x8(%rdi)
    ce61:	4c 89 67 10          	mov    %r12,0x10(%rdi)
    ce65:	4c 89 6f 18          	mov    %r13,0x18(%rdi)
    ce69:	4c 89 77 20          	mov    %r14,0x20(%rdi)
    ce6d:	4c 89 7f 28          	mov    %r15,0x28(%rdi)
    ce71:	48 89 67 30          	mov    %rsp,0x30(%rdi)
    ce75:	4c 89 5f 38          	mov    %r11,0x38(%rdi)
    ce79:	e8 8d 0b 00 00       	callq  da0b <get_stack_guard>
    ce7e:	48 31 07             	xor    %rax,(%rdi)
    ce81:	48 31 47 08          	xor    %rax,0x8(%rdi)
    ce85:	48 31 47 10          	xor    %rax,0x10(%rdi)
    ce89:	48 31 47 18          	xor    %rax,0x18(%rdi)
    ce8d:	48 31 47 20          	xor    %rax,0x20(%rdi)
    ce91:	48 31 47 28          	xor    %rax,0x28(%rdi)
    ce95:	48 31 47 30          	xor    %rax,0x30(%rdi)
    ce99:	48 31 47 38          	xor    %rax,0x38(%rdi)
    ce9d:	31 c0                	xor    %eax,%eax
    ce9f:	c3                   	retq   

000000000000cea0 <.crash>:
    cea0:	0f 0b                	ud2    

000000000000cea2 <longjmp>:
    cea2:	50                   	push   %rax
    cea3:	53                   	push   %rbx
    cea4:	51                   	push   %rcx
    cea5:	52                   	push   %rdx
    cea6:	56                   	push   %rsi
    cea7:	57                   	push   %rdi
    cea8:	41 50                	push   %r8
    ceaa:	41 51                	push   %r9
    ceac:	41 52                	push   %r10
    ceae:	41 53                	push   %r11
    ceb0:	41 54                	push   %r12
    ceb2:	41 55                	push   %r13
    ceb4:	41 56                	push   %r14
    ceb6:	41 57                	push   %r15
    ceb8:	57                   	push   %rdi
    ceb9:	48 c7 c6 08 00 00 00 	mov    $0x8,%rsi
    cec0:	e8 cb 93 ff ff       	callq  6290 <sgx_is_within_enclave>
    cec5:	83 f8 00             	cmp    $0x0,%eax
    cec8:	74 d6                	je     cea0 <.crash>
    ceca:	5f                   	pop    %rdi
    cecb:	48 8b 57 30          	mov    0x30(%rdi),%rdx
    cecf:	e8 37 0b 00 00       	callq  da0b <get_stack_guard>
    ced4:	48 31 c2             	xor    %rax,%rdx
    ced7:	52                   	push   %rdx
    ced8:	5f                   	pop    %rdi
    ced9:	e8 d2 b2 ff ff       	callq  81b0 <is_valid_sp>
    cede:	83 f8 00             	cmp    $0x0,%eax
    cee1:	74 bd                	je     cea0 <.crash>
    cee3:	41 5f                	pop    %r15
    cee5:	41 5e                	pop    %r14
    cee7:	41 5d                	pop    %r13
    cee9:	41 5c                	pop    %r12
    ceeb:	41 5b                	pop    %r11
    ceed:	41 5a                	pop    %r10
    ceef:	41 59                	pop    %r9
    cef1:	41 58                	pop    %r8
    cef3:	5f                   	pop    %rdi
    cef4:	5e                   	pop    %rsi
    cef5:	5a                   	pop    %rdx
    cef6:	59                   	pop    %rcx
    cef7:	5b                   	pop    %rbx
    cef8:	58                   	pop    %rax
    cef9:	89 f0                	mov    %esi,%eax
    cefb:	48 8b 1f             	mov    (%rdi),%rbx
    cefe:	48 8b 77 08          	mov    0x8(%rdi),%rsi
    cf02:	4c 8b 67 10          	mov    0x10(%rdi),%r12
    cf06:	4c 8b 6f 18          	mov    0x18(%rdi),%r13
    cf0a:	4c 8b 77 20          	mov    0x20(%rdi),%r14
    cf0e:	4c 8b 7f 28          	mov    0x28(%rdi),%r15
    cf12:	48 8b 57 30          	mov    0x30(%rdi),%rdx
    cf16:	48 8b 4f 38          	mov    0x38(%rdi),%rcx
    cf1a:	50                   	push   %rax
    cf1b:	e8 eb 0a 00 00       	callq  da0b <get_stack_guard>
    cf20:	48 31 c3             	xor    %rax,%rbx
    cf23:	48 31 c6             	xor    %rax,%rsi
    cf26:	49 31 c4             	xor    %rax,%r12
    cf29:	49 31 c5             	xor    %rax,%r13
    cf2c:	49 31 c6             	xor    %rax,%r14
    cf2f:	49 31 c7             	xor    %rax,%r15
    cf32:	48 31 c2             	xor    %rax,%rdx
    cf35:	48 31 c1             	xor    %rax,%rcx
    cf38:	58                   	pop    %rax
    cf39:	48 89 f5             	mov    %rsi,%rbp
    cf3c:	48 89 0a             	mov    %rcx,(%rdx)
    cf3f:	48 89 d4             	mov    %rdx,%rsp
    cf42:	85 c0                	test   %eax,%eax
    cf44:	75 02                	jne    cf48 <longjmp+0xa6>
    cf46:	ff c0                	inc    %eax
    cf48:	c3                   	retq   
    cf49:	0f 1f 80 00 00 00 00 	nopl   0x0(%rax)

000000000000cf50 <rsrv_mem_init>:
    cf50:	48 85 ff             	test   %rdi,%rdi
    cf53:	b8 01 00 00 00       	mov    $0x1,%eax
    cf58:	74 11                	je     cf6b <rsrv_mem_init+0x1b>
    cf5a:	48 89 f1             	mov    %rsi,%rcx
    cf5d:	48 09 d1             	or     %rdx,%rcx
    cf60:	48 09 f9             	or     %rdi,%rcx
    cf63:	f7 c1 ff 0f 00 00    	test   $0xfff,%ecx
    cf69:	74 05                	je     cf70 <rsrv_mem_init+0x20>
    cf6b:	f3 c3                	repz retq 
    cf6d:	0f 1f 00             	nopl   (%rax)
    cf70:	48 8b 0d f1 4e 00 00 	mov    0x4ef1(%rip),%rcx        # 11e68 <rsrv_mem_base>
    cf77:	48 f7 d1             	not    %rcx
    cf7a:	48 39 f1             	cmp    %rsi,%rcx
    cf7d:	72 ec                	jb     cf6b <rsrv_mem_init+0x1b>
    cf7f:	48 89 3d e2 4e 00 00 	mov    %rdi,0x4ee2(%rip)        # 11e68 <rsrv_mem_base>
    cf86:	48 89 35 d3 4e 00 00 	mov    %rsi,0x4ed3(%rip)        # 11e60 <rsrv_mem_size>
    cf8d:	31 c0                	xor    %eax,%eax
    cf8f:	48 89 15 c2 4e 00 00 	mov    %rdx,0x4ec2(%rip)        # 11e58 <rsrv_mem_min_size>
    cf96:	c3                   	retq   
    cf97:	66 0f 1f 84 00 00 00 	nopw   0x0(%rax,%rax,1)
    cf9e:	00 00 

000000000000cfa0 <__errno_location>:
    cfa0:	e9 5b b1 ff ff       	jmpq   8100 <get_errno_addr>
    cfa5:	66 2e 0f 1f 84 00 00 	nopw   %cs:0x0(%rax,%rax,1)
    cfac:	00 00 00 
    cfaf:	90                   	nop

000000000000cfb0 <sgx_init_crypto_lib>:
    cfb0:	e9 0b 00 00 00       	jmpq   cfc0 <init_ipp_cpuid>
    cfb5:	66 2e 0f 1f 84 00 00 	nopw   %cs:0x0(%rax,%rax,1)
    cfbc:	00 00 00 
    cfbf:	90                   	nop

000000000000cfc0 <init_ipp_cpuid>:
    cfc0:	48 83 3d 18 50 00 00 	cmpq   $0x0,0x5018(%rip)        # 11fe0 <ippcpSetCpuFeatures>
    cfc7:	00 
    cfc8:	0f 84 1a 02 00 00    	je     d1e8 <init_ipp_cpuid+0x228>
    cfce:	f7 c7 00 02 00 00    	test   $0x200,%edi
    cfd4:	0f 84 16 02 00 00    	je     d1f0 <init_ipp_cpuid+0x230>
    cfda:	48 89 f8             	mov    %rdi,%rax
    cfdd:	48 83 ec 08          	sub    $0x8,%rsp
    cfe1:	48 b9 00 00 00 00 08 	movabs $0x800000000,%rcx
    cfe8:	00 00 00 
    cfeb:	25 00 08 00 00       	and    $0x800,%eax
    cff0:	48 83 f8 01          	cmp    $0x1,%rax
    cff4:	48 19 c0             	sbb    %rax,%rax
    cff7:	48 83 e0 e0          	and    $0xffffffffffffffe0,%rax
    cffb:	48 83 c0 7f          	add    $0x7f,%rax
    cfff:	48 89 c2             	mov    %rax,%rdx
    d002:	80 ca 80             	or     $0x80,%dl
    d005:	f7 c7 00 04 00 00    	test   $0x400,%edi
    d00b:	48 0f 45 c2          	cmovne %rdx,%rax
    d00f:	48 89 c2             	mov    %rax,%rdx
    d012:	80 ce 03             	or     $0x3,%dh
    d015:	f7 c7 00 00 01 00    	test   $0x10000,%edi
    d01b:	48 0f 45 c2          	cmovne %rdx,%rax
    d01f:	48 89 c2             	mov    %rax,%rdx
    d022:	80 ce 04             	or     $0x4,%dh
    d025:	f7 c7 00 40 00 00    	test   $0x4000,%edi
    d02b:	48 0f 45 c2          	cmovne %rdx,%rax
    d02f:	48 89 c2             	mov    %rax,%rdx
    d032:	80 ce 08             	or     $0x8,%dh
    d035:	f7 c7 00 20 00 00    	test   $0x2000,%edi
    d03b:	48 0f 45 c2          	cmovne %rdx,%rax
    d03f:	48 89 c2             	mov    %rax,%rdx
    d042:	80 ce 20             	or     $0x20,%dh
    d045:	f7 c7 00 00 02 00    	test   $0x20000,%edi
    d04b:	48 0f 45 c2          	cmovne %rdx,%rax
    d04f:	48 89 c2             	mov    %rax,%rdx
    d052:	80 ce 40             	or     $0x40,%dh
    d055:	f7 c7 00 80 00 00    	test   $0x8000,%edi
    d05b:	48 0f 45 c2          	cmovne %rdx,%rax
    d05f:	48 89 c2             	mov    %rax,%rdx
    d062:	80 ce 80             	or     $0x80,%dh
    d065:	f7 c7 00 00 80 00    	test   $0x800000,%edi
    d06b:	48 0f 45 c2          	cmovne %rdx,%rax
    d06f:	48 89 c2             	mov    %rax,%rdx
    d072:	48 81 ca 00 00 01 00 	or     $0x10000,%rdx
    d079:	f7 c7 00 00 00 10    	test   $0x10000000,%edi
    d07f:	48 0f 45 c2          	cmovne %rdx,%rax
    d083:	48 89 c2             	mov    %rax,%rdx
    d086:	48 81 ca 00 00 02 00 	or     $0x20000,%rdx
    d08d:	f7 c7 00 00 00 20    	test   $0x20000000,%edi
    d093:	48 0f 45 c2          	cmovne %rdx,%rax
    d097:	48 89 c2             	mov    %rax,%rdx
    d09a:	48 81 ca 00 00 08 00 	or     $0x80000,%rdx
    d0a1:	48 85 cf             	test   %rcx,%rdi
    d0a4:	48 0f 45 c2          	cmovne %rdx,%rax
    d0a8:	f7 c7 00 00 00 08    	test   $0x8000000,%edi
    d0ae:	74 0d                	je     d0bd <init_ipp_cpuid+0xfd>
    d0b0:	48 ba 00 00 10 00 02 	movabs $0x200100000,%rdx
    d0b7:	00 00 00 
    d0ba:	48 09 d0             	or     %rdx,%rax
    d0bd:	48 89 c2             	mov    %rax,%rdx
    d0c0:	48 b9 00 00 00 00 02 	movabs $0x200000000,%rcx
    d0c7:	00 00 00 
    d0ca:	48 be 00 00 00 00 04 	movabs $0x400000000,%rsi
    d0d1:	00 00 00 
    d0d4:	48 81 ca 00 00 80 00 	or     $0x800000,%rdx
    d0db:	48 85 cf             	test   %rcx,%rdi
    d0de:	48 0f 45 c2          	cmovne %rdx,%rax
    d0e2:	48 ba 00 00 00 00 01 	movabs $0x100000000,%rdx
    d0e9:	00 00 00 
    d0ec:	48 89 c1             	mov    %rax,%rcx
    d0ef:	48 81 c9 00 00 40 00 	or     $0x400000,%rcx
    d0f6:	48 85 d7             	test   %rdx,%rdi
    d0f9:	48 0f 45 c1          	cmovne %rcx,%rax
    d0fd:	48 89 c1             	mov    %rax,%rcx
    d100:	48 81 c9 00 00 20 00 	or     $0x200000,%rcx
    d107:	48 85 f7             	test   %rsi,%rdi
    d10a:	48 be 00 00 00 00 20 	movabs $0x2000000000,%rsi
    d111:	00 00 00 
    d114:	48 0f 45 c1          	cmovne %rcx,%rax
    d118:	48 89 c1             	mov    %rax,%rcx
    d11b:	48 81 c9 00 00 00 02 	or     $0x2000000,%rcx
    d122:	f7 c7 00 00 00 01    	test   $0x1000000,%edi
    d128:	48 0f 45 c1          	cmovne %rcx,%rax
    d12c:	48 89 c1             	mov    %rax,%rcx
    d12f:	48 81 c9 00 00 00 01 	or     $0x1000000,%rcx
    d136:	48 85 f7             	test   %rsi,%rdi
    d139:	48 be 00 00 00 00 40 	movabs $0x4000000000,%rsi
    d140:	00 00 00 
    d143:	48 0f 45 c1          	cmovne %rcx,%rax
    d147:	48 89 c1             	mov    %rax,%rcx
    d14a:	48 81 c9 00 00 00 04 	or     $0x4000000,%rcx
    d151:	48 85 f7             	test   %rsi,%rdi
    d154:	48 be 00 00 00 00 80 	movabs $0x8000000000,%rsi
    d15b:	00 00 00 
    d15e:	48 0f 45 c1          	cmovne %rcx,%rax
    d162:	48 89 c1             	mov    %rax,%rcx
    d165:	48 81 c9 00 00 00 08 	or     $0x8000000,%rcx
    d16c:	48 85 f7             	test   %rsi,%rdi
    d16f:	48 be 00 00 00 00 00 	movabs $0x20000000000,%rsi
    d176:	02 00 00 
    d179:	48 0f 45 c1          	cmovne %rcx,%rax
    d17d:	48 89 c1             	mov    %rax,%rcx
    d180:	48 81 c9 00 00 00 40 	or     $0x40000000,%rcx
    d187:	48 85 f7             	test   %rsi,%rdi
    d18a:	48 be 00 00 00 00 00 	movabs $0x10000000000,%rsi
    d191:	01 00 00 
    d194:	48 0f 45 c1          	cmovne %rcx,%rax
    d198:	48 89 c1             	mov    %rax,%rcx
    d19b:	48 81 c9 00 00 00 20 	or     $0x20000000,%rcx
    d1a2:	48 85 f7             	test   %rsi,%rdi
    d1a5:	48 0f 45 c1          	cmovne %rcx,%rax
    d1a9:	f7 c7 00 00 00 40    	test   $0x40000000,%edi
    d1af:	74 03                	je     d1b4 <init_ipp_cpuid+0x1f4>
    d1b1:	48 09 d0             	or     %rdx,%rax
    d1b4:	48 bf 00 00 00 00 00 	movabs $0x8000000000000000,%rdi
    d1bb:	00 00 80 
    d1be:	48 09 c7             	or     %rax,%rdi
    d1c1:	e8 52 3e ff ff       	callq  1018 <ippcpSetCpuFeatures@plt>
    d1c6:	85 c0                	test   %eax,%eax
    d1c8:	75 0e                	jne    d1d8 <init_ipp_cpuid+0x218>
    d1ca:	31 c0                	xor    %eax,%eax
    d1cc:	48 83 c4 08          	add    $0x8,%rsp
    d1d0:	c3                   	retq   
    d1d1:	0f 1f 80 00 00 00 00 	nopl   0x0(%rax)
    d1d8:	b8 02 00 00 00       	mov    $0x2,%eax
    d1dd:	48 83 c4 08          	add    $0x8,%rsp
    d1e1:	c3                   	retq   
    d1e2:	66 0f 1f 44 00 00    	nopw   0x0(%rax,%rax,1)
    d1e8:	31 c0                	xor    %eax,%eax
    d1ea:	c3                   	retq   
    d1eb:	0f 1f 44 00 00       	nopl   0x0(%rax,%rax,1)
    d1f0:	b8 02 00 00 00       	mov    $0x2,%eax
    d1f5:	c3                   	retq   
    d1f6:	66 2e 0f 1f 84 00 00 	nopw   %cs:0x0(%rax,%rax,1)
    d1fd:	00 00 00 

000000000000d200 <sgx_create_report>:
    d200:	4c 8d 54 24 08       	lea    0x8(%rsp),%r10
    d205:	48 81 e4 00 fe ff ff 	and    $0xfffffffffffffe00,%rsp
    d20c:	41 ff 72 f8          	pushq  -0x8(%r10)
    d210:	55                   	push   %rbp
    d211:	48 89 e5             	mov    %rsp,%rbp
    d214:	41 57                	push   %r15
    d216:	41 56                	push   %r14
    d218:	41 55                	push   %r13
    d21a:	41 54                	push   %r12
    d21c:	4c 8d b5 10 fa ff ff 	lea    -0x5f0(%rbp),%r14
    d223:	41 52                	push   %r10
    d225:	53                   	push   %rbx
    d226:	49 89 fd             	mov    %rdi,%r13
    d229:	49 89 f7             	mov    %rsi,%r15
    d22c:	49 89 d4             	mov    %rdx,%r12
    d22f:	31 f6                	xor    %esi,%esi
    d231:	48 81 ec c0 09 00 00 	sub    $0x9c0,%rsp
    d238:	ba 40 00 00 00       	mov    $0x40,%edx
    d23d:	48 8d 9d 10 f8 ff ff 	lea    -0x7f0(%rbp),%rbx
    d244:	64 48 8b 04 25 28 00 	mov    %fs:0x28,%rax
    d24b:	00 00 
    d24d:	48 89 85 08 fe ff ff 	mov    %rax,-0x1f8(%rbp)
    d254:	31 c0                	xor    %eax,%eax
    d256:	48 8d 85 90 f7 ff ff 	lea    -0x870(%rbp),%rax
    d25d:	48 89 c7             	mov    %rax,%rdi
    d260:	48 89 85 88 f7 ff ff 	mov    %rax,-0x878(%rbp)
    d267:	e8 19 f9 ff ff       	callq  cb85 <__memset>
    d26c:	31 f6                	xor    %esi,%esi
    d26e:	ba 00 02 00 00       	mov    $0x200,%edx
    d273:	4c 89 f7             	mov    %r14,%rdi
    d276:	e8 0a f9 ff ff       	callq  cb85 <__memset>
    d27b:	31 f6                	xor    %esi,%esi
    d27d:	ba b0 01 00 00       	mov    $0x1b0,%edx
    d282:	48 89 df             	mov    %rbx,%rdi
    d285:	e8 fb f8 ff ff       	callq  cb85 <__memset>
    d28a:	4d 85 ed             	test   %r13,%r13
    d28d:	74 23                	je     d2b2 <sgx_create_report+0xb2>
    d28f:	be 00 02 00 00       	mov    $0x200,%esi
    d294:	4c 89 ef             	mov    %r13,%rdi
    d297:	e8 f4 8f ff ff       	callq  6290 <sgx_is_within_enclave>
    d29c:	85 c0                	test   %eax,%eax
    d29e:	0f 84 ac 00 00 00    	je     d350 <sgx_create_report+0x150>
    d2a4:	b9 40 00 00 00       	mov    $0x40,%ecx
    d2a9:	4c 89 f7             	mov    %r14,%rdi
    d2ac:	4c 89 ee             	mov    %r13,%rsi
    d2af:	f3 48 a5             	rep movsq %ds:(%rsi),%es:(%rdi)
    d2b2:	4d 85 ff             	test   %r15,%r15
    d2b5:	74 48                	je     d2ff <sgx_create_report+0xff>
    d2b7:	be 40 00 00 00       	mov    $0x40,%esi
    d2bc:	4c 89 ff             	mov    %r15,%rdi
    d2bf:	e8 cc 8f ff ff       	callq  6290 <sgx_is_within_enclave>
    d2c4:	85 c0                	test   %eax,%eax
    d2c6:	0f 84 84 00 00 00    	je     d350 <sgx_create_report+0x150>
    d2cc:	f3 41 0f 6f 07       	movdqu (%r15),%xmm0
    d2d1:	0f 29 85 90 f7 ff ff 	movaps %xmm0,-0x870(%rbp)
    d2d8:	f3 41 0f 6f 47 10    	movdqu 0x10(%r15),%xmm0
    d2de:	0f 29 85 a0 f7 ff ff 	movaps %xmm0,-0x860(%rbp)
    d2e5:	f3 41 0f 6f 47 20    	movdqu 0x20(%r15),%xmm0
    d2eb:	0f 29 85 b0 f7 ff ff 	movaps %xmm0,-0x850(%rbp)
    d2f2:	f3 41 0f 6f 47 30    	movdqu 0x30(%r15),%xmm0
    d2f8:	0f 29 85 c0 f7 ff ff 	movaps %xmm0,-0x840(%rbp)
    d2ff:	4d 85 e4             	test   %r12,%r12
    d302:	74 4c                	je     d350 <sgx_create_report+0x150>
    d304:	be b0 01 00 00       	mov    $0x1b0,%esi
    d309:	4c 89 e7             	mov    %r12,%rdi
    d30c:	e8 7f 8f ff ff       	callq  6290 <sgx_is_within_enclave>
    d311:	85 c0                	test   %eax,%eax
    d313:	74 3b                	je     d350 <sgx_create_report+0x150>
    d315:	48 8b b5 88 f7 ff ff 	mov    -0x878(%rbp),%rsi
    d31c:	48 89 da             	mov    %rbx,%rdx
    d31f:	4c 89 f7             	mov    %r14,%rdi
    d322:	e8 a0 09 00 00       	callq  dcc7 <do_ereport>
    d327:	89 c2                	mov    %eax,%edx
    d329:	b8 01 00 00 00       	mov    $0x1,%eax
    d32e:	85 d2                	test   %edx,%edx
    d330:	75 23                	jne    d355 <sgx_create_report+0x155>
    d332:	31 c0                	xor    %eax,%eax
    d334:	0f 1f 40 00          	nopl   0x0(%rax)
    d338:	48 8b 14 c3          	mov    (%rbx,%rax,8),%rdx
    d33c:	49 89 14 c4          	mov    %rdx,(%r12,%rax,8)
    d340:	48 83 c0 01          	add    $0x1,%rax
    d344:	48 83 f8 36          	cmp    $0x36,%rax
    d348:	75 ee                	jne    d338 <sgx_create_report+0x138>
    d34a:	31 c0                	xor    %eax,%eax
    d34c:	eb 07                	jmp    d355 <sgx_create_report+0x155>
    d34e:	66 90                	xchg   %ax,%ax
    d350:	b8 02 00 00 00       	mov    $0x2,%eax
    d355:	48 8b 8d 08 fe ff ff 	mov    -0x1f8(%rbp),%rcx
    d35c:	64 48 33 0c 25 28 00 	xor    %fs:0x28,%rcx
    d363:	00 00 
    d365:	75 18                	jne    d37f <sgx_create_report+0x17f>
    d367:	48 81 c4 c0 09 00 00 	add    $0x9c0,%rsp
    d36e:	5b                   	pop    %rbx
    d36f:	41 5a                	pop    %r10
    d371:	41 5c                	pop    %r12
    d373:	41 5d                	pop    %r13
    d375:	41 5e                	pop    %r14
    d377:	41 5f                	pop    %r15
    d379:	5d                   	pop    %rbp
    d37a:	49 8d 62 f8          	lea    -0x8(%r10),%rsp
    d37e:	c3                   	retq   
    d37f:	e8 8c c0 ff ff       	callq  9410 <__stack_chk_fail>
    d384:	66 2e 0f 1f 84 00 00 	nopw   %cs:0x0(%rax,%rax,1)
    d38b:	00 00 00 
    d38e:	66 90                	xchg   %ax,%ax

000000000000d390 <sgx_self_report>:
    d390:	48 83 3d d8 51 00 00 	cmpq   $0x0,0x51d8(%rip)        # 12570 <_ZZ15sgx_self_reportE7_report+0x30>
    d397:	00 
    d398:	74 0e                	je     d3a8 <sgx_self_report+0x18>
    d39a:	48 8d 05 9f 51 00 00 	lea    0x519f(%rip),%rax        # 12540 <_ZZ15sgx_self_reportE7_report>
    d3a1:	c3                   	retq   
    d3a2:	66 0f 1f 44 00 00    	nopw   0x0(%rax,%rax,1)
    d3a8:	48 8d 15 91 51 00 00 	lea    0x5191(%rip),%rdx        # 12540 <_ZZ15sgx_self_reportE7_report>
    d3af:	48 83 ec 08          	sub    $0x8,%rsp
    d3b3:	31 f6                	xor    %esi,%esi
    d3b5:	31 ff                	xor    %edi,%edi
    d3b7:	e8 44 fe ff ff       	callq  d200 <sgx_create_report>
    d3bc:	48 8d 05 7d 51 00 00 	lea    0x517d(%rip),%rax        # 12540 <_ZZ15sgx_self_reportE7_report>
    d3c3:	48 83 c4 08          	add    $0x8,%rsp
    d3c7:	c3                   	retq   

Disassembly of section .nipx:

000000000000d3d0 <init_enclave>:
    d3d0:	41 54                	push   %r12
    d3d2:	55                   	push   %rbp
    d3d3:	53                   	push   %rbx
    d3d4:	48 81 ec c0 00 00 00 	sub    $0xc0,%rsp
    d3db:	64 48 8b 04 25 28 00 	mov    %fs:0x28,%rax
    d3e2:	00 00 
    d3e4:	48 89 84 24 b8 00 00 	mov    %rax,0xb8(%rsp)
    d3eb:	00 
    d3ec:	31 c0                	xor    %eax,%eax
    d3ee:	48 85 ff             	test   %rdi,%rdi
    d3f1:	0f 84 91 02 00 00    	je     d688 <init_enclave+0x2b8>
    d3f7:	48 85 f6             	test   %rsi,%rsi
    d3fa:	48 89 f3             	mov    %rsi,%rbx
    d3fd:	0f 84 85 02 00 00    	je     d688 <init_enclave+0x2b8>
    d403:	48 83 3d c5 4b 00 00 	cmpq   $0x0,0x4bc5(%rip)        # 11fd0 <_Z9pcl_entryPvS_>
    d40a:	00 
    d40b:	48 89 fd             	mov    %rdi,%rbp
    d40e:	74 20                	je     d430 <init_enclave+0x60>
    d410:	0f ae e8             	lfence 
    d413:	48 8b b6 94 00 00 00 	mov    0x94(%rsi),%rsi
    d41a:	48 85 f6             	test   %rsi,%rsi
    d41d:	0f 84 65 02 00 00    	je     d688 <init_enclave+0x2b8>
    d423:	e8 e8 3b ff ff       	callq  1010 <_Z9pcl_entryPvS_@plt>
    d428:	85 c0                	test   %eax,%eax
    d42a:	0f 85 58 02 00 00    	jne    d688 <init_enclave+0x2b8>
    d430:	48 89 ef             	mov    %rbp,%rdi
    d433:	e8 48 b6 ff ff       	callq  8a80 <relocate_enclave>
    d438:	85 c0                	test   %eax,%eax
    d43a:	89 c5                	mov    %eax,%ebp
    d43c:	0f 85 46 02 00 00    	jne    d688 <init_enclave+0x2b8>
    d442:	be b0 00 00 00       	mov    $0xb0,%esi
    d447:	48 89 df             	mov    %rbx,%rdi
    d44a:	e8 91 8e ff ff       	callq  62e0 <sgx_is_outside_enclave>
    d44f:	85 c0                	test   %eax,%eax
    d451:	0f 84 31 02 00 00    	je     d688 <init_enclave+0x2b8>
    d457:	0f ae e8             	lfence 
    d45a:	f3 0f 6f 03          	movdqu (%rbx),%xmm0
    d45e:	0f 29 04 24          	movaps %xmm0,(%rsp)
    d462:	f3 0f 6f 43 10       	movdqu 0x10(%rbx),%xmm0
    d467:	0f 29 44 24 10       	movaps %xmm0,0x10(%rsp)
    d46c:	f6 44 24 13 40       	testb  $0x40,0x13(%rsp)
    d471:	f3 0f 6f 43 20       	movdqu 0x20(%rbx),%xmm0
    d476:	0f 29 44 24 20       	movaps %xmm0,0x20(%rsp)
    d47b:	f3 0f 6f 43 30       	movdqu 0x30(%rbx),%xmm0
    d480:	0f 29 44 24 30       	movaps %xmm0,0x30(%rsp)
    d485:	f3 0f 6f 43 40       	movdqu 0x40(%rbx),%xmm0
    d48a:	0f 29 44 24 40       	movaps %xmm0,0x40(%rsp)
    d48f:	f3 0f 6f 43 50       	movdqu 0x50(%rbx),%xmm0
    d494:	0f 29 44 24 50       	movaps %xmm0,0x50(%rsp)
    d499:	f3 0f 6f 43 60       	movdqu 0x60(%rbx),%xmm0
    d49e:	0f 29 44 24 60       	movaps %xmm0,0x60(%rsp)
    d4a3:	f3 0f 6f 43 70       	movdqu 0x70(%rbx),%xmm0
    d4a8:	0f 29 44 24 70       	movaps %xmm0,0x70(%rsp)
    d4ad:	f3 0f 6f 83 80 00 00 	movdqu 0x80(%rbx),%xmm0
    d4b4:	00 
    d4b5:	0f 29 84 24 80 00 00 	movaps %xmm0,0x80(%rsp)
    d4bc:	00 
    d4bd:	f3 0f 6f 83 90 00 00 	movdqu 0x90(%rbx),%xmm0
    d4c4:	00 
    d4c5:	0f 29 84 24 90 00 00 	movaps %xmm0,0x90(%rsp)
    d4cc:	00 
    d4cd:	f3 0f 6f 83 a0 00 00 	movdqu 0xa0(%rbx),%xmm0
    d4d4:	00 
    d4d5:	0f 29 84 24 a0 00 00 	movaps %xmm0,0xa0(%rsp)
    d4dc:	00 
    d4dd:	0f 85 3d 01 00 00    	jne    d620 <init_enclave+0x250>
    d4e3:	ba 14 00 00 00       	mov    $0x14,%edx
    d4e8:	b9 9c 00 00 00       	mov    $0x9c,%ecx
    d4ed:	48 8d 34 0c          	lea    (%rsp,%rcx,1),%rsi
    d4f1:	31 c0                	xor    %eax,%eax
    d4f3:	0f 1f 44 00 00       	nopl   0x0(%rax,%rax,1)
    d4f8:	c6 04 06 00          	movb   $0x0,(%rsi,%rax,1)
    d4fc:	48 83 c0 01          	add    $0x1,%rax
    d500:	48 39 d0             	cmp    %rdx,%rax
    d503:	72 f3                	jb     d4f8 <init_enclave+0x128>
    d505:	8b 84 24 ac 00 00 00 	mov    0xac(%rsp),%eax
    d50c:	89 05 0e 49 00 00    	mov    %eax,0x490e(%rip)        # 11e20 <g_cpu_core_num>
    d512:	8b 44 24 08          	mov    0x8(%rsp),%eax
    d516:	83 f8 00             	cmp    $0x0,%eax
    d519:	89 05 05 49 00 00    	mov    %eax,0x4905(%rip)        # 11e24 <g_sdk_version>
    d51f:	0f 85 2b 01 00 00    	jne    d650 <init_enclave+0x280>
    d525:	c7 05 f9 48 00 00 00 	movl   $0x0,0x48f9(%rip)        # 11e28 <EDMM_supported>
    d52c:	00 00 00 
    d52f:	e8 fc a9 ff ff       	callq  7f30 <get_heap_min_size>
    d534:	49 89 c4             	mov    %rax,%r12
    d537:	e8 94 a9 ff ff       	callq  7ed0 <get_heap_size>
    d53c:	48 89 c3             	mov    %rax,%rbx
    d53f:	e8 6c a9 ff ff       	callq  7eb0 <get_heap_base>
    d544:	89 e9                	mov    %ebp,%ecx
    d546:	4c 89 e2             	mov    %r12,%rdx
    d549:	48 89 de             	mov    %rbx,%rsi
    d54c:	48 89 c7             	mov    %rax,%rdi
    d54f:	e8 dc f6 ff ff       	callq  cc30 <heap_init>
    d554:	85 c0                	test   %eax,%eax
    d556:	0f 85 2c 01 00 00    	jne    d688 <init_enclave+0x2b8>
    d55c:	e8 8f b2 ff ff       	callq  87f0 <get_xfeature_state>
    d561:	48 8b 3c 24          	mov    (%rsp),%rdi
    d565:	48 81 e7 ff e7 ff e1 	and    $0xffffffffe1ffe7ff,%rdi
    d56c:	f6 44 24 13 40       	testb  $0x40,0x13(%rsp)
    d571:	74 08                	je     d57b <init_enclave+0x1ab>
    d573:	48 8b bc 24 a4 00 00 	mov    0xa4(%rsp),%rdi
    d57a:	00 
    d57b:	83 3d a2 48 00 00 01 	cmpl   $0x1,0x48a2(%rip)        # 11e24 <g_sdk_version>
    d582:	7f 0f                	jg     d593 <init_enclave+0x1c3>
    d584:	48 83 bc 24 9c 00 00 	cmpq   $0x0,0x9c(%rsp)
    d58b:	00 00 
    d58d:	0f 84 dd 00 00 00    	je     d670 <init_enclave+0x2a0>
    d593:	48 8d 74 24 14       	lea    0x14(%rsp),%rsi
    d598:	48 89 c2             	mov    %rax,%rdx
    d59b:	e8 80 8b ff ff       	callq  6120 <init_optimized_libs>
    d5a0:	85 c0                	test   %eax,%eax
    d5a2:	0f 85 e0 00 00 00    	jne    d688 <init_enclave+0x2b8>
    d5a8:	e8 83 aa ff ff       	callq  8030 <get_rsrv_size>
    d5ad:	48 85 c0             	test   %rax,%rax
    d5b0:	74 2b                	je     d5dd <init_enclave+0x20d>
    d5b2:	e8 d9 aa ff ff       	callq  8090 <get_rsrv_min_size>
    d5b7:	48 89 c5             	mov    %rax,%rbp
    d5ba:	e8 71 aa ff ff       	callq  8030 <get_rsrv_size>
    d5bf:	48 89 c3             	mov    %rax,%rbx
    d5c2:	e8 d9 a9 ff ff       	callq  7fa0 <get_rsrv_base>
    d5c7:	48 89 ea             	mov    %rbp,%rdx
    d5ca:	48 89 de             	mov    %rbx,%rsi
    d5cd:	48 89 c7             	mov    %rax,%rdi
    d5d0:	e8 7b f9 ff ff       	callq  cf50 <rsrv_mem_init>
    d5d5:	85 c0                	test   %eax,%eax
    d5d7:	0f 85 ab 00 00 00    	jne    d688 <init_enclave+0x2b8>
    d5dd:	48 8d 3d 34 48 00 00 	lea    0x4834(%rip),%rdi        # 11e18 <__intel_security_cookie>
    d5e4:	be 08 00 00 00       	mov    $0x8,%esi
    d5e9:	e8 82 8e ff ff       	callq  6470 <sgx_read_rand>
    d5ee:	85 c0                	test   %eax,%eax
    d5f0:	0f 95 c0             	setne  %al
    d5f3:	0f b6 c0             	movzbl %al,%eax
    d5f6:	f7 d8                	neg    %eax
    d5f8:	48 8b 8c 24 b8 00 00 	mov    0xb8(%rsp),%rcx
    d5ff:	00 
    d600:	64 48 33 0c 25 28 00 	xor    %fs:0x28,%rcx
    d607:	00 00 
    d609:	0f 85 83 00 00 00    	jne    d692 <init_enclave+0x2c2>
    d60f:	48 81 c4 c0 00 00 00 	add    $0xc0,%rsp
    d616:	5b                   	pop    %rbx
    d617:	5d                   	pop    %rbp
    d618:	41 5c                	pop    %r12
    d61a:	c3                   	retq   
    d61b:	0f 1f 44 00 00       	nopl   0x0(%rax,%rax,1)
    d620:	ba b0 00 00 00       	mov    $0xb0,%edx
    d625:	48 81 bc 24 9c 00 00 	cmpq   $0xb0,0x9c(%rsp)
    d62c:	00 b0 00 00 00 
    d631:	48 89 d1             	mov    %rdx,%rcx
    d634:	48 0f 46 8c 24 9c 00 	cmovbe 0x9c(%rsp),%rcx
    d63b:	00 00 
    d63d:	48 29 ca             	sub    %rcx,%rdx
    d640:	0f 85 a7 fe ff ff    	jne    d4ed <init_enclave+0x11d>
    d646:	e9 ba fe ff ff       	jmpq   d505 <init_enclave+0x135>
    d64b:	0f 1f 44 00 00       	nopl   0x0(%rax,%rax,1)
    d650:	7e 36                	jle    d688 <init_enclave+0x2b8>
    d652:	48 8d 7c 24 0c       	lea    0xc(%rsp),%rdi
    d657:	31 f6                	xor    %esi,%esi
    d659:	e8 c2 aa ff ff       	callq  8120 <feature_supported>
    d65e:	89 c5                	mov    %eax,%ebp
    d660:	89 05 c2 47 00 00    	mov    %eax,0x47c2(%rip)        # 11e28 <EDMM_supported>
    d666:	e9 c4 fe ff ff       	jmpq   d52f <init_enclave+0x15f>
    d66b:	0f 1f 44 00 00       	nopl   0x0(%rax,%rax,1)
    d670:	31 f6                	xor    %esi,%esi
    d672:	48 89 c2             	mov    %rax,%rdx
    d675:	e8 a6 8a ff ff       	callq  6120 <init_optimized_libs>
    d67a:	85 c0                	test   %eax,%eax
    d67c:	0f 84 26 ff ff ff    	je     d5a8 <init_enclave+0x1d8>
    d682:	66 0f 1f 44 00 00    	nopw   0x0(%rax,%rax,1)
    d688:	b8 ff ff ff ff       	mov    $0xffffffff,%eax
    d68d:	e9 66 ff ff ff       	jmpq   d5f8 <init_enclave+0x228>
    d692:	e8 79 bd ff ff       	callq  9410 <__stack_chk_fail>
    d697:	66 0f 1f 84 00 00 00 	nopw   0x0(%rax,%rax,1)
    d69e:	00 00 

000000000000d6a0 <do_init_enclave>:
    d6a0:	41 54                	push   %r12
    d6a2:	55                   	push   %rbp
    d6a3:	49 89 f4             	mov    %rsi,%r12
    d6a6:	53                   	push   %rbx
    d6a7:	48 89 fd             	mov    %rdi,%rbp
    d6aa:	e8 17 03 00 00       	callq  d9c6 <get_enclave_base>
    d6af:	48 89 c3             	mov    %rax,%rbx
    d6b2:	e8 2e 03 00 00       	callq  d9e5 <lock_enclave>
    d6b7:	85 c0                	test   %eax,%eax
    d6b9:	74 0d                	je     d6c8 <do_init_enclave+0x28>
    d6bb:	b8 01 00 00 00       	mov    $0x1,%eax
    d6c0:	5b                   	pop    %rbx
    d6c1:	5d                   	pop    %rbp
    d6c2:	41 5c                	pop    %r12
    d6c4:	c3                   	retq   
    d6c5:	0f 1f 00             	nopl   (%rax)
    d6c8:	48 89 ee             	mov    %rbp,%rsi
    d6cb:	48 89 df             	mov    %rbx,%rdi
    d6ce:	e8 fd fc ff ff       	callq  d3d0 <init_enclave>
    d6d3:	85 c0                	test   %eax,%eax
    d6d5:	75 e4                	jne    d6bb <do_init_enclave+0x1b>
    d6d7:	be 01 00 00 00       	mov    $0x1,%esi
    d6dc:	4c 89 e7             	mov    %r12,%rdi
    d6df:	e8 0c 9f ff ff       	callq  75f0 <do_init_thread>
    d6e4:	85 c0                	test   %eax,%eax
    d6e6:	75 d3                	jne    d6bb <do_init_enclave+0x1b>
    d6e8:	8b 05 3a 47 00 00    	mov    0x473a(%rip),%eax        # 11e28 <EDMM_supported>
    d6ee:	48 8d 2d cb 09 00 00 	lea    0x9cb(%rip),%rbp        # e0c0 <g_global_data>
    d6f5:	85 c0                	test   %eax,%eax
    d6f7:	74 57                	je     d750 <do_init_enclave+0xb0>
    d6f9:	8b b5 30 01 00 00    	mov    0x130(%rbp),%esi
    d6ff:	48 8d bd 38 01 00 00 	lea    0x138(%rbp),%rdi
    d706:	31 d2                	xor    %edx,%edx
    d708:	48 c1 e6 05          	shl    $0x5,%rsi
    d70c:	48 01 fe             	add    %rdi,%rsi
    d70f:	e8 dc 95 ff ff       	callq  6cf0 <_Z18accept_post_removePVK9_layout_tS1_m>
    d714:	85 c0                	test   %eax,%eax
    d716:	75 a3                	jne    d6bb <do_init_enclave+0x1b>
    d718:	e8 13 a8 ff ff       	callq  7f30 <get_heap_min_size>
    d71d:	48 8b 7d 10          	mov    0x10(%rbp),%rdi
    d721:	31 d2                	xor    %edx,%edx
    d723:	48 89 c1             	mov    %rax,%rcx
    d726:	48 89 c6             	mov    %rax,%rsi
    d729:	48 01 df             	add    %rbx,%rdi
    d72c:	e8 af f4 ff ff       	callq  cbe0 <memset_s>
    d731:	48 8d 05 20 47 00 00 	lea    0x4720(%rip),%rax        # 11e58 <rsrv_mem_min_size>
    d738:	48 8b 7d 20          	mov    0x20(%rbp),%rdi
    d73c:	31 d2                	xor    %edx,%edx
    d73e:	48 8b 30             	mov    (%rax),%rsi
    d741:	48 01 df             	add    %rbx,%rdi
    d744:	48 89 f1             	mov    %rsi,%rcx
    d747:	e8 94 f4 ff ff       	callq  cbe0 <memset_s>
    d74c:	eb 2e                	jmp    d77c <do_init_enclave+0xdc>
    d74e:	66 90                	xchg   %ax,%ax
    d750:	48 8b 4d 18          	mov    0x18(%rbp),%rcx
    d754:	48 8b 75 18          	mov    0x18(%rbp),%rsi
    d758:	31 d2                	xor    %edx,%edx
    d75a:	48 8b 7d 10          	mov    0x10(%rbp),%rdi
    d75e:	48 01 df             	add    %rbx,%rdi
    d761:	e8 7a f4 ff ff       	callq  cbe0 <memset_s>
    d766:	48 8b 4d 28          	mov    0x28(%rbp),%rcx
    d76a:	48 8b 75 28          	mov    0x28(%rbp),%rsi
    d76e:	31 d2                	xor    %edx,%edx
    d770:	48 8b 7d 20          	mov    0x20(%rbp),%rdi
    d774:	48 01 df             	add    %rbx,%rdi
    d777:	e8 64 f4 ff ff       	callq  cbe0 <memset_s>
    d77c:	c7 05 1a 49 00 00 02 	movl   $0x2,0x491a(%rip)        # 120a0 <g_enclave_state>
    d783:	00 00 00 
    d786:	31 c0                	xor    %eax,%eax
    d788:	e9 33 ff ff ff       	jmpq   d6c0 <do_init_enclave+0x20>
    d78d:	0f 1f 00             	nopl   (%rax)

000000000000d790 <sgx_is_enclave_crashed>:
    d790:	48 83 ec 08          	sub    $0x8,%rsp
    d794:	e8 35 02 00 00       	callq  d9ce <get_enclave_state>
    d799:	83 f8 03             	cmp    $0x3,%eax
    d79c:	0f 94 c0             	sete   %al
    d79f:	48 83 c4 08          	add    $0x8,%rsp
    d7a3:	0f b6 c0             	movzbl %al,%eax
    d7a6:	c3                   	retq   
    d7a7:	66 0f 1f 84 00 00 00 	nopw   0x0(%rax,%rax,1)
    d7ae:	00 00 

000000000000d7b0 <enter_enclave>:
    d7b0:	41 55                	push   %r13
    d7b2:	41 54                	push   %r12
    d7b4:	49 89 f5             	mov    %rsi,%r13
    d7b7:	55                   	push   %rbp
    d7b8:	53                   	push   %rbx
    d7b9:	49 89 d4             	mov    %rdx,%r12
    d7bc:	89 fb                	mov    %edi,%ebx
    d7be:	89 cd                	mov    %ecx,%ebp
    d7c0:	48 83 ec 18          	sub    $0x18,%rsp
    d7c4:	e8 c7 ff ff ff       	callq  d790 <sgx_is_enclave_crashed>
    d7c9:	85 c0                	test   %eax,%eax
    d7cb:	75 73                	jne    d840 <enter_enclave+0x90>
    d7cd:	83 fb ff             	cmp    $0xffffffff,%ebx
    d7d0:	75 26                	jne    d7f8 <enter_enclave+0x48>
    d7d2:	85 ed                	test   %ebp,%ebp
    d7d4:	0f 84 f6 00 00 00    	je     d8d0 <enter_enclave+0x120>
    d7da:	bf 03 00 00 00       	mov    $0x3,%edi
    d7df:	e8 f7 01 00 00       	callq  d9db <set_enclave_state>
    d7e4:	b8 01 00 00 00       	mov    $0x1,%eax
    d7e9:	48 83 c4 18          	add    $0x18,%rsp
    d7ed:	5b                   	pop    %rbx
    d7ee:	5d                   	pop    %rbp
    d7ef:	41 5c                	pop    %r12
    d7f1:	41 5d                	pop    %r13
    d7f3:	c3                   	retq   
    d7f4:	0f 1f 40 00          	nopl   0x0(%rax)
    d7f8:	e8 d1 01 00 00       	callq  d9ce <get_enclave_state>
    d7fd:	83 f8 02             	cmp    $0x2,%eax
    d800:	75 d8                	jne    d7da <enter_enclave+0x2a>
    d802:	85 ed                	test   %ebp,%ebp
    d804:	0f 85 ff 00 00 00    	jne    d909 <enter_enclave+0x159>
    d80a:	85 db                	test   %ebx,%ebx
    d80c:	79 42                	jns    d850 <enter_enclave+0xa0>
    d80e:	83 fb fa             	cmp    $0xfffffffa,%ebx
    d811:	74 3d                	je     d850 <enter_enclave+0xa0>
    d813:	83 fb fe             	cmp    $0xfffffffe,%ebx
    d816:	0f 84 c4 00 00 00    	je     d8e0 <enter_enclave+0x130>
    d81c:	83 fb fc             	cmp    $0xfffffffc,%ebx
    d81f:	0f 84 cb 00 00 00    	je     d8f0 <enter_enclave+0x140>
    d825:	83 fb fb             	cmp    $0xfffffffb,%ebx
    d828:	75 b0                	jne    d7da <enter_enclave+0x2a>
    d82a:	4c 89 e7             	mov    %r12,%rdi
    d82d:	e8 1e a2 ff ff       	callq  7a50 <do_uninit_enclave>
    d832:	89 c3                	mov    %eax,%ebx
    d834:	eb 41                	jmp    d877 <enter_enclave+0xc7>
    d836:	66 2e 0f 1f 84 00 00 	nopw   %cs:0x0(%rax,%rax,1)
    d83d:	00 00 00 
    d840:	48 83 c4 18          	add    $0x18,%rsp
    d844:	b8 06 10 00 00       	mov    $0x1006,%eax
    d849:	5b                   	pop    %rbx
    d84a:	5d                   	pop    %rbp
    d84b:	41 5c                	pop    %r12
    d84d:	41 5d                	pop    %r13
    d84f:	c3                   	retq   
    d850:	e8 ac 01 00 00       	callq  da01 <get_thread_data>
    d855:	48 85 c0             	test   %rax,%rax
    d858:	0f 84 a2 00 00 00    	je     d900 <enter_enclave+0x150>
    d85e:	48 8b 48 08          	mov    0x8(%rax),%rcx
    d862:	48 39 48 10          	cmp    %rcx,0x10(%rax)
    d866:	74 28                	je     d890 <enter_enclave+0xe0>
    d868:	89 df                	mov    %ebx,%edi
    d86a:	4c 89 e2             	mov    %r12,%rdx
    d86d:	4c 89 ee             	mov    %r13,%rsi
    d870:	e8 4b 9f ff ff       	callq  77c0 <do_ecall>
    d875:	89 c3                	mov    %eax,%ebx
    d877:	83 fb 01             	cmp    $0x1,%ebx
    d87a:	89 d8                	mov    %ebx,%eax
    d87c:	0f 84 58 ff ff ff    	je     d7da <enter_enclave+0x2a>
    d882:	48 83 c4 18          	add    $0x18,%rsp
    d886:	5b                   	pop    %rbx
    d887:	5d                   	pop    %rbp
    d888:	41 5c                	pop    %r12
    d88a:	41 5d                	pop    %r13
    d88c:	c3                   	retq   
    d88d:	0f 1f 00             	nopl   (%rax)
    d890:	48 8d 05 29 08 00 00 	lea    0x829(%rip),%rax        # e0c0 <g_global_data>
    d897:	48 8b 50 38          	mov    0x38(%rax),%rdx
    d89b:	48 85 d2             	test   %rdx,%rdx
    d89e:	74 c8                	je     d868 <enter_enclave+0xb8>
    d8a0:	48 8b 68 48          	mov    0x48(%rax),%rbp
    d8a4:	48 8d 7c 24 08       	lea    0x8(%rsp),%rdi
    d8a9:	be 08 00 00 00       	mov    $0x8,%esi
    d8ae:	48 c7 44 24 08 00 00 	movq   $0x0,0x8(%rsp)
    d8b5:	00 00 
    d8b7:	e8 b4 8b ff ff       	callq  6470 <sgx_read_rand>
    d8bc:	4c 01 e5             	add    %r12,%rbp
    d8bf:	85 c0                	test   %eax,%eax
    d8c1:	75 7e                	jne    d941 <enter_enclave+0x191>
    d8c3:	48 8b 44 24 08       	mov    0x8(%rsp),%rax
    d8c8:	48 89 45 28          	mov    %rax,0x28(%rbp)
    d8cc:	eb 9a                	jmp    d868 <enter_enclave+0xb8>
    d8ce:	66 90                	xchg   %ax,%ax
    d8d0:	4c 89 e6             	mov    %r12,%rsi
    d8d3:	4c 89 ef             	mov    %r13,%rdi
    d8d6:	e8 c5 fd ff ff       	callq  d6a0 <do_init_enclave>
    d8db:	89 c3                	mov    %eax,%ebx
    d8dd:	eb 98                	jmp    d877 <enter_enclave+0xc7>
    d8df:	90                   	nop
    d8e0:	4c 89 ef             	mov    %r13,%rdi
    d8e3:	e8 68 a4 ff ff       	callq  7d50 <do_oret>
    d8e8:	89 c3                	mov    %eax,%ebx
    d8ea:	eb 8b                	jmp    d877 <enter_enclave+0xc7>
    d8ec:	0f 1f 40 00          	nopl   0x0(%rax)
    d8f0:	4c 89 ef             	mov    %r13,%rdi
    d8f3:	e8 68 a0 ff ff       	callq  7960 <do_ecall_add_thread>
    d8f8:	89 c3                	mov    %eax,%ebx
    d8fa:	e9 78 ff ff ff       	jmpq   d877 <enter_enclave+0xc7>
    d8ff:	90                   	nop
    d900:	48 8d 05 b9 07 00 00 	lea    0x7b9(%rip),%rax        # e0c0 <g_global_data>
    d907:	eb 97                	jmp    d8a0 <enter_enclave+0xf0>
    d909:	83 ed 01             	sub    $0x1,%ebp
    d90c:	0f 85 c8 fe ff ff    	jne    d7da <enter_enclave+0x2a>
    d912:	83 fb fd             	cmp    $0xfffffffd,%ebx
    d915:	0f 85 bf fe ff ff    	jne    d7da <enter_enclave+0x2a>
    d91b:	4c 89 e7             	mov    %r12,%rdi
    d91e:	e8 4d ac ff ff       	callq  8570 <trts_handle_exception>
    d923:	4c 89 e7             	mov    %r12,%rdi
    d926:	89 c3                	mov    %eax,%ebx
    d928:	e8 a3 8c ff ff       	callq  65d0 <check_static_stack_canary>
    d92d:	89 c2                	mov    %eax,%edx
    d92f:	b8 09 10 00 00       	mov    $0x1009,%eax
    d934:	85 d2                	test   %edx,%edx
    d936:	0f 85 ad fe ff ff    	jne    d7e9 <enter_enclave+0x39>
    d93c:	e9 36 ff ff ff       	jmpq   d877 <enter_enclave+0xc7>
    d941:	e8 ea 03 00 00       	callq  dd30 <abort>

000000000000d946 <restore_xregs>:
    d946:	48 89 f9             	mov    %rdi,%rcx
    d949:	48 8d 05 54 47 00 00 	lea    0x4754(%rip),%rax        # 120a4 <g_xsave_enabled>
    d950:	8b 00                	mov    (%rax),%eax
    d952:	83 f8 00             	cmp    $0x0,%eax
    d955:	74 16                	je     d96d <restore_xregs+0x27>
    d957:	48 31 c0             	xor    %rax,%rax
    d95a:	48 31 d2             	xor    %rdx,%rdx
    d95d:	b8 ff ff ff ff       	mov    $0xffffffff,%eax
    d962:	ba ff ff ff ff       	mov    $0xffffffff,%edx
    d967:	48 0f ae 29          	xrstor64 (%rcx)
    d96b:	eb 04                	jmp    d971 <restore_xregs+0x2b>
    d96d:	48 0f ae 09          	fxrstor64 (%rcx)
    d971:	c3                   	retq   

000000000000d972 <save_xregs>:
    d972:	48 89 f9             	mov    %rdi,%rcx
    d975:	48 8d 05 28 47 00 00 	lea    0x4728(%rip),%rax        # 120a4 <g_xsave_enabled>
    d97c:	9b                   	fwait
    d97d:	8b 00                	mov    (%rax),%eax
    d97f:	83 f8 00             	cmp    $0x0,%eax
    d982:	74 16                	je     d99a <save_xregs+0x28>
    d984:	48 31 c0             	xor    %rax,%rax
    d987:	48 31 d2             	xor    %rdx,%rdx
    d98a:	b8 ff ff ff ff       	mov    $0xffffffff,%eax
    d98f:	ba ff ff ff ff       	mov    $0xffffffff,%edx
    d994:	48 0f c7 21          	xsavec64 (%rcx)
    d998:	eb 04                	jmp    d99e <save_xregs+0x2c>
    d99a:	48 0f ae 01          	fxsave64 (%rcx)
    d99e:	c3                   	retq   

000000000000d99f <__x86_return_thunk>:
    d99f:	c3                   	retq   

000000000000d9a0 <__x86_indirect_thunk_rax>:
    d9a0:	ff e0                	jmpq   *%rax

000000000000d9a2 <__x86_indirect_thunk_rbx>:
    d9a2:	ff e3                	jmpq   *%rbx

000000000000d9a4 <__x86_indirect_thunk_rcx>:
    d9a4:	ff e1                	jmpq   *%rcx

000000000000d9a6 <__x86_indirect_thunk_rdx>:
    d9a6:	ff e2                	jmpq   *%rdx

000000000000d9a8 <__x86_indirect_thunk_rbp>:
    d9a8:	ff e5                	jmpq   *%rbp

000000000000d9aa <__x86_indirect_thunk_rsi>:
    d9aa:	ff e6                	jmpq   *%rsi

000000000000d9ac <__x86_indirect_thunk_rdi>:
    d9ac:	ff e7                	jmpq   *%rdi

000000000000d9ae <__x86_indirect_thunk_r8>:
    d9ae:	41 ff e0             	jmpq   *%r8

000000000000d9b1 <__x86_indirect_thunk_r9>:
    d9b1:	41 ff e1             	jmpq   *%r9

000000000000d9b4 <__x86_indirect_thunk_r10>:
    d9b4:	41 ff e2             	jmpq   *%r10

000000000000d9b7 <__x86_indirect_thunk_r11>:
    d9b7:	41 ff e3             	jmpq   *%r11

000000000000d9ba <__x86_indirect_thunk_r12>:
    d9ba:	41 ff e4             	jmpq   *%r12

000000000000d9bd <__x86_indirect_thunk_r13>:
    d9bd:	41 ff e5             	jmpq   *%r13

000000000000d9c0 <__x86_indirect_thunk_r14>:
    d9c0:	41 ff e6             	jmpq   *%r14

000000000000d9c3 <__x86_indirect_thunk_r15>:
    d9c3:	41 ff e7             	jmpq   *%r15

000000000000d9c6 <get_enclave_base>:
    d9c6:	48 8d 05 33 26 ff ff 	lea    -0xd9cd(%rip),%rax        # 0 <__ImageBase>
    d9cd:	c3                   	retq   

000000000000d9ce <get_enclave_state>:
    d9ce:	48 8d 0d cb 46 00 00 	lea    0x46cb(%rip),%rcx        # 120a0 <g_enclave_state>
    d9d5:	48 31 c0             	xor    %rax,%rax
    d9d8:	8b 01                	mov    (%rcx),%eax
    d9da:	c3                   	retq   

000000000000d9db <set_enclave_state>:
    d9db:	48 8d 05 be 46 00 00 	lea    0x46be(%rip),%rax        # 120a0 <g_enclave_state>
    d9e2:	89 38                	mov    %edi,(%rax)
    d9e4:	c3                   	retq   

000000000000d9e5 <lock_enclave>:
    d9e5:	48 8d 15 b4 46 00 00 	lea    0x46b4(%rip),%rdx        # 120a0 <g_enclave_state>
    d9ec:	48 31 c0             	xor    %rax,%rax
    d9ef:	b8 00 00 00 00       	mov    $0x0,%eax
    d9f4:	48 31 c9             	xor    %rcx,%rcx
    d9f7:	b9 01 00 00 00       	mov    $0x1,%ecx
    d9fc:	f0 0f b1 0a          	lock cmpxchg %ecx,(%rdx)
    da00:	c3                   	retq   

000000000000da01 <get_thread_data>:
    da01:	65 48 8b 04 25 00 00 	mov    %gs:0x0,%rax
    da08:	00 00 
    da0a:	c3                   	retq   

000000000000da0b <get_stack_guard>:
    da0b:	65 48 8b 04 25 28 00 	mov    %gs:0x28,%rax
    da12:	00 00 
    da14:	c3                   	retq   

000000000000da15 <enclave_entry>:
    da15:	48 31 d2             	xor    %rdx,%rdx
    da18:	48 01 d2             	add    %rdx,%rdx
    da1b:	fc                   	cld    
    da1c:	4d 31 c0             	xor    %r8,%r8
    da1f:	4d 31 c9             	xor    %r9,%r9
    da22:	4d 31 d2             	xor    %r10,%r10
    da25:	4d 31 db             	xor    %r11,%r11
    da28:	4d 31 e4             	xor    %r12,%r12
    da2b:	4d 31 ed             	xor    %r13,%r13
    da2e:	4d 31 f6             	xor    %r14,%r14
    da31:	4d 31 ff             	xor    %r15,%r15
    da34:	48 83 f8 00          	cmp    $0x0,%rax
    da38:	0f 85 cb 00 00 00    	jne    db09 <enclave_entry+0xf4>
    da3e:	65 48 8b 04 25 08 00 	mov    %gs:0x8,%rax
    da45:	00 00 
    da47:	48 83 f8 00          	cmp    $0x0,%rax
    da4b:	75 0f                	jne    da5c <enclave_entry+0x47>
    da4d:	48 89 d8             	mov    %rbx,%rax
    da50:	48 2d 00 00 01 00    	sub    $0x10000,%rax
    da56:	48 2d b0 02 00 00    	sub    $0x2b0,%rax
    da5c:	48 94                	xchg   %rax,%rsp
    da5e:	51                   	push   %rcx
    da5f:	55                   	push   %rbp
    da60:	48 89 e5             	mov    %rsp,%rbp
    da63:	9c                   	pushfq 
    da64:	48 f7 14 24          	notq   (%rsp)
    da68:	48 81 0c 24 00 00 04 	orq    $0x40000,(%rsp)
    da6f:	00 
    da70:	48 f7 14 24          	notq   (%rsp)
    da74:	9d                   	popfq  
    da75:	48 83 ec 30          	sub    $0x30,%rsp
    da79:	48 89 45 f8          	mov    %rax,-0x8(%rbp)
    da7d:	48 89 55 e8          	mov    %rdx,-0x18(%rbp)
    da81:	48 89 5d e0          	mov    %rbx,-0x20(%rbp)
    da85:	48 89 75 d8          	mov    %rsi,-0x28(%rbp)
    da89:	48 89 7d d0          	mov    %rdi,-0x30(%rbp)
    da8d:	48 83 ec 20          	sub    $0x20,%rsp
    da91:	48 8d 3d a8 0c 00 00 	lea    0xca8(%rip),%rdi        # e740 <SYNTHETIC_STATE>
    da98:	e8 a9 fe ff ff       	callq  d946 <restore_xregs>
    da9d:	48 83 c4 20          	add    $0x20,%rsp
    daa1:	48 8b 7d d0          	mov    -0x30(%rbp),%rdi
    daa5:	48 8b 75 d8          	mov    -0x28(%rbp),%rsi
    daa9:	48 8b 55 e0          	mov    -0x20(%rbp),%rdx
    daad:	48 8b 4d e8          	mov    -0x18(%rbp),%rcx
    dab1:	e8 fa fc ff ff       	callq  d7b0 <enter_enclave>
    dab6:	48 89 c3             	mov    %rax,%rbx
    dab9:	48 8d 3d 80 0c 00 00 	lea    0xc80(%rip),%rdi        # e740 <SYNTHETIC_STATE>
    dac0:	e8 81 fe ff ff       	callq  d946 <restore_xregs>
    dac5:	48 c7 c7 ff ff ff ff 	mov    $0xffffffffffffffff,%rdi
    dacc:	48 89 de             	mov    %rbx,%rsi
    dacf:	48 8b 55 f8          	mov    -0x8(%rbp),%rdx
    dad3:	48 89 ec             	mov    %rbp,%rsp
    dad6:	5d                   	pop    %rbp
    dad7:	5b                   	pop    %rbx
    dad8:	48 89 d4             	mov    %rdx,%rsp
    dadb:	48 31 c9             	xor    %rcx,%rcx
    dade:	48 31 d2             	xor    %rdx,%rdx
    dae1:	4d 31 c0             	xor    %r8,%r8
    dae4:	4d 31 c9             	xor    %r9,%r9
    dae7:	4d 31 d2             	xor    %r10,%r10
    daea:	4d 31 db             	xor    %r11,%r11
    daed:	4d 31 e4             	xor    %r12,%r12
    daf0:	4d 31 ed             	xor    %r13,%r13
    daf3:	4d 31 f6             	xor    %r14,%r14
    daf6:	4d 31 ff             	xor    %r15,%r15
    daf9:	48 01 d2             	add    %rdx,%rdx
    dafc:	fc                   	cld    
    dafd:	48 c7 c0 04 00 00 00 	mov    $0x4,%rax
    db04:	0f 01 d7             	enclu  
    db07:	0f 0b                	ud2    
    db09:	48 89 c2             	mov    %rax,%rdx
    db0c:	48 89 d8             	mov    %rbx,%rax
    db0f:	48 2d 00 00 01 00    	sub    $0x10000,%rax
    db15:	e9 42 ff ff ff       	jmpq   da5c <enclave_entry+0x47>
    db1a:	0f 0b                	ud2    

000000000000db1c <do_ocall>:
    db1c:	55                   	push   %rbp
    db1d:	48 89 e5             	mov    %rsp,%rbp
    db20:	48 89 7d 10          	mov    %rdi,0x10(%rbp)
    db24:	48 89 75 18          	mov    %rsi,0x18(%rbp)
    db28:	65 48 8b 04 25 38 00 	mov    %gs:0x38,%rax
    db2f:	00 00 
    db31:	48 29 c4             	sub    %rax,%rsp
    db34:	48 c7 c0 3f 00 00 00 	mov    $0x3f,%rax
    db3b:	48 f7 d0             	not    %rax
    db3e:	48 21 c4             	and    %rax,%rsp
    db41:	48 89 e1             	mov    %rsp,%rcx
    db44:	48 81 ec a0 00 00 00 	sub    $0xa0,%rsp
    db4b:	48 89 8c 24 98 00 00 	mov    %rcx,0x98(%rsp)
    db52:	00 
    db53:	48 89 5c 24 70       	mov    %rbx,0x70(%rsp)
    db58:	48 89 74 24 68       	mov    %rsi,0x68(%rsp)
    db5d:	48 89 7c 24 60       	mov    %rdi,0x60(%rsp)
    db62:	48 89 6c 24 58       	mov    %rbp,0x58(%rsp)
    db67:	4c 89 64 24 50       	mov    %r12,0x50(%rsp)
    db6c:	4c 89 6c 24 48       	mov    %r13,0x48(%rsp)
    db71:	4c 89 74 24 40       	mov    %r14,0x40(%rsp)
    db76:	4c 89 7c 24 38       	mov    %r15,0x38(%rsp)
    db7b:	48 8b bc 24 98 00 00 	mov    0x98(%rsp),%rdi
    db82:	00 
    db83:	65 48 8b 04 25 38 00 	mov    %gs:0x38,%rax
    db8a:	00 00 
    db8c:	48 89 c1             	mov    %rax,%rcx
    db8f:	48 c1 e9 02          	shr    $0x2,%rcx
    db93:	48 31 c0             	xor    %rax,%rax
    db96:	fc                   	cld    
    db97:	f3 ab                	rep stos %eax,%es:(%rdi)
    db99:	48 8b bc 24 98 00 00 	mov    0x98(%rsp),%rdi
    dba0:	00 
    dba1:	48 89 3c 24          	mov    %rdi,(%rsp)
    dba5:	e8 c8 fd ff ff       	callq  d972 <save_xregs>
    dbaa:	48 8d 3d 8f 0b 00 00 	lea    0xb8f(%rip),%rdi        # e740 <SYNTHETIC_STATE>
    dbb1:	48 89 3c 24          	mov    %rdi,(%rsp)
    dbb5:	e8 8c fd ff ff       	callq  d946 <restore_xregs>
    dbba:	48 8b 7c 24 60       	mov    0x60(%rsp),%rdi
    dbbf:	48 8b 74 24 68       	mov    0x68(%rsp),%rsi
    dbc4:	48 c7 c0 44 49 43 4f 	mov    $0x4f434944,%rax
    dbcb:	48 89 44 24 20       	mov    %rax,0x20(%rsp)
    dbd0:	48 89 7c 24 28       	mov    %rdi,0x28(%rsp)
    dbd5:	65 48 8b 04 25 00 00 	mov    %gs:0x0,%rax
    dbdc:	00 00 
    dbde:	48 89 c3             	mov    %rax,%rbx
    dbe1:	48 89 e7             	mov    %rsp,%rdi
    dbe4:	e8 17 a1 ff ff       	callq  7d00 <update_ocall_lastsp>
    dbe9:	48 8b 7c 24 60       	mov    0x60(%rsp),%rdi
    dbee:	48 8b 74 24 68       	mov    0x68(%rsp),%rsi
    dbf3:	48 8b 53 20          	mov    0x20(%rbx),%rdx
    dbf7:	48 8b aa 98 00 00 00 	mov    0x98(%rdx),%rbp
    dbfe:	48 8b a2 90 00 00 00 	mov    0x90(%rdx),%rsp
    dc05:	48 8b 58 f8          	mov    -0x8(%rax),%rbx
    dc09:	48 c7 c0 04 00 00 00 	mov    $0x4,%rax
    dc10:	48 31 c9             	xor    %rcx,%rcx
    dc13:	48 31 d2             	xor    %rdx,%rdx
    dc16:	4d 31 c0             	xor    %r8,%r8
    dc19:	4d 31 c9             	xor    %r9,%r9
    dc1c:	4d 31 d2             	xor    %r10,%r10
    dc1f:	4d 31 db             	xor    %r11,%r11
    dc22:	4d 31 e4             	xor    %r12,%r12
    dc25:	4d 31 ed             	xor    %r13,%r13
    dc28:	4d 31 f6             	xor    %r14,%r14
    dc2b:	4d 31 ff             	xor    %r15,%r15
    dc2e:	48 01 d2             	add    %rdx,%rdx
    dc31:	fc                   	cld    
    dc32:	0f 01 d7             	enclu  

000000000000dc35 <__morestack>:
    dc35:	55                   	push   %rbp
    dc36:	48 89 e5             	mov    %rsp,%rbp
    dc39:	48 83 ec 20          	sub    $0x20,%rsp
    dc3d:	e8 da fe ff ff       	callq  db1c <do_ocall>
    dc42:	c9                   	leaveq 
    dc43:	c3                   	retq   

000000000000dc44 <asm_oret>:
    dc44:	48 89 e3             	mov    %rsp,%rbx
    dc47:	48 89 7c 24 08       	mov    %rdi,0x8(%rsp)
    dc4c:	48 89 74 24 10       	mov    %rsi,0x10(%rsp)
    dc51:	48 8b 63 08          	mov    0x8(%rbx),%rsp
    dc55:	48 8b bc 24 98 00 00 	mov    0x98(%rsp),%rdi
    dc5c:	00 
    dc5d:	e8 e4 fc ff ff       	callq  d946 <restore_xregs>
    dc62:	48 31 c0             	xor    %rax,%rax
    dc65:	48 8b 4c 24 58       	mov    0x58(%rsp),%rcx
    dc6a:	48 29 f9             	sub    %rdi,%rcx
    dc6d:	48 83 e9 08          	sub    $0x8,%rcx
    dc71:	48 c1 e9 02          	shr    $0x2,%rcx
    dc75:	fc                   	cld    
    dc76:	f3 ab                	rep stos %eax,%es:(%rdi)
    dc78:	48 8b 43 10          	mov    0x10(%rbx),%rax
    dc7c:	4c 8b 7c 24 38       	mov    0x38(%rsp),%r15
    dc81:	4c 8b 74 24 40       	mov    0x40(%rsp),%r14
    dc86:	4c 8b 6c 24 48       	mov    0x48(%rsp),%r13
    dc8b:	4c 8b 64 24 50       	mov    0x50(%rsp),%r12
    dc90:	48 8b 6c 24 58       	mov    0x58(%rsp),%rbp
    dc95:	48 8b 7c 24 60       	mov    0x60(%rsp),%rdi
    dc9a:	48 8b 74 24 68       	mov    0x68(%rsp),%rsi
    dc9f:	48 8b 5c 24 70       	mov    0x70(%rsp),%rbx
    dca4:	48 89 ec             	mov    %rbp,%rsp
    dca7:	5d                   	pop    %rbp
    dca8:	c3                   	retq   
    dca9:	0f 0b                	ud2    

000000000000dcab <do_egetkey>:
    dcab:	53                   	push   %rbx
    dcac:	51                   	push   %rcx
    dcad:	52                   	push   %rdx
    dcae:	48 89 fb             	mov    %rdi,%rbx
    dcb1:	48 89 f1             	mov    %rsi,%rcx
    dcb4:	48 c7 c0 01 00 00 00 	mov    $0x1,%rax
    dcbb:	0f 01 d7             	enclu  
    dcbe:	74 03                	je     dcc3 <do_egetkey+0x18>
    dcc0:	48 31 c0             	xor    %rax,%rax
    dcc3:	5a                   	pop    %rdx
    dcc4:	59                   	pop    %rcx
    dcc5:	5b                   	pop    %rbx
    dcc6:	c3                   	retq   

000000000000dcc7 <do_ereport>:
    dcc7:	53                   	push   %rbx
    dcc8:	51                   	push   %rcx
    dcc9:	52                   	push   %rdx
    dcca:	48 89 fb             	mov    %rdi,%rbx
    dccd:	48 89 f1             	mov    %rsi,%rcx
    dcd0:	48 c7 c0 00 00 00 00 	mov    $0x0,%rax
    dcd7:	f8                   	clc    

000000000000dcd8 <Lereport_inst>:
    dcd8:	0f 01 d7             	enclu  
    dcdb:	0f 92 c0             	setb   %al
    dcde:	5a                   	pop    %rdx
    dcdf:	59                   	pop    %rcx
    dce0:	5b                   	pop    %rbx
    dce1:	c3                   	retq   

000000000000dce2 <do_eaccept>:
    dce2:	53                   	push   %rbx
    dce3:	51                   	push   %rcx
    dce4:	52                   	push   %rdx
    dce5:	48 89 fb             	mov    %rdi,%rbx
    dce8:	48 89 f1             	mov    %rsi,%rcx
    dceb:	b8 05 00 00 00       	mov    $0x5,%eax
    dcf0:	0f 01 d7             	enclu  
    dcf3:	83 f8 00             	cmp    $0x0,%eax
    dcf6:	75 38                	jne    dd30 <abort>
    dcf8:	5a                   	pop    %rdx
    dcf9:	59                   	pop    %rcx
    dcfa:	5b                   	pop    %rbx
    dcfb:	c3                   	retq   

000000000000dcfc <do_emodpe>:
    dcfc:	53                   	push   %rbx
    dcfd:	51                   	push   %rcx
    dcfe:	52                   	push   %rdx
    dcff:	48 89 fb             	mov    %rdi,%rbx
    dd02:	48 89 f1             	mov    %rsi,%rcx
    dd05:	b8 06 00 00 00       	mov    $0x6,%eax
    dd0a:	0f 01 d7             	enclu  
    dd0d:	5a                   	pop    %rdx
    dd0e:	59                   	pop    %rcx
    dd0f:	5b                   	pop    %rbx
    dd10:	c3                   	retq   

000000000000dd11 <do_rdrand>:
    dd11:	b9 0a 00 00 00       	mov    $0xa,%ecx
    dd16:	0f c7 f0             	rdrand %eax
    dd19:	72 08                	jb     dd23 <do_rdrand+0x12>
    dd1b:	ff c9                	dec    %ecx
    dd1d:	75 f7                	jne    dd16 <do_rdrand+0x5>
    dd1f:	48 31 c0             	xor    %rax,%rax
    dd22:	c3                   	retq   
    dd23:	48 89 f9             	mov    %rdi,%rcx
    dd26:	89 01                	mov    %eax,(%rcx)
    dd28:	48 c7 c0 01 00 00 00 	mov    $0x1,%rax
    dd2f:	c3                   	retq   

000000000000dd30 <abort>:
    dd30:	48 8d 05 69 43 00 00 	lea    0x4369(%rip),%rax        # 120a0 <g_enclave_state>
    dd37:	c7 00 03 00 00 00    	movl   $0x3,(%rax)
    dd3d:	0f 0b                	ud2    

000000000000dd3f <continue_execution>:
    dd3f:	48 89 f9             	mov    %rdi,%rcx
    dd42:	48 8b 01             	mov    (%rcx),%rax
    dd45:	50                   	push   %rax
    dd46:	48 8b 41 08          	mov    0x8(%rcx),%rax
    dd4a:	50                   	push   %rax
    dd4b:	48 8b 41 20          	mov    0x20(%rcx),%rax
    dd4f:	48 2d 88 00 00 00    	sub    $0x88,%rax
    dd55:	48 8b 51 10          	mov    0x10(%rcx),%rdx
    dd59:	48 8b 59 18          	mov    0x18(%rcx),%rbx
    dd5d:	48 8b 69 28          	mov    0x28(%rcx),%rbp
    dd61:	48 8b 71 30          	mov    0x30(%rcx),%rsi
    dd65:	48 8b 79 38          	mov    0x38(%rcx),%rdi
    dd69:	4c 8b 41 40          	mov    0x40(%rcx),%r8
    dd6d:	4c 8b 49 48          	mov    0x48(%rcx),%r9
    dd71:	4c 8b 51 50          	mov    0x50(%rcx),%r10
    dd75:	4c 8b 59 58          	mov    0x58(%rcx),%r11
    dd79:	4c 8b 61 60          	mov    0x60(%rcx),%r12
    dd7d:	4c 8b 69 68          	mov    0x68(%rcx),%r13
    dd81:	4c 8b 71 70          	mov    0x70(%rcx),%r14
    dd85:	4c 8b 79 78          	mov    0x78(%rcx),%r15
    dd89:	ff b1 80 00 00 00    	pushq  0x80(%rcx)
    dd8f:	9d                   	popfq  
    dd90:	48 8b 89 88 00 00 00 	mov    0x88(%rcx),%rcx
    dd97:	48 89 08             	mov    %rcx,(%rax)
    dd9a:	59                   	pop    %rcx
    dd9b:	5c                   	pop    %rsp
    dd9c:	48 94                	xchg   %rax,%rsp
    dd9e:	c2 80 00             	retq   $0x80
