
encl.so:     file format elf64-x86-64


Disassembly of section .plt:

0000000000001000 <.plt>:
    1000:	ff 35 b2 0f 01 00    	pushq  0x10fb2(%rip)        # 11fb8 <_GLOBAL_OFFSET_TABLE_+0x8>
    1006:	ff 25 b4 0f 01 00    	jmpq   *0x10fb4(%rip)        # 11fc0 <_GLOBAL_OFFSET_TABLE_+0x10>
    100c:	0f 1f 40 00          	nopl   0x0(%rax)

Disassembly of section .plt.got:

0000000000001010 <_Z9pcl_entryPvS_@plt>:
    1010:	ff 25 ba 0f 01 00    	jmpq   *0x10fba(%rip)        # 11fd0 <_Z9pcl_entryPvS_>
    1016:	66 90                	xchg   %ax,%ax

0000000000001018 <ippcpSetCpuFeatures@plt>:
    1018:	ff 25 c2 0f 01 00    	jmpq   *0x10fc2(%rip)        # 11fe0 <ippcpSetCpuFeatures>
    101e:	66 90                	xchg   %ax,%ax

Disassembly of section .text:

0000000000002000 <trts_access_version_dummy1>:
    2000:	48 8d 05 09 00 01 00 	lea    0x10009(%rip),%rax        # 12010 <sgx_trts_version>
    2007:	c6 00 73             	movb   $0x73,(%rax)
    200a:	c3                   	retq   
    200b:	0f 1f 44 00 00       	nopl   0x0(%rax,%rax,1)

0000000000002010 <tstdc_access_version_dummy1>:
    2010:	c6 05 29 00 01 00 73 	movb   $0x73,0x10029(%rip)        # 12040 <sgx_tstdc_version>
    2017:	48 8d 05 22 00 01 00 	lea    0x10022(%rip),%rax        # 12040 <sgx_tstdc_version>
    201e:	c3                   	retq   
    201f:	90                   	nop

0000000000002020 <tcrypto_access_version_dummy1>:
    2020:	c6 05 39 00 01 00 73 	movb   $0x73,0x10039(%rip)        # 12060 <sgx_tcrypto_version>
    2027:	48 8d 05 32 00 01 00 	lea    0x10032(%rip),%rax        # 12060 <sgx_tcrypto_version>
    202e:	c3                   	retq   
    202f:	90                   	nop

0000000000002030 <tservice_access_version_dummy1>:
    2030:	c6 05 49 00 01 00 73 	movb   $0x73,0x10049(%rip)        # 12080 <sgx_tservice_version>
    2037:	48 8d 05 42 00 01 00 	lea    0x10042(%rip),%rax        # 12080 <sgx_tservice_version>
    203e:	c3                   	retq   

000000000000203f <modpow>:
    203f:	41 56                	push   %r14
    2041:	b8 01 00 00 00       	mov    $0x1,%eax
    2046:	41 55                	push   %r13
    2048:	49 89 f6             	mov    %rsi,%r14
    204b:	41 54                	push   %r12
    204d:	49 89 fd             	mov    %rdi,%r13
    2050:	55                   	push   %rbp
    2051:	49 89 d4             	mov    %rdx,%r12
    2054:	53                   	push   %rbx
    2055:	bd 00 80 ff ff       	mov    $0xffff8000,%ebp
    205a:	bb 10 00 00 00       	mov    $0x10,%ebx
    205f:	4c 89 e6             	mov    %r12,%rsi
    2062:	48 89 c7             	mov    %rax,%rdi
    2065:	e8 96 0f 00 00       	callq  3000 <square>
    206a:	0f b7 d5             	movzwl %bp,%edx
    206d:	4c 85 f2             	test   %r14,%rdx
    2070:	74 0e                	je     2080 <modpow+0x41>
    2072:	4c 89 e2             	mov    %r12,%rdx
    2075:	4c 89 ee             	mov    %r13,%rsi
    2078:	48 89 c7             	mov    %rax,%rdi
    207b:	e8 80 2f 00 00       	callq  5000 <multiply>
    2080:	66 d1 ed             	shr    %bp
    2083:	ff cb                	dec    %ebx
    2085:	75 d8                	jne    205f <modpow+0x20>
    2087:	5b                   	pop    %rbx
    2088:	5d                   	pop    %rbp
    2089:	41 5c                	pop    %r12
    208b:	41 5d                	pop    %r13
    208d:	41 5e                	pop    %r14
    208f:	c3                   	retq   

0000000000002090 <inverse>:
    2090:	89 f8                	mov    %edi,%eax
    2092:	b9 01 00 00 00       	mov    $0x1,%ecx
    2097:	89 f7                	mov    %esi,%edi
    2099:	45 31 c0             	xor    %r8d,%r8d
    209c:	85 ff                	test   %edi,%edi
    209e:	74 17                	je     20b7 <inverse+0x27>
    20a0:	99                   	cltd   
    20a1:	f7 ff                	idiv   %edi
    20a3:	41 0f af c0          	imul   %r8d,%eax
    20a7:	29 c1                	sub    %eax,%ecx
    20a9:	89 c8                	mov    %ecx,%eax
    20ab:	44 89 c1             	mov    %r8d,%ecx
    20ae:	41 89 c0             	mov    %eax,%r8d
    20b1:	89 f8                	mov    %edi,%eax
    20b3:	89 d7                	mov    %edx,%edi
    20b5:	eb e5                	jmp    209c <inverse+0xc>
    20b7:	85 c9                	test   %ecx,%ecx
    20b9:	79 02                	jns    20bd <inverse+0x2d>
    20bb:	01 f1                	add    %esi,%ecx
    20bd:	89 c8                	mov    %ecx,%eax
    20bf:	c3                   	retq   

00000000000020c0 <c_square>:
    20c0:	48 0f af ff          	imul   %rdi,%rdi
    20c4:	48 89 f8             	mov    %rdi,%rax
    20c7:	48 99                	cqto   
    20c9:	48 f7 fe             	idiv   %rsi
    20cc:	48 89 d0             	mov    %rdx,%rax
    20cf:	c3                   	retq   

00000000000020d0 <c_multiply>:
    20d0:	48 89 f8             	mov    %rdi,%rax
    20d3:	48 89 d1             	mov    %rdx,%rcx
    20d6:	48 0f af c6          	imul   %rsi,%rax
    20da:	48 99                	cqto   
    20dc:	48 f7 f9             	idiv   %rcx
    20df:	48 89 d0             	mov    %rdx,%rax
    20e2:	c3                   	retq   

00000000000020e3 <ecall_rsa_decode>:
    20e3:	53                   	push   %rbx
    20e4:	89 fb                	mov    %edi,%ebx
    20e6:	be 02 00 00 00       	mov    $0x2,%esi
    20eb:	48 83 ec 10          	sub    $0x10,%rsp
    20ef:	48 8d 7c 24 0c       	lea    0xc(%rsp),%rdi
    20f4:	c7 44 24 0c 00 00 00 	movl   $0x0,0xc(%rsp)
    20fb:	00 
    20fc:	e8 6f 43 00 00       	callq  6470 <sgx_read_rand>
    2101:	31 d2                	xor    %edx,%edx
    2103:	85 c0                	test   %eax,%eax
    2105:	75 55                	jne    215c <ecall_rsa_decode+0x79>
    2107:	48 63 15 fa fe 00 00 	movslq 0xfefa(%rip),%rdx        # 12008 <rsa_n>
    210e:	48 63 35 ef fe 00 00 	movslq 0xfeef(%rip),%rsi        # 12004 <rsa_e>
    2115:	48 63 7c 24 0c       	movslq 0xc(%rsp),%rdi
    211a:	e8 20 ff ff ff       	callq  203f <modpow>
    211f:	48 63 15 e2 fe 00 00 	movslq 0xfee2(%rip),%rdx        # 12008 <rsa_n>
    2126:	48 63 35 d3 fe 00 00 	movslq 0xfed3(%rip),%rsi        # 12000 <rsa_d>
    212d:	0f af c3             	imul   %ebx,%eax
    2130:	48 63 f8             	movslq %eax,%rdi
    2133:	e8 07 ff ff ff       	callq  203f <modpow>
    2138:	4c 63 0d c9 fe 00 00 	movslq 0xfec9(%rip),%r9        # 12008 <rsa_n>
    213f:	8b 7c 24 0c          	mov    0xc(%rsp),%edi
    2143:	41 89 c2             	mov    %eax,%r10d
    2146:	44 89 ce             	mov    %r9d,%esi
    2149:	e8 42 ff ff ff       	callq  2090 <inverse>
    214e:	49 63 d2             	movslq %r10d,%rdx
    2151:	48 98                	cltq   
    2153:	48 0f af c2          	imul   %rdx,%rax
    2157:	48 99                	cqto   
    2159:	49 f7 f9             	idiv   %r9
    215c:	48 83 c4 10          	add    $0x10,%rsp
    2160:	89 d0                	mov    %edx,%eax
    2162:	5b                   	pop    %rbx
    2163:	c3                   	retq   

0000000000002164 <ecall_rsa_encode>:
    2164:	48 63 15 9d fe 00 00 	movslq 0xfe9d(%rip),%rdx        # 12008 <rsa_n>
    216b:	48 63 35 92 fe 00 00 	movslq 0xfe92(%rip),%rsi        # 12004 <rsa_e>
    2172:	48 63 ff             	movslq %edi,%rdi
    2175:	e9 c5 fe ff ff       	jmpq   203f <modpow>

000000000000217a <ecall_get_square_adrs>:
    217a:	48 8d 05 7f 0e 00 00 	lea    0xe7f(%rip),%rax        # 3000 <square>
    2181:	c3                   	retq   

0000000000002182 <ecall_get_multiply_adrs>:
    2182:	48 8d 05 77 2e 00 00 	lea    0x2e77(%rip),%rax        # 5000 <multiply>
    2189:	c3                   	retq   

000000000000218a <ecall_get_modpow_adrs>:
    218a:	48 8d 05 ae fe ff ff 	lea    -0x152(%rip),%rax        # 203f <modpow>
    2191:	c3                   	retq   
    2192:	66 2e 0f 1f 84 00 00 	nopw   %cs:0x0(%rax,%rax,1)
    2199:	00 00 00 
    219c:	66 2e 0f 1f 84 00 00 	nopw   %cs:0x0(%rax,%rax,1)
    21a3:	00 00 00 
    21a6:	66 2e 0f 1f 84 00 00 	nopw   %cs:0x0(%rax,%rax,1)
    21ad:	00 00 00 
    21b0:	66 2e 0f 1f 84 00 00 	nopw   %cs:0x0(%rax,%rax,1)
    21b7:	00 00 00 
    21ba:	66 2e 0f 1f 84 00 00 	nopw   %cs:0x0(%rax,%rax,1)
    21c1:	00 00 00 
    21c4:	66 2e 0f 1f 84 00 00 	nopw   %cs:0x0(%rax,%rax,1)
    21cb:	00 00 00 
    21ce:	66 2e 0f 1f 84 00 00 	nopw   %cs:0x0(%rax,%rax,1)
    21d5:	00 00 00 
    21d8:	66 2e 0f 1f 84 00 00 	nopw   %cs:0x0(%rax,%rax,1)
    21df:	00 00 00 
    21e2:	66 2e 0f 1f 84 00 00 	nopw   %cs:0x0(%rax,%rax,1)
    21e9:	00 00 00 
    21ec:	66 2e 0f 1f 84 00 00 	nopw   %cs:0x0(%rax,%rax,1)
    21f3:	00 00 00 
    21f6:	66 2e 0f 1f 84 00 00 	nopw   %cs:0x0(%rax,%rax,1)
    21fd:	00 00 00 
    2200:	66 2e 0f 1f 84 00 00 	nopw   %cs:0x0(%rax,%rax,1)
    2207:	00 00 00 
    220a:	66 2e 0f 1f 84 00 00 	nopw   %cs:0x0(%rax,%rax,1)
    2211:	00 00 00 
    2214:	66 2e 0f 1f 84 00 00 	nopw   %cs:0x0(%rax,%rax,1)
    221b:	00 00 00 
    221e:	66 2e 0f 1f 84 00 00 	nopw   %cs:0x0(%rax,%rax,1)
    2225:	00 00 00 
    2228:	66 2e 0f 1f 84 00 00 	nopw   %cs:0x0(%rax,%rax,1)
    222f:	00 00 00 
    2232:	66 2e 0f 1f 84 00 00 	nopw   %cs:0x0(%rax,%rax,1)
    2239:	00 00 00 
    223c:	66 2e 0f 1f 84 00 00 	nopw   %cs:0x0(%rax,%rax,1)
    2243:	00 00 00 
    2246:	66 2e 0f 1f 84 00 00 	nopw   %cs:0x0(%rax,%rax,1)
    224d:	00 00 00 
    2250:	66 2e 0f 1f 84 00 00 	nopw   %cs:0x0(%rax,%rax,1)
    2257:	00 00 00 
    225a:	66 2e 0f 1f 84 00 00 	nopw   %cs:0x0(%rax,%rax,1)
    2261:	00 00 00 
    2264:	66 2e 0f 1f 84 00 00 	nopw   %cs:0x0(%rax,%rax,1)
    226b:	00 00 00 
    226e:	66 2e 0f 1f 84 00 00 	nopw   %cs:0x0(%rax,%rax,1)
    2275:	00 00 00 
    2278:	66 2e 0f 1f 84 00 00 	nopw   %cs:0x0(%rax,%rax,1)
    227f:	00 00 00 
    2282:	66 2e 0f 1f 84 00 00 	nopw   %cs:0x0(%rax,%rax,1)
    2289:	00 00 00 
    228c:	66 2e 0f 1f 84 00 00 	nopw   %cs:0x0(%rax,%rax,1)
    2293:	00 00 00 
    2296:	66 2e 0f 1f 84 00 00 	nopw   %cs:0x0(%rax,%rax,1)
    229d:	00 00 00 
    22a0:	66 2e 0f 1f 84 00 00 	nopw   %cs:0x0(%rax,%rax,1)
    22a7:	00 00 00 
    22aa:	66 2e 0f 1f 84 00 00 	nopw   %cs:0x0(%rax,%rax,1)
    22b1:	00 00 00 
    22b4:	66 2e 0f 1f 84 00 00 	nopw   %cs:0x0(%rax,%rax,1)
    22bb:	00 00 00 
    22be:	66 2e 0f 1f 84 00 00 	nopw   %cs:0x0(%rax,%rax,1)
    22c5:	00 00 00 
    22c8:	66 2e 0f 1f 84 00 00 	nopw   %cs:0x0(%rax,%rax,1)
    22cf:	00 00 00 
    22d2:	66 2e 0f 1f 84 00 00 	nopw   %cs:0x0(%rax,%rax,1)
    22d9:	00 00 00 
    22dc:	66 2e 0f 1f 84 00 00 	nopw   %cs:0x0(%rax,%rax,1)
    22e3:	00 00 00 
    22e6:	66 2e 0f 1f 84 00 00 	nopw   %cs:0x0(%rax,%rax,1)
    22ed:	00 00 00 
    22f0:	66 2e 0f 1f 84 00 00 	nopw   %cs:0x0(%rax,%rax,1)
    22f7:	00 00 00 
    22fa:	66 2e 0f 1f 84 00 00 	nopw   %cs:0x0(%rax,%rax,1)
    2301:	00 00 00 
    2304:	66 2e 0f 1f 84 00 00 	nopw   %cs:0x0(%rax,%rax,1)
    230b:	00 00 00 
    230e:	66 2e 0f 1f 84 00 00 	nopw   %cs:0x0(%rax,%rax,1)
    2315:	00 00 00 
    2318:	66 2e 0f 1f 84 00 00 	nopw   %cs:0x0(%rax,%rax,1)
    231f:	00 00 00 
    2322:	66 2e 0f 1f 84 00 00 	nopw   %cs:0x0(%rax,%rax,1)
    2329:	00 00 00 
    232c:	66 2e 0f 1f 84 00 00 	nopw   %cs:0x0(%rax,%rax,1)
    2333:	00 00 00 
    2336:	66 2e 0f 1f 84 00 00 	nopw   %cs:0x0(%rax,%rax,1)
    233d:	00 00 00 
    2340:	66 2e 0f 1f 84 00 00 	nopw   %cs:0x0(%rax,%rax,1)
    2347:	00 00 00 
    234a:	66 2e 0f 1f 84 00 00 	nopw   %cs:0x0(%rax,%rax,1)
    2351:	00 00 00 
    2354:	66 2e 0f 1f 84 00 00 	nopw   %cs:0x0(%rax,%rax,1)
    235b:	00 00 00 
    235e:	66 2e 0f 1f 84 00 00 	nopw   %cs:0x0(%rax,%rax,1)
    2365:	00 00 00 
    2368:	66 2e 0f 1f 84 00 00 	nopw   %cs:0x0(%rax,%rax,1)
    236f:	00 00 00 
    2372:	66 2e 0f 1f 84 00 00 	nopw   %cs:0x0(%rax,%rax,1)
    2379:	00 00 00 
    237c:	66 2e 0f 1f 84 00 00 	nopw   %cs:0x0(%rax,%rax,1)
    2383:	00 00 00 
    2386:	66 2e 0f 1f 84 00 00 	nopw   %cs:0x0(%rax,%rax,1)
    238d:	00 00 00 
    2390:	66 2e 0f 1f 84 00 00 	nopw   %cs:0x0(%rax,%rax,1)
    2397:	00 00 00 
    239a:	66 2e 0f 1f 84 00 00 	nopw   %cs:0x0(%rax,%rax,1)
    23a1:	00 00 00 
    23a4:	66 2e 0f 1f 84 00 00 	nopw   %cs:0x0(%rax,%rax,1)
    23ab:	00 00 00 
    23ae:	66 2e 0f 1f 84 00 00 	nopw   %cs:0x0(%rax,%rax,1)
    23b5:	00 00 00 
    23b8:	66 2e 0f 1f 84 00 00 	nopw   %cs:0x0(%rax,%rax,1)
    23bf:	00 00 00 
    23c2:	66 2e 0f 1f 84 00 00 	nopw   %cs:0x0(%rax,%rax,1)
    23c9:	00 00 00 
    23cc:	66 2e 0f 1f 84 00 00 	nopw   %cs:0x0(%rax,%rax,1)
    23d3:	00 00 00 
    23d6:	66 2e 0f 1f 84 00 00 	nopw   %cs:0x0(%rax,%rax,1)
    23dd:	00 00 00 
    23e0:	66 2e 0f 1f 84 00 00 	nopw   %cs:0x0(%rax,%rax,1)
    23e7:	00 00 00 
    23ea:	66 2e 0f 1f 84 00 00 	nopw   %cs:0x0(%rax,%rax,1)
    23f1:	00 00 00 
    23f4:	66 2e 0f 1f 84 00 00 	nopw   %cs:0x0(%rax,%rax,1)
    23fb:	00 00 00 
    23fe:	66 2e 0f 1f 84 00 00 	nopw   %cs:0x0(%rax,%rax,1)
    2405:	00 00 00 
    2408:	66 2e 0f 1f 84 00 00 	nopw   %cs:0x0(%rax,%rax,1)
    240f:	00 00 00 
    2412:	66 2e 0f 1f 84 00 00 	nopw   %cs:0x0(%rax,%rax,1)
    2419:	00 00 00 
    241c:	66 2e 0f 1f 84 00 00 	nopw   %cs:0x0(%rax,%rax,1)
    2423:	00 00 00 
    2426:	66 2e 0f 1f 84 00 00 	nopw   %cs:0x0(%rax,%rax,1)
    242d:	00 00 00 
    2430:	66 2e 0f 1f 84 00 00 	nopw   %cs:0x0(%rax,%rax,1)
    2437:	00 00 00 
    243a:	66 2e 0f 1f 84 00 00 	nopw   %cs:0x0(%rax,%rax,1)
    2441:	00 00 00 
    2444:	66 2e 0f 1f 84 00 00 	nopw   %cs:0x0(%rax,%rax,1)
    244b:	00 00 00 
    244e:	66 2e 0f 1f 84 00 00 	nopw   %cs:0x0(%rax,%rax,1)
    2455:	00 00 00 
    2458:	66 2e 0f 1f 84 00 00 	nopw   %cs:0x0(%rax,%rax,1)
    245f:	00 00 00 
    2462:	66 2e 0f 1f 84 00 00 	nopw   %cs:0x0(%rax,%rax,1)
    2469:	00 00 00 
    246c:	66 2e 0f 1f 84 00 00 	nopw   %cs:0x0(%rax,%rax,1)
    2473:	00 00 00 
    2476:	66 2e 0f 1f 84 00 00 	nopw   %cs:0x0(%rax,%rax,1)
    247d:	00 00 00 
    2480:	66 2e 0f 1f 84 00 00 	nopw   %cs:0x0(%rax,%rax,1)
    2487:	00 00 00 
    248a:	66 2e 0f 1f 84 00 00 	nopw   %cs:0x0(%rax,%rax,1)
    2491:	00 00 00 
    2494:	66 2e 0f 1f 84 00 00 	nopw   %cs:0x0(%rax,%rax,1)
    249b:	00 00 00 
    249e:	66 2e 0f 1f 84 00 00 	nopw   %cs:0x0(%rax,%rax,1)
    24a5:	00 00 00 
    24a8:	66 2e 0f 1f 84 00 00 	nopw   %cs:0x0(%rax,%rax,1)
    24af:	00 00 00 
    24b2:	66 2e 0f 1f 84 00 00 	nopw   %cs:0x0(%rax,%rax,1)
    24b9:	00 00 00 
    24bc:	66 2e 0f 1f 84 00 00 	nopw   %cs:0x0(%rax,%rax,1)
    24c3:	00 00 00 
    24c6:	66 2e 0f 1f 84 00 00 	nopw   %cs:0x0(%rax,%rax,1)
    24cd:	00 00 00 
    24d0:	66 2e 0f 1f 84 00 00 	nopw   %cs:0x0(%rax,%rax,1)
    24d7:	00 00 00 
    24da:	66 2e 0f 1f 84 00 00 	nopw   %cs:0x0(%rax,%rax,1)
    24e1:	00 00 00 
    24e4:	66 2e 0f 1f 84 00 00 	nopw   %cs:0x0(%rax,%rax,1)
    24eb:	00 00 00 
    24ee:	66 2e 0f 1f 84 00 00 	nopw   %cs:0x0(%rax,%rax,1)
    24f5:	00 00 00 
    24f8:	66 2e 0f 1f 84 00 00 	nopw   %cs:0x0(%rax,%rax,1)
    24ff:	00 00 00 
    2502:	66 2e 0f 1f 84 00 00 	nopw   %cs:0x0(%rax,%rax,1)
    2509:	00 00 00 
    250c:	66 2e 0f 1f 84 00 00 	nopw   %cs:0x0(%rax,%rax,1)
    2513:	00 00 00 
    2516:	66 2e 0f 1f 84 00 00 	nopw   %cs:0x0(%rax,%rax,1)
    251d:	00 00 00 
    2520:	66 2e 0f 1f 84 00 00 	nopw   %cs:0x0(%rax,%rax,1)
    2527:	00 00 00 
    252a:	66 2e 0f 1f 84 00 00 	nopw   %cs:0x0(%rax,%rax,1)
    2531:	00 00 00 
    2534:	66 2e 0f 1f 84 00 00 	nopw   %cs:0x0(%rax,%rax,1)
    253b:	00 00 00 
    253e:	66 2e 0f 1f 84 00 00 	nopw   %cs:0x0(%rax,%rax,1)
    2545:	00 00 00 
    2548:	66 2e 0f 1f 84 00 00 	nopw   %cs:0x0(%rax,%rax,1)
    254f:	00 00 00 
    2552:	66 2e 0f 1f 84 00 00 	nopw   %cs:0x0(%rax,%rax,1)
    2559:	00 00 00 
    255c:	66 2e 0f 1f 84 00 00 	nopw   %cs:0x0(%rax,%rax,1)
    2563:	00 00 00 
    2566:	66 2e 0f 1f 84 00 00 	nopw   %cs:0x0(%rax,%rax,1)
    256d:	00 00 00 
    2570:	66 2e 0f 1f 84 00 00 	nopw   %cs:0x0(%rax,%rax,1)
    2577:	00 00 00 
    257a:	66 2e 0f 1f 84 00 00 	nopw   %cs:0x0(%rax,%rax,1)
    2581:	00 00 00 
    2584:	66 2e 0f 1f 84 00 00 	nopw   %cs:0x0(%rax,%rax,1)
    258b:	00 00 00 
    258e:	66 2e 0f 1f 84 00 00 	nopw   %cs:0x0(%rax,%rax,1)
    2595:	00 00 00 
    2598:	66 2e 0f 1f 84 00 00 	nopw   %cs:0x0(%rax,%rax,1)
    259f:	00 00 00 
    25a2:	66 2e 0f 1f 84 00 00 	nopw   %cs:0x0(%rax,%rax,1)
    25a9:	00 00 00 
    25ac:	66 2e 0f 1f 84 00 00 	nopw   %cs:0x0(%rax,%rax,1)
    25b3:	00 00 00 
    25b6:	66 2e 0f 1f 84 00 00 	nopw   %cs:0x0(%rax,%rax,1)
    25bd:	00 00 00 
    25c0:	66 2e 0f 1f 84 00 00 	nopw   %cs:0x0(%rax,%rax,1)
    25c7:	00 00 00 
    25ca:	66 2e 0f 1f 84 00 00 	nopw   %cs:0x0(%rax,%rax,1)
    25d1:	00 00 00 
    25d4:	66 2e 0f 1f 84 00 00 	nopw   %cs:0x0(%rax,%rax,1)
    25db:	00 00 00 
    25de:	66 2e 0f 1f 84 00 00 	nopw   %cs:0x0(%rax,%rax,1)
    25e5:	00 00 00 
    25e8:	66 2e 0f 1f 84 00 00 	nopw   %cs:0x0(%rax,%rax,1)
    25ef:	00 00 00 
    25f2:	66 2e 0f 1f 84 00 00 	nopw   %cs:0x0(%rax,%rax,1)
    25f9:	00 00 00 
    25fc:	66 2e 0f 1f 84 00 00 	nopw   %cs:0x0(%rax,%rax,1)
    2603:	00 00 00 
    2606:	66 2e 0f 1f 84 00 00 	nopw   %cs:0x0(%rax,%rax,1)
    260d:	00 00 00 
    2610:	66 2e 0f 1f 84 00 00 	nopw   %cs:0x0(%rax,%rax,1)
    2617:	00 00 00 
    261a:	66 2e 0f 1f 84 00 00 	nopw   %cs:0x0(%rax,%rax,1)
    2621:	00 00 00 
    2624:	66 2e 0f 1f 84 00 00 	nopw   %cs:0x0(%rax,%rax,1)
    262b:	00 00 00 
    262e:	66 2e 0f 1f 84 00 00 	nopw   %cs:0x0(%rax,%rax,1)
    2635:	00 00 00 
    2638:	66 2e 0f 1f 84 00 00 	nopw   %cs:0x0(%rax,%rax,1)
    263f:	00 00 00 
    2642:	66 2e 0f 1f 84 00 00 	nopw   %cs:0x0(%rax,%rax,1)
    2649:	00 00 00 
    264c:	66 2e 0f 1f 84 00 00 	nopw   %cs:0x0(%rax,%rax,1)
    2653:	00 00 00 
    2656:	66 2e 0f 1f 84 00 00 	nopw   %cs:0x0(%rax,%rax,1)
    265d:	00 00 00 
    2660:	66 2e 0f 1f 84 00 00 	nopw   %cs:0x0(%rax,%rax,1)
    2667:	00 00 00 
    266a:	66 2e 0f 1f 84 00 00 	nopw   %cs:0x0(%rax,%rax,1)
    2671:	00 00 00 
    2674:	66 2e 0f 1f 84 00 00 	nopw   %cs:0x0(%rax,%rax,1)
    267b:	00 00 00 
    267e:	66 2e 0f 1f 84 00 00 	nopw   %cs:0x0(%rax,%rax,1)
    2685:	00 00 00 
    2688:	66 2e 0f 1f 84 00 00 	nopw   %cs:0x0(%rax,%rax,1)
    268f:	00 00 00 
    2692:	66 2e 0f 1f 84 00 00 	nopw   %cs:0x0(%rax,%rax,1)
    2699:	00 00 00 
    269c:	66 2e 0f 1f 84 00 00 	nopw   %cs:0x0(%rax,%rax,1)
    26a3:	00 00 00 
    26a6:	66 2e 0f 1f 84 00 00 	nopw   %cs:0x0(%rax,%rax,1)
    26ad:	00 00 00 
    26b0:	66 2e 0f 1f 84 00 00 	nopw   %cs:0x0(%rax,%rax,1)
    26b7:	00 00 00 
    26ba:	66 2e 0f 1f 84 00 00 	nopw   %cs:0x0(%rax,%rax,1)
    26c1:	00 00 00 
    26c4:	66 2e 0f 1f 84 00 00 	nopw   %cs:0x0(%rax,%rax,1)
    26cb:	00 00 00 
    26ce:	66 2e 0f 1f 84 00 00 	nopw   %cs:0x0(%rax,%rax,1)
    26d5:	00 00 00 
    26d8:	66 2e 0f 1f 84 00 00 	nopw   %cs:0x0(%rax,%rax,1)
    26df:	00 00 00 
    26e2:	66 2e 0f 1f 84 00 00 	nopw   %cs:0x0(%rax,%rax,1)
    26e9:	00 00 00 
    26ec:	66 2e 0f 1f 84 00 00 	nopw   %cs:0x0(%rax,%rax,1)
    26f3:	00 00 00 
    26f6:	66 2e 0f 1f 84 00 00 	nopw   %cs:0x0(%rax,%rax,1)
    26fd:	00 00 00 
    2700:	66 2e 0f 1f 84 00 00 	nopw   %cs:0x0(%rax,%rax,1)
    2707:	00 00 00 
    270a:	66 2e 0f 1f 84 00 00 	nopw   %cs:0x0(%rax,%rax,1)
    2711:	00 00 00 
    2714:	66 2e 0f 1f 84 00 00 	nopw   %cs:0x0(%rax,%rax,1)
    271b:	00 00 00 
    271e:	66 2e 0f 1f 84 00 00 	nopw   %cs:0x0(%rax,%rax,1)
    2725:	00 00 00 
    2728:	66 2e 0f 1f 84 00 00 	nopw   %cs:0x0(%rax,%rax,1)
    272f:	00 00 00 
    2732:	66 2e 0f 1f 84 00 00 	nopw   %cs:0x0(%rax,%rax,1)
    2739:	00 00 00 
    273c:	66 2e 0f 1f 84 00 00 	nopw   %cs:0x0(%rax,%rax,1)
    2743:	00 00 00 
    2746:	66 2e 0f 1f 84 00 00 	nopw   %cs:0x0(%rax,%rax,1)
    274d:	00 00 00 
    2750:	66 2e 0f 1f 84 00 00 	nopw   %cs:0x0(%rax,%rax,1)
    2757:	00 00 00 
    275a:	66 2e 0f 1f 84 00 00 	nopw   %cs:0x0(%rax,%rax,1)
    2761:	00 00 00 
    2764:	66 2e 0f 1f 84 00 00 	nopw   %cs:0x0(%rax,%rax,1)
    276b:	00 00 00 
    276e:	66 2e 0f 1f 84 00 00 	nopw   %cs:0x0(%rax,%rax,1)
    2775:	00 00 00 
    2778:	66 2e 0f 1f 84 00 00 	nopw   %cs:0x0(%rax,%rax,1)
    277f:	00 00 00 
    2782:	66 2e 0f 1f 84 00 00 	nopw   %cs:0x0(%rax,%rax,1)
    2789:	00 00 00 
    278c:	66 2e 0f 1f 84 00 00 	nopw   %cs:0x0(%rax,%rax,1)
    2793:	00 00 00 
    2796:	66 2e 0f 1f 84 00 00 	nopw   %cs:0x0(%rax,%rax,1)
    279d:	00 00 00 
    27a0:	66 2e 0f 1f 84 00 00 	nopw   %cs:0x0(%rax,%rax,1)
    27a7:	00 00 00 
    27aa:	66 2e 0f 1f 84 00 00 	nopw   %cs:0x0(%rax,%rax,1)
    27b1:	00 00 00 
    27b4:	66 2e 0f 1f 84 00 00 	nopw   %cs:0x0(%rax,%rax,1)
    27bb:	00 00 00 
    27be:	66 2e 0f 1f 84 00 00 	nopw   %cs:0x0(%rax,%rax,1)
    27c5:	00 00 00 
    27c8:	66 2e 0f 1f 84 00 00 	nopw   %cs:0x0(%rax,%rax,1)
    27cf:	00 00 00 
    27d2:	66 2e 0f 1f 84 00 00 	nopw   %cs:0x0(%rax,%rax,1)
    27d9:	00 00 00 
    27dc:	66 2e 0f 1f 84 00 00 	nopw   %cs:0x0(%rax,%rax,1)
    27e3:	00 00 00 
    27e6:	66 2e 0f 1f 84 00 00 	nopw   %cs:0x0(%rax,%rax,1)
    27ed:	00 00 00 
    27f0:	66 2e 0f 1f 84 00 00 	nopw   %cs:0x0(%rax,%rax,1)
    27f7:	00 00 00 
    27fa:	66 2e 0f 1f 84 00 00 	nopw   %cs:0x0(%rax,%rax,1)
    2801:	00 00 00 
    2804:	66 2e 0f 1f 84 00 00 	nopw   %cs:0x0(%rax,%rax,1)
    280b:	00 00 00 
    280e:	66 2e 0f 1f 84 00 00 	nopw   %cs:0x0(%rax,%rax,1)
    2815:	00 00 00 
    2818:	66 2e 0f 1f 84 00 00 	nopw   %cs:0x0(%rax,%rax,1)
    281f:	00 00 00 
    2822:	66 2e 0f 1f 84 00 00 	nopw   %cs:0x0(%rax,%rax,1)
    2829:	00 00 00 
    282c:	66 2e 0f 1f 84 00 00 	nopw   %cs:0x0(%rax,%rax,1)
    2833:	00 00 00 
    2836:	66 2e 0f 1f 84 00 00 	nopw   %cs:0x0(%rax,%rax,1)
    283d:	00 00 00 
    2840:	66 2e 0f 1f 84 00 00 	nopw   %cs:0x0(%rax,%rax,1)
    2847:	00 00 00 
    284a:	66 2e 0f 1f 84 00 00 	nopw   %cs:0x0(%rax,%rax,1)
    2851:	00 00 00 
    2854:	66 2e 0f 1f 84 00 00 	nopw   %cs:0x0(%rax,%rax,1)
    285b:	00 00 00 
    285e:	66 2e 0f 1f 84 00 00 	nopw   %cs:0x0(%rax,%rax,1)
    2865:	00 00 00 
    2868:	66 2e 0f 1f 84 00 00 	nopw   %cs:0x0(%rax,%rax,1)
    286f:	00 00 00 
    2872:	66 2e 0f 1f 84 00 00 	nopw   %cs:0x0(%rax,%rax,1)
    2879:	00 00 00 
    287c:	66 2e 0f 1f 84 00 00 	nopw   %cs:0x0(%rax,%rax,1)
    2883:	00 00 00 
    2886:	66 2e 0f 1f 84 00 00 	nopw   %cs:0x0(%rax,%rax,1)
    288d:	00 00 00 
    2890:	66 2e 0f 1f 84 00 00 	nopw   %cs:0x0(%rax,%rax,1)
    2897:	00 00 00 
    289a:	66 2e 0f 1f 84 00 00 	nopw   %cs:0x0(%rax,%rax,1)
    28a1:	00 00 00 
    28a4:	66 2e 0f 1f 84 00 00 	nopw   %cs:0x0(%rax,%rax,1)
    28ab:	00 00 00 
    28ae:	66 2e 0f 1f 84 00 00 	nopw   %cs:0x0(%rax,%rax,1)
    28b5:	00 00 00 
    28b8:	66 2e 0f 1f 84 00 00 	nopw   %cs:0x0(%rax,%rax,1)
    28bf:	00 00 00 
    28c2:	66 2e 0f 1f 84 00 00 	nopw   %cs:0x0(%rax,%rax,1)
    28c9:	00 00 00 
    28cc:	66 2e 0f 1f 84 00 00 	nopw   %cs:0x0(%rax,%rax,1)
    28d3:	00 00 00 
    28d6:	66 2e 0f 1f 84 00 00 	nopw   %cs:0x0(%rax,%rax,1)
    28dd:	00 00 00 
    28e0:	66 2e 0f 1f 84 00 00 	nopw   %cs:0x0(%rax,%rax,1)
    28e7:	00 00 00 
    28ea:	66 2e 0f 1f 84 00 00 	nopw   %cs:0x0(%rax,%rax,1)
    28f1:	00 00 00 
    28f4:	66 2e 0f 1f 84 00 00 	nopw   %cs:0x0(%rax,%rax,1)
    28fb:	00 00 00 
    28fe:	66 2e 0f 1f 84 00 00 	nopw   %cs:0x0(%rax,%rax,1)
    2905:	00 00 00 
    2908:	66 2e 0f 1f 84 00 00 	nopw   %cs:0x0(%rax,%rax,1)
    290f:	00 00 00 
    2912:	66 2e 0f 1f 84 00 00 	nopw   %cs:0x0(%rax,%rax,1)
    2919:	00 00 00 
    291c:	66 2e 0f 1f 84 00 00 	nopw   %cs:0x0(%rax,%rax,1)
    2923:	00 00 00 
    2926:	66 2e 0f 1f 84 00 00 	nopw   %cs:0x0(%rax,%rax,1)
    292d:	00 00 00 
    2930:	66 2e 0f 1f 84 00 00 	nopw   %cs:0x0(%rax,%rax,1)
    2937:	00 00 00 
    293a:	66 2e 0f 1f 84 00 00 	nopw   %cs:0x0(%rax,%rax,1)
    2941:	00 00 00 
    2944:	66 2e 0f 1f 84 00 00 	nopw   %cs:0x0(%rax,%rax,1)
    294b:	00 00 00 
    294e:	66 2e 0f 1f 84 00 00 	nopw   %cs:0x0(%rax,%rax,1)
    2955:	00 00 00 
    2958:	66 2e 0f 1f 84 00 00 	nopw   %cs:0x0(%rax,%rax,1)
    295f:	00 00 00 
    2962:	66 2e 0f 1f 84 00 00 	nopw   %cs:0x0(%rax,%rax,1)
    2969:	00 00 00 
    296c:	66 2e 0f 1f 84 00 00 	nopw   %cs:0x0(%rax,%rax,1)
    2973:	00 00 00 
    2976:	66 2e 0f 1f 84 00 00 	nopw   %cs:0x0(%rax,%rax,1)
    297d:	00 00 00 
    2980:	66 2e 0f 1f 84 00 00 	nopw   %cs:0x0(%rax,%rax,1)
    2987:	00 00 00 
    298a:	66 2e 0f 1f 84 00 00 	nopw   %cs:0x0(%rax,%rax,1)
    2991:	00 00 00 
    2994:	66 2e 0f 1f 84 00 00 	nopw   %cs:0x0(%rax,%rax,1)
    299b:	00 00 00 
    299e:	66 2e 0f 1f 84 00 00 	nopw   %cs:0x0(%rax,%rax,1)
    29a5:	00 00 00 
    29a8:	66 2e 0f 1f 84 00 00 	nopw   %cs:0x0(%rax,%rax,1)
    29af:	00 00 00 
    29b2:	66 2e 0f 1f 84 00 00 	nopw   %cs:0x0(%rax,%rax,1)
    29b9:	00 00 00 
    29bc:	66 2e 0f 1f 84 00 00 	nopw   %cs:0x0(%rax,%rax,1)
    29c3:	00 00 00 
    29c6:	66 2e 0f 1f 84 00 00 	nopw   %cs:0x0(%rax,%rax,1)
    29cd:	00 00 00 
    29d0:	66 2e 0f 1f 84 00 00 	nopw   %cs:0x0(%rax,%rax,1)
    29d7:	00 00 00 
    29da:	66 2e 0f 1f 84 00 00 	nopw   %cs:0x0(%rax,%rax,1)
    29e1:	00 00 00 
    29e4:	66 2e 0f 1f 84 00 00 	nopw   %cs:0x0(%rax,%rax,1)
    29eb:	00 00 00 
    29ee:	66 2e 0f 1f 84 00 00 	nopw   %cs:0x0(%rax,%rax,1)
    29f5:	00 00 00 
    29f8:	66 2e 0f 1f 84 00 00 	nopw   %cs:0x0(%rax,%rax,1)
    29ff:	00 00 00 
    2a02:	66 2e 0f 1f 84 00 00 	nopw   %cs:0x0(%rax,%rax,1)
    2a09:	00 00 00 
    2a0c:	66 2e 0f 1f 84 00 00 	nopw   %cs:0x0(%rax,%rax,1)
    2a13:	00 00 00 
    2a16:	66 2e 0f 1f 84 00 00 	nopw   %cs:0x0(%rax,%rax,1)
    2a1d:	00 00 00 
    2a20:	66 2e 0f 1f 84 00 00 	nopw   %cs:0x0(%rax,%rax,1)
    2a27:	00 00 00 
    2a2a:	66 2e 0f 1f 84 00 00 	nopw   %cs:0x0(%rax,%rax,1)
    2a31:	00 00 00 
    2a34:	66 2e 0f 1f 84 00 00 	nopw   %cs:0x0(%rax,%rax,1)
    2a3b:	00 00 00 
    2a3e:	66 2e 0f 1f 84 00 00 	nopw   %cs:0x0(%rax,%rax,1)
    2a45:	00 00 00 
    2a48:	66 2e 0f 1f 84 00 00 	nopw   %cs:0x0(%rax,%rax,1)
    2a4f:	00 00 00 
    2a52:	66 2e 0f 1f 84 00 00 	nopw   %cs:0x0(%rax,%rax,1)
    2a59:	00 00 00 
    2a5c:	66 2e 0f 1f 84 00 00 	nopw   %cs:0x0(%rax,%rax,1)
    2a63:	00 00 00 
    2a66:	66 2e 0f 1f 84 00 00 	nopw   %cs:0x0(%rax,%rax,1)
    2a6d:	00 00 00 
    2a70:	66 2e 0f 1f 84 00 00 	nopw   %cs:0x0(%rax,%rax,1)
    2a77:	00 00 00 
    2a7a:	66 2e 0f 1f 84 00 00 	nopw   %cs:0x0(%rax,%rax,1)
    2a81:	00 00 00 
    2a84:	66 2e 0f 1f 84 00 00 	nopw   %cs:0x0(%rax,%rax,1)
    2a8b:	00 00 00 
    2a8e:	66 2e 0f 1f 84 00 00 	nopw   %cs:0x0(%rax,%rax,1)
    2a95:	00 00 00 
    2a98:	66 2e 0f 1f 84 00 00 	nopw   %cs:0x0(%rax,%rax,1)
    2a9f:	00 00 00 
    2aa2:	66 2e 0f 1f 84 00 00 	nopw   %cs:0x0(%rax,%rax,1)
    2aa9:	00 00 00 
    2aac:	66 2e 0f 1f 84 00 00 	nopw   %cs:0x0(%rax,%rax,1)
    2ab3:	00 00 00 
    2ab6:	66 2e 0f 1f 84 00 00 	nopw   %cs:0x0(%rax,%rax,1)
    2abd:	00 00 00 
    2ac0:	66 2e 0f 1f 84 00 00 	nopw   %cs:0x0(%rax,%rax,1)
    2ac7:	00 00 00 
    2aca:	66 2e 0f 1f 84 00 00 	nopw   %cs:0x0(%rax,%rax,1)
    2ad1:	00 00 00 
    2ad4:	66 2e 0f 1f 84 00 00 	nopw   %cs:0x0(%rax,%rax,1)
    2adb:	00 00 00 
    2ade:	66 2e 0f 1f 84 00 00 	nopw   %cs:0x0(%rax,%rax,1)
    2ae5:	00 00 00 
    2ae8:	66 2e 0f 1f 84 00 00 	nopw   %cs:0x0(%rax,%rax,1)
    2aef:	00 00 00 
    2af2:	66 2e 0f 1f 84 00 00 	nopw   %cs:0x0(%rax,%rax,1)
    2af9:	00 00 00 
    2afc:	66 2e 0f 1f 84 00 00 	nopw   %cs:0x0(%rax,%rax,1)
    2b03:	00 00 00 
    2b06:	66 2e 0f 1f 84 00 00 	nopw   %cs:0x0(%rax,%rax,1)
    2b0d:	00 00 00 
    2b10:	66 2e 0f 1f 84 00 00 	nopw   %cs:0x0(%rax,%rax,1)
    2b17:	00 00 00 
    2b1a:	66 2e 0f 1f 84 00 00 	nopw   %cs:0x0(%rax,%rax,1)
    2b21:	00 00 00 
    2b24:	66 2e 0f 1f 84 00 00 	nopw   %cs:0x0(%rax,%rax,1)
    2b2b:	00 00 00 
    2b2e:	66 2e 0f 1f 84 00 00 	nopw   %cs:0x0(%rax,%rax,1)
    2b35:	00 00 00 
    2b38:	66 2e 0f 1f 84 00 00 	nopw   %cs:0x0(%rax,%rax,1)
    2b3f:	00 00 00 
    2b42:	66 2e 0f 1f 84 00 00 	nopw   %cs:0x0(%rax,%rax,1)
    2b49:	00 00 00 
    2b4c:	66 2e 0f 1f 84 00 00 	nopw   %cs:0x0(%rax,%rax,1)
    2b53:	00 00 00 
    2b56:	66 2e 0f 1f 84 00 00 	nopw   %cs:0x0(%rax,%rax,1)
    2b5d:	00 00 00 
    2b60:	66 2e 0f 1f 84 00 00 	nopw   %cs:0x0(%rax,%rax,1)
    2b67:	00 00 00 
    2b6a:	66 2e 0f 1f 84 00 00 	nopw   %cs:0x0(%rax,%rax,1)
    2b71:	00 00 00 
    2b74:	66 2e 0f 1f 84 00 00 	nopw   %cs:0x0(%rax,%rax,1)
    2b7b:	00 00 00 
    2b7e:	66 2e 0f 1f 84 00 00 	nopw   %cs:0x0(%rax,%rax,1)
    2b85:	00 00 00 
    2b88:	66 2e 0f 1f 84 00 00 	nopw   %cs:0x0(%rax,%rax,1)
    2b8f:	00 00 00 
    2b92:	66 2e 0f 1f 84 00 00 	nopw   %cs:0x0(%rax,%rax,1)
    2b99:	00 00 00 
    2b9c:	66 2e 0f 1f 84 00 00 	nopw   %cs:0x0(%rax,%rax,1)
    2ba3:	00 00 00 
    2ba6:	66 2e 0f 1f 84 00 00 	nopw   %cs:0x0(%rax,%rax,1)
    2bad:	00 00 00 
    2bb0:	66 2e 0f 1f 84 00 00 	nopw   %cs:0x0(%rax,%rax,1)
    2bb7:	00 00 00 
    2bba:	66 2e 0f 1f 84 00 00 	nopw   %cs:0x0(%rax,%rax,1)
    2bc1:	00 00 00 
    2bc4:	66 2e 0f 1f 84 00 00 	nopw   %cs:0x0(%rax,%rax,1)
    2bcb:	00 00 00 
    2bce:	66 2e 0f 1f 84 00 00 	nopw   %cs:0x0(%rax,%rax,1)
    2bd5:	00 00 00 
    2bd8:	66 2e 0f 1f 84 00 00 	nopw   %cs:0x0(%rax,%rax,1)
    2bdf:	00 00 00 
    2be2:	66 2e 0f 1f 84 00 00 	nopw   %cs:0x0(%rax,%rax,1)
    2be9:	00 00 00 
    2bec:	66 2e 0f 1f 84 00 00 	nopw   %cs:0x0(%rax,%rax,1)
    2bf3:	00 00 00 
    2bf6:	66 2e 0f 1f 84 00 00 	nopw   %cs:0x0(%rax,%rax,1)
    2bfd:	00 00 00 
    2c00:	66 2e 0f 1f 84 00 00 	nopw   %cs:0x0(%rax,%rax,1)
    2c07:	00 00 00 
    2c0a:	66 2e 0f 1f 84 00 00 	nopw   %cs:0x0(%rax,%rax,1)
    2c11:	00 00 00 
    2c14:	66 2e 0f 1f 84 00 00 	nopw   %cs:0x0(%rax,%rax,1)
    2c1b:	00 00 00 
    2c1e:	66 2e 0f 1f 84 00 00 	nopw   %cs:0x0(%rax,%rax,1)
    2c25:	00 00 00 
    2c28:	66 2e 0f 1f 84 00 00 	nopw   %cs:0x0(%rax,%rax,1)
    2c2f:	00 00 00 
    2c32:	66 2e 0f 1f 84 00 00 	nopw   %cs:0x0(%rax,%rax,1)
    2c39:	00 00 00 
    2c3c:	66 2e 0f 1f 84 00 00 	nopw   %cs:0x0(%rax,%rax,1)
    2c43:	00 00 00 
    2c46:	66 2e 0f 1f 84 00 00 	nopw   %cs:0x0(%rax,%rax,1)
    2c4d:	00 00 00 
    2c50:	66 2e 0f 1f 84 00 00 	nopw   %cs:0x0(%rax,%rax,1)
    2c57:	00 00 00 
    2c5a:	66 2e 0f 1f 84 00 00 	nopw   %cs:0x0(%rax,%rax,1)
    2c61:	00 00 00 
    2c64:	66 2e 0f 1f 84 00 00 	nopw   %cs:0x0(%rax,%rax,1)
    2c6b:	00 00 00 
    2c6e:	66 2e 0f 1f 84 00 00 	nopw   %cs:0x0(%rax,%rax,1)
    2c75:	00 00 00 
    2c78:	66 2e 0f 1f 84 00 00 	nopw   %cs:0x0(%rax,%rax,1)
    2c7f:	00 00 00 
    2c82:	66 2e 0f 1f 84 00 00 	nopw   %cs:0x0(%rax,%rax,1)
    2c89:	00 00 00 
    2c8c:	66 2e 0f 1f 84 00 00 	nopw   %cs:0x0(%rax,%rax,1)
    2c93:	00 00 00 
    2c96:	66 2e 0f 1f 84 00 00 	nopw   %cs:0x0(%rax,%rax,1)
    2c9d:	00 00 00 
    2ca0:	66 2e 0f 1f 84 00 00 	nopw   %cs:0x0(%rax,%rax,1)
    2ca7:	00 00 00 
    2caa:	66 2e 0f 1f 84 00 00 	nopw   %cs:0x0(%rax,%rax,1)
    2cb1:	00 00 00 
    2cb4:	66 2e 0f 1f 84 00 00 	nopw   %cs:0x0(%rax,%rax,1)
    2cbb:	00 00 00 
    2cbe:	66 2e 0f 1f 84 00 00 	nopw   %cs:0x0(%rax,%rax,1)
    2cc5:	00 00 00 
    2cc8:	66 2e 0f 1f 84 00 00 	nopw   %cs:0x0(%rax,%rax,1)
    2ccf:	00 00 00 
    2cd2:	66 2e 0f 1f 84 00 00 	nopw   %cs:0x0(%rax,%rax,1)
    2cd9:	00 00 00 
    2cdc:	66 2e 0f 1f 84 00 00 	nopw   %cs:0x0(%rax,%rax,1)
    2ce3:	00 00 00 
    2ce6:	66 2e 0f 1f 84 00 00 	nopw   %cs:0x0(%rax,%rax,1)
    2ced:	00 00 00 
    2cf0:	66 2e 0f 1f 84 00 00 	nopw   %cs:0x0(%rax,%rax,1)
    2cf7:	00 00 00 
    2cfa:	66 2e 0f 1f 84 00 00 	nopw   %cs:0x0(%rax,%rax,1)
    2d01:	00 00 00 
    2d04:	66 2e 0f 1f 84 00 00 	nopw   %cs:0x0(%rax,%rax,1)
    2d0b:	00 00 00 
    2d0e:	66 2e 0f 1f 84 00 00 	nopw   %cs:0x0(%rax,%rax,1)
    2d15:	00 00 00 
    2d18:	66 2e 0f 1f 84 00 00 	nopw   %cs:0x0(%rax,%rax,1)
    2d1f:	00 00 00 
    2d22:	66 2e 0f 1f 84 00 00 	nopw   %cs:0x0(%rax,%rax,1)
    2d29:	00 00 00 
    2d2c:	66 2e 0f 1f 84 00 00 	nopw   %cs:0x0(%rax,%rax,1)
    2d33:	00 00 00 
    2d36:	66 2e 0f 1f 84 00 00 	nopw   %cs:0x0(%rax,%rax,1)
    2d3d:	00 00 00 
    2d40:	66 2e 0f 1f 84 00 00 	nopw   %cs:0x0(%rax,%rax,1)
    2d47:	00 00 00 
    2d4a:	66 2e 0f 1f 84 00 00 	nopw   %cs:0x0(%rax,%rax,1)
    2d51:	00 00 00 
    2d54:	66 2e 0f 1f 84 00 00 	nopw   %cs:0x0(%rax,%rax,1)
    2d5b:	00 00 00 
    2d5e:	66 2e 0f 1f 84 00 00 	nopw   %cs:0x0(%rax,%rax,1)
    2d65:	00 00 00 
    2d68:	66 2e 0f 1f 84 00 00 	nopw   %cs:0x0(%rax,%rax,1)
    2d6f:	00 00 00 
    2d72:	66 2e 0f 1f 84 00 00 	nopw   %cs:0x0(%rax,%rax,1)
    2d79:	00 00 00 
    2d7c:	66 2e 0f 1f 84 00 00 	nopw   %cs:0x0(%rax,%rax,1)
    2d83:	00 00 00 
    2d86:	66 2e 0f 1f 84 00 00 	nopw   %cs:0x0(%rax,%rax,1)
    2d8d:	00 00 00 
    2d90:	66 2e 0f 1f 84 00 00 	nopw   %cs:0x0(%rax,%rax,1)
    2d97:	00 00 00 
    2d9a:	66 2e 0f 1f 84 00 00 	nopw   %cs:0x0(%rax,%rax,1)
    2da1:	00 00 00 
    2da4:	66 2e 0f 1f 84 00 00 	nopw   %cs:0x0(%rax,%rax,1)
    2dab:	00 00 00 
    2dae:	66 2e 0f 1f 84 00 00 	nopw   %cs:0x0(%rax,%rax,1)
    2db5:	00 00 00 
    2db8:	66 2e 0f 1f 84 00 00 	nopw   %cs:0x0(%rax,%rax,1)
    2dbf:	00 00 00 
    2dc2:	66 2e 0f 1f 84 00 00 	nopw   %cs:0x0(%rax,%rax,1)
    2dc9:	00 00 00 
    2dcc:	66 2e 0f 1f 84 00 00 	nopw   %cs:0x0(%rax,%rax,1)
    2dd3:	00 00 00 
    2dd6:	66 2e 0f 1f 84 00 00 	nopw   %cs:0x0(%rax,%rax,1)
    2ddd:	00 00 00 
    2de0:	66 2e 0f 1f 84 00 00 	nopw   %cs:0x0(%rax,%rax,1)
    2de7:	00 00 00 
    2dea:	66 2e 0f 1f 84 00 00 	nopw   %cs:0x0(%rax,%rax,1)
    2df1:	00 00 00 
    2df4:	66 2e 0f 1f 84 00 00 	nopw   %cs:0x0(%rax,%rax,1)
    2dfb:	00 00 00 
    2dfe:	66 2e 0f 1f 84 00 00 	nopw   %cs:0x0(%rax,%rax,1)
    2e05:	00 00 00 
    2e08:	66 2e 0f 1f 84 00 00 	nopw   %cs:0x0(%rax,%rax,1)
    2e0f:	00 00 00 
    2e12:	66 2e 0f 1f 84 00 00 	nopw   %cs:0x0(%rax,%rax,1)
    2e19:	00 00 00 
    2e1c:	66 2e 0f 1f 84 00 00 	nopw   %cs:0x0(%rax,%rax,1)
    2e23:	00 00 00 
    2e26:	66 2e 0f 1f 84 00 00 	nopw   %cs:0x0(%rax,%rax,1)
    2e2d:	00 00 00 
    2e30:	66 2e 0f 1f 84 00 00 	nopw   %cs:0x0(%rax,%rax,1)
    2e37:	00 00 00 
    2e3a:	66 2e 0f 1f 84 00 00 	nopw   %cs:0x0(%rax,%rax,1)
    2e41:	00 00 00 
    2e44:	66 2e 0f 1f 84 00 00 	nopw   %cs:0x0(%rax,%rax,1)
    2e4b:	00 00 00 
    2e4e:	66 2e 0f 1f 84 00 00 	nopw   %cs:0x0(%rax,%rax,1)
    2e55:	00 00 00 
    2e58:	66 2e 0f 1f 84 00 00 	nopw   %cs:0x0(%rax,%rax,1)
    2e5f:	00 00 00 
    2e62:	66 2e 0f 1f 84 00 00 	nopw   %cs:0x0(%rax,%rax,1)
    2e69:	00 00 00 
    2e6c:	66 2e 0f 1f 84 00 00 	nopw   %cs:0x0(%rax,%rax,1)
    2e73:	00 00 00 
    2e76:	66 2e 0f 1f 84 00 00 	nopw   %cs:0x0(%rax,%rax,1)
    2e7d:	00 00 00 
    2e80:	66 2e 0f 1f 84 00 00 	nopw   %cs:0x0(%rax,%rax,1)
    2e87:	00 00 00 
    2e8a:	66 2e 0f 1f 84 00 00 	nopw   %cs:0x0(%rax,%rax,1)
    2e91:	00 00 00 
    2e94:	66 2e 0f 1f 84 00 00 	nopw   %cs:0x0(%rax,%rax,1)
    2e9b:	00 00 00 
    2e9e:	66 2e 0f 1f 84 00 00 	nopw   %cs:0x0(%rax,%rax,1)
    2ea5:	00 00 00 
    2ea8:	66 2e 0f 1f 84 00 00 	nopw   %cs:0x0(%rax,%rax,1)
    2eaf:	00 00 00 
    2eb2:	66 2e 0f 1f 84 00 00 	nopw   %cs:0x0(%rax,%rax,1)
    2eb9:	00 00 00 
    2ebc:	66 2e 0f 1f 84 00 00 	nopw   %cs:0x0(%rax,%rax,1)
    2ec3:	00 00 00 
    2ec6:	66 2e 0f 1f 84 00 00 	nopw   %cs:0x0(%rax,%rax,1)
    2ecd:	00 00 00 
    2ed0:	66 2e 0f 1f 84 00 00 	nopw   %cs:0x0(%rax,%rax,1)
    2ed7:	00 00 00 
    2eda:	66 2e 0f 1f 84 00 00 	nopw   %cs:0x0(%rax,%rax,1)
    2ee1:	00 00 00 
    2ee4:	66 2e 0f 1f 84 00 00 	nopw   %cs:0x0(%rax,%rax,1)
    2eeb:	00 00 00 
    2eee:	66 2e 0f 1f 84 00 00 	nopw   %cs:0x0(%rax,%rax,1)
    2ef5:	00 00 00 
    2ef8:	66 2e 0f 1f 84 00 00 	nopw   %cs:0x0(%rax,%rax,1)
    2eff:	00 00 00 
    2f02:	66 2e 0f 1f 84 00 00 	nopw   %cs:0x0(%rax,%rax,1)
    2f09:	00 00 00 
    2f0c:	66 2e 0f 1f 84 00 00 	nopw   %cs:0x0(%rax,%rax,1)
    2f13:	00 00 00 
    2f16:	66 2e 0f 1f 84 00 00 	nopw   %cs:0x0(%rax,%rax,1)
    2f1d:	00 00 00 
    2f20:	66 2e 0f 1f 84 00 00 	nopw   %cs:0x0(%rax,%rax,1)
    2f27:	00 00 00 
    2f2a:	66 2e 0f 1f 84 00 00 	nopw   %cs:0x0(%rax,%rax,1)
    2f31:	00 00 00 
    2f34:	66 2e 0f 1f 84 00 00 	nopw   %cs:0x0(%rax,%rax,1)
    2f3b:	00 00 00 
    2f3e:	66 2e 0f 1f 84 00 00 	nopw   %cs:0x0(%rax,%rax,1)
    2f45:	00 00 00 
    2f48:	66 2e 0f 1f 84 00 00 	nopw   %cs:0x0(%rax,%rax,1)
    2f4f:	00 00 00 
    2f52:	66 2e 0f 1f 84 00 00 	nopw   %cs:0x0(%rax,%rax,1)
    2f59:	00 00 00 
    2f5c:	66 2e 0f 1f 84 00 00 	nopw   %cs:0x0(%rax,%rax,1)
    2f63:	00 00 00 
    2f66:	66 2e 0f 1f 84 00 00 	nopw   %cs:0x0(%rax,%rax,1)
    2f6d:	00 00 00 
    2f70:	66 2e 0f 1f 84 00 00 	nopw   %cs:0x0(%rax,%rax,1)
    2f77:	00 00 00 
    2f7a:	66 2e 0f 1f 84 00 00 	nopw   %cs:0x0(%rax,%rax,1)
    2f81:	00 00 00 
    2f84:	66 2e 0f 1f 84 00 00 	nopw   %cs:0x0(%rax,%rax,1)
    2f8b:	00 00 00 
    2f8e:	66 2e 0f 1f 84 00 00 	nopw   %cs:0x0(%rax,%rax,1)
    2f95:	00 00 00 
    2f98:	66 2e 0f 1f 84 00 00 	nopw   %cs:0x0(%rax,%rax,1)
    2f9f:	00 00 00 
    2fa2:	66 2e 0f 1f 84 00 00 	nopw   %cs:0x0(%rax,%rax,1)
    2fa9:	00 00 00 
    2fac:	66 2e 0f 1f 84 00 00 	nopw   %cs:0x0(%rax,%rax,1)
    2fb3:	00 00 00 
    2fb6:	66 2e 0f 1f 84 00 00 	nopw   %cs:0x0(%rax,%rax,1)
    2fbd:	00 00 00 
    2fc0:	66 2e 0f 1f 84 00 00 	nopw   %cs:0x0(%rax,%rax,1)
    2fc7:	00 00 00 
    2fca:	66 2e 0f 1f 84 00 00 	nopw   %cs:0x0(%rax,%rax,1)
    2fd1:	00 00 00 
    2fd4:	66 2e 0f 1f 84 00 00 	nopw   %cs:0x0(%rax,%rax,1)
    2fdb:	00 00 00 
    2fde:	66 2e 0f 1f 84 00 00 	nopw   %cs:0x0(%rax,%rax,1)
    2fe5:	00 00 00 
    2fe8:	66 2e 0f 1f 84 00 00 	nopw   %cs:0x0(%rax,%rax,1)
    2fef:	00 00 00 
    2ff2:	66 2e 0f 1f 84 00 00 	nopw   %cs:0x0(%rax,%rax,1)
    2ff9:	00 00 00 
    2ffc:	0f 1f 40 00          	nopl   0x0(%rax)

0000000000003000 <square>:
    3000:	48 89 f8             	mov    %rdi,%rax
    3003:	31 d2                	xor    %edx,%edx
    3005:	48 0f af c7          	imul   %rdi,%rax
    3009:	48 f7 f6             	div    %rsi
    300c:	48 89 d0             	mov    %rdx,%rax
    300f:	c3                   	retq   
	...
    4010:	e9 eb 0f 00 00       	jmpq   5000 <multiply>
    4015:	66 66 2e 0f 1f 84 00 	data16 nopw %cs:0x0(%rax,%rax,1)
    401c:	00 00 00 00 
    4020:	66 66 2e 0f 1f 84 00 	data16 nopw %cs:0x0(%rax,%rax,1)
    4027:	00 00 00 00 
    402b:	66 66 2e 0f 1f 84 00 	data16 nopw %cs:0x0(%rax,%rax,1)
    4032:	00 00 00 00 
    4036:	66 66 2e 0f 1f 84 00 	data16 nopw %cs:0x0(%rax,%rax,1)
    403d:	00 00 00 00 
    4041:	66 66 2e 0f 1f 84 00 	data16 nopw %cs:0x0(%rax,%rax,1)
    4048:	00 00 00 00 
    404c:	66 66 2e 0f 1f 84 00 	data16 nopw %cs:0x0(%rax,%rax,1)
    4053:	00 00 00 00 
    4057:	66 66 2e 0f 1f 84 00 	data16 nopw %cs:0x0(%rax,%rax,1)
    405e:	00 00 00 00 
    4062:	66 66 2e 0f 1f 84 00 	data16 nopw %cs:0x0(%rax,%rax,1)
    4069:	00 00 00 00 
    406d:	66 66 2e 0f 1f 84 00 	data16 nopw %cs:0x0(%rax,%rax,1)
    4074:	00 00 00 00 
    4078:	66 66 2e 0f 1f 84 00 	data16 nopw %cs:0x0(%rax,%rax,1)
    407f:	00 00 00 00 
    4083:	66 66 2e 0f 1f 84 00 	data16 nopw %cs:0x0(%rax,%rax,1)
    408a:	00 00 00 00 
    408e:	66 66 2e 0f 1f 84 00 	data16 nopw %cs:0x0(%rax,%rax,1)
    4095:	00 00 00 00 
    4099:	66 66 2e 0f 1f 84 00 	data16 nopw %cs:0x0(%rax,%rax,1)
    40a0:	00 00 00 00 
    40a4:	66 66 2e 0f 1f 84 00 	data16 nopw %cs:0x0(%rax,%rax,1)
    40ab:	00 00 00 00 
    40af:	66 66 2e 0f 1f 84 00 	data16 nopw %cs:0x0(%rax,%rax,1)
    40b6:	00 00 00 00 
    40ba:	66 66 2e 0f 1f 84 00 	data16 nopw %cs:0x0(%rax,%rax,1)
    40c1:	00 00 00 00 
    40c5:	66 66 2e 0f 1f 84 00 	data16 nopw %cs:0x0(%rax,%rax,1)
    40cc:	00 00 00 00 
    40d0:	66 66 2e 0f 1f 84 00 	data16 nopw %cs:0x0(%rax,%rax,1)
    40d7:	00 00 00 00 
    40db:	66 66 2e 0f 1f 84 00 	data16 nopw %cs:0x0(%rax,%rax,1)
    40e2:	00 00 00 00 
    40e6:	66 66 2e 0f 1f 84 00 	data16 nopw %cs:0x0(%rax,%rax,1)
    40ed:	00 00 00 00 
    40f1:	66 66 2e 0f 1f 84 00 	data16 nopw %cs:0x0(%rax,%rax,1)
    40f8:	00 00 00 00 
    40fc:	66 66 2e 0f 1f 84 00 	data16 nopw %cs:0x0(%rax,%rax,1)
    4103:	00 00 00 00 
    4107:	66 66 2e 0f 1f 84 00 	data16 nopw %cs:0x0(%rax,%rax,1)
    410e:	00 00 00 00 
    4112:	66 66 2e 0f 1f 84 00 	data16 nopw %cs:0x0(%rax,%rax,1)
    4119:	00 00 00 00 
    411d:	66 66 2e 0f 1f 84 00 	data16 nopw %cs:0x0(%rax,%rax,1)
    4124:	00 00 00 00 
    4128:	66 66 2e 0f 1f 84 00 	data16 nopw %cs:0x0(%rax,%rax,1)
    412f:	00 00 00 00 
    4133:	66 66 2e 0f 1f 84 00 	data16 nopw %cs:0x0(%rax,%rax,1)
    413a:	00 00 00 00 
    413e:	66 66 2e 0f 1f 84 00 	data16 nopw %cs:0x0(%rax,%rax,1)
    4145:	00 00 00 00 
    4149:	66 66 2e 0f 1f 84 00 	data16 nopw %cs:0x0(%rax,%rax,1)
    4150:	00 00 00 00 
    4154:	66 66 2e 0f 1f 84 00 	data16 nopw %cs:0x0(%rax,%rax,1)
    415b:	00 00 00 00 
    415f:	66 66 2e 0f 1f 84 00 	data16 nopw %cs:0x0(%rax,%rax,1)
    4166:	00 00 00 00 
    416a:	66 66 2e 0f 1f 84 00 	data16 nopw %cs:0x0(%rax,%rax,1)
    4171:	00 00 00 00 
    4175:	66 66 2e 0f 1f 84 00 	data16 nopw %cs:0x0(%rax,%rax,1)
    417c:	00 00 00 00 
    4180:	66 66 2e 0f 1f 84 00 	data16 nopw %cs:0x0(%rax,%rax,1)
    4187:	00 00 00 00 
    418b:	66 66 2e 0f 1f 84 00 	data16 nopw %cs:0x0(%rax,%rax,1)
    4192:	00 00 00 00 
    4196:	66 66 2e 0f 1f 84 00 	data16 nopw %cs:0x0(%rax,%rax,1)
    419d:	00 00 00 00 
    41a1:	66 66 2e 0f 1f 84 00 	data16 nopw %cs:0x0(%rax,%rax,1)
    41a8:	00 00 00 00 
    41ac:	66 66 2e 0f 1f 84 00 	data16 nopw %cs:0x0(%rax,%rax,1)
    41b3:	00 00 00 00 
    41b7:	66 66 2e 0f 1f 84 00 	data16 nopw %cs:0x0(%rax,%rax,1)
    41be:	00 00 00 00 
    41c2:	66 66 2e 0f 1f 84 00 	data16 nopw %cs:0x0(%rax,%rax,1)
    41c9:	00 00 00 00 
    41cd:	66 66 2e 0f 1f 84 00 	data16 nopw %cs:0x0(%rax,%rax,1)
    41d4:	00 00 00 00 
    41d8:	66 66 2e 0f 1f 84 00 	data16 nopw %cs:0x0(%rax,%rax,1)
    41df:	00 00 00 00 
    41e3:	66 66 2e 0f 1f 84 00 	data16 nopw %cs:0x0(%rax,%rax,1)
    41ea:	00 00 00 00 
    41ee:	66 66 2e 0f 1f 84 00 	data16 nopw %cs:0x0(%rax,%rax,1)
    41f5:	00 00 00 00 
    41f9:	66 66 2e 0f 1f 84 00 	data16 nopw %cs:0x0(%rax,%rax,1)
    4200:	00 00 00 00 
    4204:	66 66 2e 0f 1f 84 00 	data16 nopw %cs:0x0(%rax,%rax,1)
    420b:	00 00 00 00 
    420f:	66 66 2e 0f 1f 84 00 	data16 nopw %cs:0x0(%rax,%rax,1)
    4216:	00 00 00 00 
    421a:	66 66 2e 0f 1f 84 00 	data16 nopw %cs:0x0(%rax,%rax,1)
    4221:	00 00 00 00 
    4225:	66 66 2e 0f 1f 84 00 	data16 nopw %cs:0x0(%rax,%rax,1)
    422c:	00 00 00 00 
    4230:	66 66 2e 0f 1f 84 00 	data16 nopw %cs:0x0(%rax,%rax,1)
    4237:	00 00 00 00 
    423b:	66 66 2e 0f 1f 84 00 	data16 nopw %cs:0x0(%rax,%rax,1)
    4242:	00 00 00 00 
    4246:	66 66 2e 0f 1f 84 00 	data16 nopw %cs:0x0(%rax,%rax,1)
    424d:	00 00 00 00 
    4251:	66 66 2e 0f 1f 84 00 	data16 nopw %cs:0x0(%rax,%rax,1)
    4258:	00 00 00 00 
    425c:	66 66 2e 0f 1f 84 00 	data16 nopw %cs:0x0(%rax,%rax,1)
    4263:	00 00 00 00 
    4267:	66 66 2e 0f 1f 84 00 	data16 nopw %cs:0x0(%rax,%rax,1)
    426e:	00 00 00 00 
    4272:	66 66 2e 0f 1f 84 00 	data16 nopw %cs:0x0(%rax,%rax,1)
    4279:	00 00 00 00 
    427d:	66 66 2e 0f 1f 84 00 	data16 nopw %cs:0x0(%rax,%rax,1)
    4284:	00 00 00 00 
    4288:	66 66 2e 0f 1f 84 00 	data16 nopw %cs:0x0(%rax,%rax,1)
    428f:	00 00 00 00 
    4293:	66 66 2e 0f 1f 84 00 	data16 nopw %cs:0x0(%rax,%rax,1)
    429a:	00 00 00 00 
    429e:	66 66 2e 0f 1f 84 00 	data16 nopw %cs:0x0(%rax,%rax,1)
    42a5:	00 00 00 00 
    42a9:	66 66 2e 0f 1f 84 00 	data16 nopw %cs:0x0(%rax,%rax,1)
    42b0:	00 00 00 00 
    42b4:	66 66 2e 0f 1f 84 00 	data16 nopw %cs:0x0(%rax,%rax,1)
    42bb:	00 00 00 00 
    42bf:	66 66 2e 0f 1f 84 00 	data16 nopw %cs:0x0(%rax,%rax,1)
    42c6:	00 00 00 00 
    42ca:	66 66 2e 0f 1f 84 00 	data16 nopw %cs:0x0(%rax,%rax,1)
    42d1:	00 00 00 00 
    42d5:	66 66 2e 0f 1f 84 00 	data16 nopw %cs:0x0(%rax,%rax,1)
    42dc:	00 00 00 00 
    42e0:	66 66 2e 0f 1f 84 00 	data16 nopw %cs:0x0(%rax,%rax,1)
    42e7:	00 00 00 00 
    42eb:	66 66 2e 0f 1f 84 00 	data16 nopw %cs:0x0(%rax,%rax,1)
    42f2:	00 00 00 00 
    42f6:	66 66 2e 0f 1f 84 00 	data16 nopw %cs:0x0(%rax,%rax,1)
    42fd:	00 00 00 00 
    4301:	66 66 2e 0f 1f 84 00 	data16 nopw %cs:0x0(%rax,%rax,1)
    4308:	00 00 00 00 
    430c:	66 66 2e 0f 1f 84 00 	data16 nopw %cs:0x0(%rax,%rax,1)
    4313:	00 00 00 00 
    4317:	66 66 2e 0f 1f 84 00 	data16 nopw %cs:0x0(%rax,%rax,1)
    431e:	00 00 00 00 
    4322:	66 66 2e 0f 1f 84 00 	data16 nopw %cs:0x0(%rax,%rax,1)
    4329:	00 00 00 00 
    432d:	66 66 2e 0f 1f 84 00 	data16 nopw %cs:0x0(%rax,%rax,1)
    4334:	00 00 00 00 
    4338:	66 66 2e 0f 1f 84 00 	data16 nopw %cs:0x0(%rax,%rax,1)
    433f:	00 00 00 00 
    4343:	66 66 2e 0f 1f 84 00 	data16 nopw %cs:0x0(%rax,%rax,1)
    434a:	00 00 00 00 
    434e:	66 66 2e 0f 1f 84 00 	data16 nopw %cs:0x0(%rax,%rax,1)
    4355:	00 00 00 00 
    4359:	66 66 2e 0f 1f 84 00 	data16 nopw %cs:0x0(%rax,%rax,1)
    4360:	00 00 00 00 
    4364:	66 66 2e 0f 1f 84 00 	data16 nopw %cs:0x0(%rax,%rax,1)
    436b:	00 00 00 00 
    436f:	66 66 2e 0f 1f 84 00 	data16 nopw %cs:0x0(%rax,%rax,1)
    4376:	00 00 00 00 
    437a:	66 66 2e 0f 1f 84 00 	data16 nopw %cs:0x0(%rax,%rax,1)
    4381:	00 00 00 00 
    4385:	66 66 2e 0f 1f 84 00 	data16 nopw %cs:0x0(%rax,%rax,1)
    438c:	00 00 00 00 
    4390:	66 66 2e 0f 1f 84 00 	data16 nopw %cs:0x0(%rax,%rax,1)
    4397:	00 00 00 00 
    439b:	66 66 2e 0f 1f 84 00 	data16 nopw %cs:0x0(%rax,%rax,1)
    43a2:	00 00 00 00 
    43a6:	66 66 2e 0f 1f 84 00 	data16 nopw %cs:0x0(%rax,%rax,1)
    43ad:	00 00 00 00 
    43b1:	66 66 2e 0f 1f 84 00 	data16 nopw %cs:0x0(%rax,%rax,1)
    43b8:	00 00 00 00 
    43bc:	66 66 2e 0f 1f 84 00 	data16 nopw %cs:0x0(%rax,%rax,1)
    43c3:	00 00 00 00 
    43c7:	66 66 2e 0f 1f 84 00 	data16 nopw %cs:0x0(%rax,%rax,1)
    43ce:	00 00 00 00 
    43d2:	66 66 2e 0f 1f 84 00 	data16 nopw %cs:0x0(%rax,%rax,1)
    43d9:	00 00 00 00 
    43dd:	66 66 2e 0f 1f 84 00 	data16 nopw %cs:0x0(%rax,%rax,1)
    43e4:	00 00 00 00 
    43e8:	66 66 2e 0f 1f 84 00 	data16 nopw %cs:0x0(%rax,%rax,1)
    43ef:	00 00 00 00 
    43f3:	66 66 2e 0f 1f 84 00 	data16 nopw %cs:0x0(%rax,%rax,1)
    43fa:	00 00 00 00 
    43fe:	66 66 2e 0f 1f 84 00 	data16 nopw %cs:0x0(%rax,%rax,1)
    4405:	00 00 00 00 
    4409:	66 66 2e 0f 1f 84 00 	data16 nopw %cs:0x0(%rax,%rax,1)
    4410:	00 00 00 00 
    4414:	66 66 2e 0f 1f 84 00 	data16 nopw %cs:0x0(%rax,%rax,1)
    441b:	00 00 00 00 
    441f:	66 66 2e 0f 1f 84 00 	data16 nopw %cs:0x0(%rax,%rax,1)
    4426:	00 00 00 00 
    442a:	66 66 2e 0f 1f 84 00 	data16 nopw %cs:0x0(%rax,%rax,1)
    4431:	00 00 00 00 
    4435:	66 66 2e 0f 1f 84 00 	data16 nopw %cs:0x0(%rax,%rax,1)
    443c:	00 00 00 00 
    4440:	66 66 2e 0f 1f 84 00 	data16 nopw %cs:0x0(%rax,%rax,1)
    4447:	00 00 00 00 
    444b:	66 66 2e 0f 1f 84 00 	data16 nopw %cs:0x0(%rax,%rax,1)
    4452:	00 00 00 00 
    4456:	66 66 2e 0f 1f 84 00 	data16 nopw %cs:0x0(%rax,%rax,1)
    445d:	00 00 00 00 
    4461:	66 66 2e 0f 1f 84 00 	data16 nopw %cs:0x0(%rax,%rax,1)
    4468:	00 00 00 00 
    446c:	66 66 2e 0f 1f 84 00 	data16 nopw %cs:0x0(%rax,%rax,1)
    4473:	00 00 00 00 
    4477:	66 66 2e 0f 1f 84 00 	data16 nopw %cs:0x0(%rax,%rax,1)
    447e:	00 00 00 00 
    4482:	66 66 2e 0f 1f 84 00 	data16 nopw %cs:0x0(%rax,%rax,1)
    4489:	00 00 00 00 
    448d:	66 66 2e 0f 1f 84 00 	data16 nopw %cs:0x0(%rax,%rax,1)
    4494:	00 00 00 00 
    4498:	66 66 2e 0f 1f 84 00 	data16 nopw %cs:0x0(%rax,%rax,1)
    449f:	00 00 00 00 
    44a3:	66 66 2e 0f 1f 84 00 	data16 nopw %cs:0x0(%rax,%rax,1)
    44aa:	00 00 00 00 
    44ae:	66 66 2e 0f 1f 84 00 	data16 nopw %cs:0x0(%rax,%rax,1)
    44b5:	00 00 00 00 
    44b9:	66 66 2e 0f 1f 84 00 	data16 nopw %cs:0x0(%rax,%rax,1)
    44c0:	00 00 00 00 
    44c4:	66 66 2e 0f 1f 84 00 	data16 nopw %cs:0x0(%rax,%rax,1)
    44cb:	00 00 00 00 
    44cf:	66 66 2e 0f 1f 84 00 	data16 nopw %cs:0x0(%rax,%rax,1)
    44d6:	00 00 00 00 
    44da:	66 66 2e 0f 1f 84 00 	data16 nopw %cs:0x0(%rax,%rax,1)
    44e1:	00 00 00 00 
    44e5:	66 66 2e 0f 1f 84 00 	data16 nopw %cs:0x0(%rax,%rax,1)
    44ec:	00 00 00 00 
    44f0:	66 66 2e 0f 1f 84 00 	data16 nopw %cs:0x0(%rax,%rax,1)
    44f7:	00 00 00 00 
    44fb:	66 66 2e 0f 1f 84 00 	data16 nopw %cs:0x0(%rax,%rax,1)
    4502:	00 00 00 00 
    4506:	66 66 2e 0f 1f 84 00 	data16 nopw %cs:0x0(%rax,%rax,1)
    450d:	00 00 00 00 
    4511:	66 66 2e 0f 1f 84 00 	data16 nopw %cs:0x0(%rax,%rax,1)
    4518:	00 00 00 00 
    451c:	66 66 2e 0f 1f 84 00 	data16 nopw %cs:0x0(%rax,%rax,1)
    4523:	00 00 00 00 
    4527:	66 66 2e 0f 1f 84 00 	data16 nopw %cs:0x0(%rax,%rax,1)
    452e:	00 00 00 00 
    4532:	66 66 2e 0f 1f 84 00 	data16 nopw %cs:0x0(%rax,%rax,1)
    4539:	00 00 00 00 
    453d:	66 66 2e 0f 1f 84 00 	data16 nopw %cs:0x0(%rax,%rax,1)
    4544:	00 00 00 00 
    4548:	66 66 2e 0f 1f 84 00 	data16 nopw %cs:0x0(%rax,%rax,1)
    454f:	00 00 00 00 
    4553:	66 66 2e 0f 1f 84 00 	data16 nopw %cs:0x0(%rax,%rax,1)
    455a:	00 00 00 00 
    455e:	66 66 2e 0f 1f 84 00 	data16 nopw %cs:0x0(%rax,%rax,1)
    4565:	00 00 00 00 
    4569:	66 66 2e 0f 1f 84 00 	data16 nopw %cs:0x0(%rax,%rax,1)
    4570:	00 00 00 00 
    4574:	66 66 2e 0f 1f 84 00 	data16 nopw %cs:0x0(%rax,%rax,1)
    457b:	00 00 00 00 
    457f:	66 66 2e 0f 1f 84 00 	data16 nopw %cs:0x0(%rax,%rax,1)
    4586:	00 00 00 00 
    458a:	66 66 2e 0f 1f 84 00 	data16 nopw %cs:0x0(%rax,%rax,1)
    4591:	00 00 00 00 
    4595:	66 66 2e 0f 1f 84 00 	data16 nopw %cs:0x0(%rax,%rax,1)
    459c:	00 00 00 00 
    45a0:	66 66 2e 0f 1f 84 00 	data16 nopw %cs:0x0(%rax,%rax,1)
    45a7:	00 00 00 00 
    45ab:	66 66 2e 0f 1f 84 00 	data16 nopw %cs:0x0(%rax,%rax,1)
    45b2:	00 00 00 00 
    45b6:	66 66 2e 0f 1f 84 00 	data16 nopw %cs:0x0(%rax,%rax,1)
    45bd:	00 00 00 00 
    45c1:	66 66 2e 0f 1f 84 00 	data16 nopw %cs:0x0(%rax,%rax,1)
    45c8:	00 00 00 00 
    45cc:	66 66 2e 0f 1f 84 00 	data16 nopw %cs:0x0(%rax,%rax,1)
    45d3:	00 00 00 00 
    45d7:	66 66 2e 0f 1f 84 00 	data16 nopw %cs:0x0(%rax,%rax,1)
    45de:	00 00 00 00 
    45e2:	66 66 2e 0f 1f 84 00 	data16 nopw %cs:0x0(%rax,%rax,1)
    45e9:	00 00 00 00 
    45ed:	66 66 2e 0f 1f 84 00 	data16 nopw %cs:0x0(%rax,%rax,1)
    45f4:	00 00 00 00 
    45f8:	66 66 2e 0f 1f 84 00 	data16 nopw %cs:0x0(%rax,%rax,1)
    45ff:	00 00 00 00 
    4603:	66 66 2e 0f 1f 84 00 	data16 nopw %cs:0x0(%rax,%rax,1)
    460a:	00 00 00 00 
    460e:	66 66 2e 0f 1f 84 00 	data16 nopw %cs:0x0(%rax,%rax,1)
    4615:	00 00 00 00 
    4619:	66 66 2e 0f 1f 84 00 	data16 nopw %cs:0x0(%rax,%rax,1)
    4620:	00 00 00 00 
    4624:	66 66 2e 0f 1f 84 00 	data16 nopw %cs:0x0(%rax,%rax,1)
    462b:	00 00 00 00 
    462f:	66 66 2e 0f 1f 84 00 	data16 nopw %cs:0x0(%rax,%rax,1)
    4636:	00 00 00 00 
    463a:	66 66 2e 0f 1f 84 00 	data16 nopw %cs:0x0(%rax,%rax,1)
    4641:	00 00 00 00 
    4645:	66 66 2e 0f 1f 84 00 	data16 nopw %cs:0x0(%rax,%rax,1)
    464c:	00 00 00 00 
    4650:	66 66 2e 0f 1f 84 00 	data16 nopw %cs:0x0(%rax,%rax,1)
    4657:	00 00 00 00 
    465b:	66 66 2e 0f 1f 84 00 	data16 nopw %cs:0x0(%rax,%rax,1)
    4662:	00 00 00 00 
    4666:	66 66 2e 0f 1f 84 00 	data16 nopw %cs:0x0(%rax,%rax,1)
    466d:	00 00 00 00 
    4671:	66 66 2e 0f 1f 84 00 	data16 nopw %cs:0x0(%rax,%rax,1)
    4678:	00 00 00 00 
    467c:	66 66 2e 0f 1f 84 00 	data16 nopw %cs:0x0(%rax,%rax,1)
    4683:	00 00 00 00 
    4687:	66 66 2e 0f 1f 84 00 	data16 nopw %cs:0x0(%rax,%rax,1)
    468e:	00 00 00 00 
    4692:	66 66 2e 0f 1f 84 00 	data16 nopw %cs:0x0(%rax,%rax,1)
    4699:	00 00 00 00 
    469d:	66 66 2e 0f 1f 84 00 	data16 nopw %cs:0x0(%rax,%rax,1)
    46a4:	00 00 00 00 
    46a8:	66 66 2e 0f 1f 84 00 	data16 nopw %cs:0x0(%rax,%rax,1)
    46af:	00 00 00 00 
    46b3:	66 66 2e 0f 1f 84 00 	data16 nopw %cs:0x0(%rax,%rax,1)
    46ba:	00 00 00 00 
    46be:	66 66 2e 0f 1f 84 00 	data16 nopw %cs:0x0(%rax,%rax,1)
    46c5:	00 00 00 00 
    46c9:	66 66 2e 0f 1f 84 00 	data16 nopw %cs:0x0(%rax,%rax,1)
    46d0:	00 00 00 00 
    46d4:	66 66 2e 0f 1f 84 00 	data16 nopw %cs:0x0(%rax,%rax,1)
    46db:	00 00 00 00 
    46df:	66 66 2e 0f 1f 84 00 	data16 nopw %cs:0x0(%rax,%rax,1)
    46e6:	00 00 00 00 
    46ea:	66 66 2e 0f 1f 84 00 	data16 nopw %cs:0x0(%rax,%rax,1)
    46f1:	00 00 00 00 
    46f5:	66 66 2e 0f 1f 84 00 	data16 nopw %cs:0x0(%rax,%rax,1)
    46fc:	00 00 00 00 
    4700:	66 66 2e 0f 1f 84 00 	data16 nopw %cs:0x0(%rax,%rax,1)
    4707:	00 00 00 00 
    470b:	66 66 2e 0f 1f 84 00 	data16 nopw %cs:0x0(%rax,%rax,1)
    4712:	00 00 00 00 
    4716:	66 66 2e 0f 1f 84 00 	data16 nopw %cs:0x0(%rax,%rax,1)
    471d:	00 00 00 00 
    4721:	66 66 2e 0f 1f 84 00 	data16 nopw %cs:0x0(%rax,%rax,1)
    4728:	00 00 00 00 
    472c:	66 66 2e 0f 1f 84 00 	data16 nopw %cs:0x0(%rax,%rax,1)
    4733:	00 00 00 00 
    4737:	66 66 2e 0f 1f 84 00 	data16 nopw %cs:0x0(%rax,%rax,1)
    473e:	00 00 00 00 
    4742:	66 66 2e 0f 1f 84 00 	data16 nopw %cs:0x0(%rax,%rax,1)
    4749:	00 00 00 00 
    474d:	66 66 2e 0f 1f 84 00 	data16 nopw %cs:0x0(%rax,%rax,1)
    4754:	00 00 00 00 
    4758:	66 66 2e 0f 1f 84 00 	data16 nopw %cs:0x0(%rax,%rax,1)
    475f:	00 00 00 00 
    4763:	66 66 2e 0f 1f 84 00 	data16 nopw %cs:0x0(%rax,%rax,1)
    476a:	00 00 00 00 
    476e:	66 66 2e 0f 1f 84 00 	data16 nopw %cs:0x0(%rax,%rax,1)
    4775:	00 00 00 00 
    4779:	66 66 2e 0f 1f 84 00 	data16 nopw %cs:0x0(%rax,%rax,1)
    4780:	00 00 00 00 
    4784:	66 66 2e 0f 1f 84 00 	data16 nopw %cs:0x0(%rax,%rax,1)
    478b:	00 00 00 00 
    478f:	66 66 2e 0f 1f 84 00 	data16 nopw %cs:0x0(%rax,%rax,1)
    4796:	00 00 00 00 
    479a:	66 66 2e 0f 1f 84 00 	data16 nopw %cs:0x0(%rax,%rax,1)
    47a1:	00 00 00 00 
    47a5:	66 66 2e 0f 1f 84 00 	data16 nopw %cs:0x0(%rax,%rax,1)
    47ac:	00 00 00 00 
    47b0:	66 66 2e 0f 1f 84 00 	data16 nopw %cs:0x0(%rax,%rax,1)
    47b7:	00 00 00 00 
    47bb:	66 66 2e 0f 1f 84 00 	data16 nopw %cs:0x0(%rax,%rax,1)
    47c2:	00 00 00 00 
    47c6:	66 66 2e 0f 1f 84 00 	data16 nopw %cs:0x0(%rax,%rax,1)
    47cd:	00 00 00 00 
    47d1:	66 66 2e 0f 1f 84 00 	data16 nopw %cs:0x0(%rax,%rax,1)
    47d8:	00 00 00 00 
    47dc:	66 66 2e 0f 1f 84 00 	data16 nopw %cs:0x0(%rax,%rax,1)
    47e3:	00 00 00 00 
    47e7:	66 66 2e 0f 1f 84 00 	data16 nopw %cs:0x0(%rax,%rax,1)
    47ee:	00 00 00 00 
    47f2:	66 66 2e 0f 1f 84 00 	data16 nopw %cs:0x0(%rax,%rax,1)
    47f9:	00 00 00 00 
    47fd:	66 66 2e 0f 1f 84 00 	data16 nopw %cs:0x0(%rax,%rax,1)
    4804:	00 00 00 00 
    4808:	66 66 2e 0f 1f 84 00 	data16 nopw %cs:0x0(%rax,%rax,1)
    480f:	00 00 00 00 
    4813:	66 66 2e 0f 1f 84 00 	data16 nopw %cs:0x0(%rax,%rax,1)
    481a:	00 00 00 00 
    481e:	66 66 2e 0f 1f 84 00 	data16 nopw %cs:0x0(%rax,%rax,1)
    4825:	00 00 00 00 
    4829:	66 66 2e 0f 1f 84 00 	data16 nopw %cs:0x0(%rax,%rax,1)
    4830:	00 00 00 00 
    4834:	66 66 2e 0f 1f 84 00 	data16 nopw %cs:0x0(%rax,%rax,1)
    483b:	00 00 00 00 
    483f:	66 66 2e 0f 1f 84 00 	data16 nopw %cs:0x0(%rax,%rax,1)
    4846:	00 00 00 00 
    484a:	66 66 2e 0f 1f 84 00 	data16 nopw %cs:0x0(%rax,%rax,1)
    4851:	00 00 00 00 
    4855:	66 66 2e 0f 1f 84 00 	data16 nopw %cs:0x0(%rax,%rax,1)
    485c:	00 00 00 00 
    4860:	66 66 2e 0f 1f 84 00 	data16 nopw %cs:0x0(%rax,%rax,1)
    4867:	00 00 00 00 
    486b:	66 66 2e 0f 1f 84 00 	data16 nopw %cs:0x0(%rax,%rax,1)
    4872:	00 00 00 00 
    4876:	66 66 2e 0f 1f 84 00 	data16 nopw %cs:0x0(%rax,%rax,1)
    487d:	00 00 00 00 
    4881:	66 66 2e 0f 1f 84 00 	data16 nopw %cs:0x0(%rax,%rax,1)
    4888:	00 00 00 00 
    488c:	66 66 2e 0f 1f 84 00 	data16 nopw %cs:0x0(%rax,%rax,1)
    4893:	00 00 00 00 
    4897:	66 66 2e 0f 1f 84 00 	data16 nopw %cs:0x0(%rax,%rax,1)
    489e:	00 00 00 00 
    48a2:	66 66 2e 0f 1f 84 00 	data16 nopw %cs:0x0(%rax,%rax,1)
    48a9:	00 00 00 00 
    48ad:	66 66 2e 0f 1f 84 00 	data16 nopw %cs:0x0(%rax,%rax,1)
    48b4:	00 00 00 00 
    48b8:	66 66 2e 0f 1f 84 00 	data16 nopw %cs:0x0(%rax,%rax,1)
    48bf:	00 00 00 00 
    48c3:	66 66 2e 0f 1f 84 00 	data16 nopw %cs:0x0(%rax,%rax,1)
    48ca:	00 00 00 00 
    48ce:	66 66 2e 0f 1f 84 00 	data16 nopw %cs:0x0(%rax,%rax,1)
    48d5:	00 00 00 00 
    48d9:	66 66 2e 0f 1f 84 00 	data16 nopw %cs:0x0(%rax,%rax,1)
    48e0:	00 00 00 00 
    48e4:	66 66 2e 0f 1f 84 00 	data16 nopw %cs:0x0(%rax,%rax,1)
    48eb:	00 00 00 00 
    48ef:	66 66 2e 0f 1f 84 00 	data16 nopw %cs:0x0(%rax,%rax,1)
    48f6:	00 00 00 00 
    48fa:	66 66 2e 0f 1f 84 00 	data16 nopw %cs:0x0(%rax,%rax,1)
    4901:	00 00 00 00 
    4905:	66 66 2e 0f 1f 84 00 	data16 nopw %cs:0x0(%rax,%rax,1)
    490c:	00 00 00 00 
    4910:	66 66 2e 0f 1f 84 00 	data16 nopw %cs:0x0(%rax,%rax,1)
    4917:	00 00 00 00 
    491b:	66 66 2e 0f 1f 84 00 	data16 nopw %cs:0x0(%rax,%rax,1)
    4922:	00 00 00 00 
    4926:	66 66 2e 0f 1f 84 00 	data16 nopw %cs:0x0(%rax,%rax,1)
    492d:	00 00 00 00 
    4931:	66 66 2e 0f 1f 84 00 	data16 nopw %cs:0x0(%rax,%rax,1)
    4938:	00 00 00 00 
    493c:	66 66 2e 0f 1f 84 00 	data16 nopw %cs:0x0(%rax,%rax,1)
    4943:	00 00 00 00 
    4947:	66 66 2e 0f 1f 84 00 	data16 nopw %cs:0x0(%rax,%rax,1)
    494e:	00 00 00 00 
    4952:	66 66 2e 0f 1f 84 00 	data16 nopw %cs:0x0(%rax,%rax,1)
    4959:	00 00 00 00 
    495d:	66 66 2e 0f 1f 84 00 	data16 nopw %cs:0x0(%rax,%rax,1)
    4964:	00 00 00 00 
    4968:	66 66 2e 0f 1f 84 00 	data16 nopw %cs:0x0(%rax,%rax,1)
    496f:	00 00 00 00 
    4973:	66 66 2e 0f 1f 84 00 	data16 nopw %cs:0x0(%rax,%rax,1)
    497a:	00 00 00 00 
    497e:	66 66 2e 0f 1f 84 00 	data16 nopw %cs:0x0(%rax,%rax,1)
    4985:	00 00 00 00 
    4989:	66 66 2e 0f 1f 84 00 	data16 nopw %cs:0x0(%rax,%rax,1)
    4990:	00 00 00 00 
    4994:	66 66 2e 0f 1f 84 00 	data16 nopw %cs:0x0(%rax,%rax,1)
    499b:	00 00 00 00 
    499f:	66 66 2e 0f 1f 84 00 	data16 nopw %cs:0x0(%rax,%rax,1)
    49a6:	00 00 00 00 
    49aa:	66 66 2e 0f 1f 84 00 	data16 nopw %cs:0x0(%rax,%rax,1)
    49b1:	00 00 00 00 
    49b5:	66 66 2e 0f 1f 84 00 	data16 nopw %cs:0x0(%rax,%rax,1)
    49bc:	00 00 00 00 
    49c0:	66 66 2e 0f 1f 84 00 	data16 nopw %cs:0x0(%rax,%rax,1)
    49c7:	00 00 00 00 
    49cb:	66 66 2e 0f 1f 84 00 	data16 nopw %cs:0x0(%rax,%rax,1)
    49d2:	00 00 00 00 
    49d6:	66 66 2e 0f 1f 84 00 	data16 nopw %cs:0x0(%rax,%rax,1)
    49dd:	00 00 00 00 
    49e1:	66 66 2e 0f 1f 84 00 	data16 nopw %cs:0x0(%rax,%rax,1)
    49e8:	00 00 00 00 
    49ec:	66 66 2e 0f 1f 84 00 	data16 nopw %cs:0x0(%rax,%rax,1)
    49f3:	00 00 00 00 
    49f7:	66 66 2e 0f 1f 84 00 	data16 nopw %cs:0x0(%rax,%rax,1)
    49fe:	00 00 00 00 
    4a02:	66 66 2e 0f 1f 84 00 	data16 nopw %cs:0x0(%rax,%rax,1)
    4a09:	00 00 00 00 
    4a0d:	66 66 2e 0f 1f 84 00 	data16 nopw %cs:0x0(%rax,%rax,1)
    4a14:	00 00 00 00 
    4a18:	66 66 2e 0f 1f 84 00 	data16 nopw %cs:0x0(%rax,%rax,1)
    4a1f:	00 00 00 00 
    4a23:	66 66 2e 0f 1f 84 00 	data16 nopw %cs:0x0(%rax,%rax,1)
    4a2a:	00 00 00 00 
    4a2e:	66 66 2e 0f 1f 84 00 	data16 nopw %cs:0x0(%rax,%rax,1)
    4a35:	00 00 00 00 
    4a39:	66 66 2e 0f 1f 84 00 	data16 nopw %cs:0x0(%rax,%rax,1)
    4a40:	00 00 00 00 
    4a44:	66 66 2e 0f 1f 84 00 	data16 nopw %cs:0x0(%rax,%rax,1)
    4a4b:	00 00 00 00 
    4a4f:	66 66 2e 0f 1f 84 00 	data16 nopw %cs:0x0(%rax,%rax,1)
    4a56:	00 00 00 00 
    4a5a:	66 66 2e 0f 1f 84 00 	data16 nopw %cs:0x0(%rax,%rax,1)
    4a61:	00 00 00 00 
    4a65:	66 66 2e 0f 1f 84 00 	data16 nopw %cs:0x0(%rax,%rax,1)
    4a6c:	00 00 00 00 
    4a70:	66 66 2e 0f 1f 84 00 	data16 nopw %cs:0x0(%rax,%rax,1)
    4a77:	00 00 00 00 
    4a7b:	66 66 2e 0f 1f 84 00 	data16 nopw %cs:0x0(%rax,%rax,1)
    4a82:	00 00 00 00 
    4a86:	66 66 2e 0f 1f 84 00 	data16 nopw %cs:0x0(%rax,%rax,1)
    4a8d:	00 00 00 00 
    4a91:	66 66 2e 0f 1f 84 00 	data16 nopw %cs:0x0(%rax,%rax,1)
    4a98:	00 00 00 00 
    4a9c:	66 66 2e 0f 1f 84 00 	data16 nopw %cs:0x0(%rax,%rax,1)
    4aa3:	00 00 00 00 
    4aa7:	66 66 2e 0f 1f 84 00 	data16 nopw %cs:0x0(%rax,%rax,1)
    4aae:	00 00 00 00 
    4ab2:	66 66 2e 0f 1f 84 00 	data16 nopw %cs:0x0(%rax,%rax,1)
    4ab9:	00 00 00 00 
    4abd:	66 66 2e 0f 1f 84 00 	data16 nopw %cs:0x0(%rax,%rax,1)
    4ac4:	00 00 00 00 
    4ac8:	66 66 2e 0f 1f 84 00 	data16 nopw %cs:0x0(%rax,%rax,1)
    4acf:	00 00 00 00 
    4ad3:	66 66 2e 0f 1f 84 00 	data16 nopw %cs:0x0(%rax,%rax,1)
    4ada:	00 00 00 00 
    4ade:	66 66 2e 0f 1f 84 00 	data16 nopw %cs:0x0(%rax,%rax,1)
    4ae5:	00 00 00 00 
    4ae9:	66 66 2e 0f 1f 84 00 	data16 nopw %cs:0x0(%rax,%rax,1)
    4af0:	00 00 00 00 
    4af4:	66 66 2e 0f 1f 84 00 	data16 nopw %cs:0x0(%rax,%rax,1)
    4afb:	00 00 00 00 
    4aff:	66 66 2e 0f 1f 84 00 	data16 nopw %cs:0x0(%rax,%rax,1)
    4b06:	00 00 00 00 
    4b0a:	66 66 2e 0f 1f 84 00 	data16 nopw %cs:0x0(%rax,%rax,1)
    4b11:	00 00 00 00 
    4b15:	66 66 2e 0f 1f 84 00 	data16 nopw %cs:0x0(%rax,%rax,1)
    4b1c:	00 00 00 00 
    4b20:	66 66 2e 0f 1f 84 00 	data16 nopw %cs:0x0(%rax,%rax,1)
    4b27:	00 00 00 00 
    4b2b:	66 66 2e 0f 1f 84 00 	data16 nopw %cs:0x0(%rax,%rax,1)
    4b32:	00 00 00 00 
    4b36:	66 66 2e 0f 1f 84 00 	data16 nopw %cs:0x0(%rax,%rax,1)
    4b3d:	00 00 00 00 
    4b41:	66 66 2e 0f 1f 84 00 	data16 nopw %cs:0x0(%rax,%rax,1)
    4b48:	00 00 00 00 
    4b4c:	66 66 2e 0f 1f 84 00 	data16 nopw %cs:0x0(%rax,%rax,1)
    4b53:	00 00 00 00 
    4b57:	66 66 2e 0f 1f 84 00 	data16 nopw %cs:0x0(%rax,%rax,1)
    4b5e:	00 00 00 00 
    4b62:	66 66 2e 0f 1f 84 00 	data16 nopw %cs:0x0(%rax,%rax,1)
    4b69:	00 00 00 00 
    4b6d:	66 66 2e 0f 1f 84 00 	data16 nopw %cs:0x0(%rax,%rax,1)
    4b74:	00 00 00 00 
    4b78:	66 66 2e 0f 1f 84 00 	data16 nopw %cs:0x0(%rax,%rax,1)
    4b7f:	00 00 00 00 
    4b83:	66 66 2e 0f 1f 84 00 	data16 nopw %cs:0x0(%rax,%rax,1)
    4b8a:	00 00 00 00 
    4b8e:	66 66 2e 0f 1f 84 00 	data16 nopw %cs:0x0(%rax,%rax,1)
    4b95:	00 00 00 00 
    4b99:	66 66 2e 0f 1f 84 00 	data16 nopw %cs:0x0(%rax,%rax,1)
    4ba0:	00 00 00 00 
    4ba4:	66 66 2e 0f 1f 84 00 	data16 nopw %cs:0x0(%rax,%rax,1)
    4bab:	00 00 00 00 
    4baf:	66 66 2e 0f 1f 84 00 	data16 nopw %cs:0x0(%rax,%rax,1)
    4bb6:	00 00 00 00 
    4bba:	66 66 2e 0f 1f 84 00 	data16 nopw %cs:0x0(%rax,%rax,1)
    4bc1:	00 00 00 00 
    4bc5:	66 66 2e 0f 1f 84 00 	data16 nopw %cs:0x0(%rax,%rax,1)
    4bcc:	00 00 00 00 
    4bd0:	66 66 2e 0f 1f 84 00 	data16 nopw %cs:0x0(%rax,%rax,1)
    4bd7:	00 00 00 00 
    4bdb:	66 66 2e 0f 1f 84 00 	data16 nopw %cs:0x0(%rax,%rax,1)
    4be2:	00 00 00 00 
    4be6:	66 66 2e 0f 1f 84 00 	data16 nopw %cs:0x0(%rax,%rax,1)
    4bed:	00 00 00 00 
    4bf1:	66 66 2e 0f 1f 84 00 	data16 nopw %cs:0x0(%rax,%rax,1)
    4bf8:	00 00 00 00 
    4bfc:	66 66 2e 0f 1f 84 00 	data16 nopw %cs:0x0(%rax,%rax,1)
    4c03:	00 00 00 00 
    4c07:	66 66 2e 0f 1f 84 00 	data16 nopw %cs:0x0(%rax,%rax,1)
    4c0e:	00 00 00 00 
    4c12:	66 66 2e 0f 1f 84 00 	data16 nopw %cs:0x0(%rax,%rax,1)
    4c19:	00 00 00 00 
    4c1d:	66 66 2e 0f 1f 84 00 	data16 nopw %cs:0x0(%rax,%rax,1)
    4c24:	00 00 00 00 
    4c28:	66 66 2e 0f 1f 84 00 	data16 nopw %cs:0x0(%rax,%rax,1)
    4c2f:	00 00 00 00 
    4c33:	66 66 2e 0f 1f 84 00 	data16 nopw %cs:0x0(%rax,%rax,1)
    4c3a:	00 00 00 00 
    4c3e:	66 66 2e 0f 1f 84 00 	data16 nopw %cs:0x0(%rax,%rax,1)
    4c45:	00 00 00 00 
    4c49:	66 66 2e 0f 1f 84 00 	data16 nopw %cs:0x0(%rax,%rax,1)
    4c50:	00 00 00 00 
    4c54:	66 66 2e 0f 1f 84 00 	data16 nopw %cs:0x0(%rax,%rax,1)
    4c5b:	00 00 00 00 
    4c5f:	66 66 2e 0f 1f 84 00 	data16 nopw %cs:0x0(%rax,%rax,1)
    4c66:	00 00 00 00 
    4c6a:	66 66 2e 0f 1f 84 00 	data16 nopw %cs:0x0(%rax,%rax,1)
    4c71:	00 00 00 00 
    4c75:	66 66 2e 0f 1f 84 00 	data16 nopw %cs:0x0(%rax,%rax,1)
    4c7c:	00 00 00 00 
    4c80:	66 66 2e 0f 1f 84 00 	data16 nopw %cs:0x0(%rax,%rax,1)
    4c87:	00 00 00 00 
    4c8b:	66 66 2e 0f 1f 84 00 	data16 nopw %cs:0x0(%rax,%rax,1)
    4c92:	00 00 00 00 
    4c96:	66 66 2e 0f 1f 84 00 	data16 nopw %cs:0x0(%rax,%rax,1)
    4c9d:	00 00 00 00 
    4ca1:	66 66 2e 0f 1f 84 00 	data16 nopw %cs:0x0(%rax,%rax,1)
    4ca8:	00 00 00 00 
    4cac:	66 66 2e 0f 1f 84 00 	data16 nopw %cs:0x0(%rax,%rax,1)
    4cb3:	00 00 00 00 
    4cb7:	66 66 2e 0f 1f 84 00 	data16 nopw %cs:0x0(%rax,%rax,1)
    4cbe:	00 00 00 00 
    4cc2:	66 66 2e 0f 1f 84 00 	data16 nopw %cs:0x0(%rax,%rax,1)
    4cc9:	00 00 00 00 
    4ccd:	66 66 2e 0f 1f 84 00 	data16 nopw %cs:0x0(%rax,%rax,1)
    4cd4:	00 00 00 00 
    4cd8:	66 66 2e 0f 1f 84 00 	data16 nopw %cs:0x0(%rax,%rax,1)
    4cdf:	00 00 00 00 
    4ce3:	66 66 2e 0f 1f 84 00 	data16 nopw %cs:0x0(%rax,%rax,1)
    4cea:	00 00 00 00 
    4cee:	66 66 2e 0f 1f 84 00 	data16 nopw %cs:0x0(%rax,%rax,1)
    4cf5:	00 00 00 00 
    4cf9:	66 66 2e 0f 1f 84 00 	data16 nopw %cs:0x0(%rax,%rax,1)
    4d00:	00 00 00 00 
    4d04:	66 66 2e 0f 1f 84 00 	data16 nopw %cs:0x0(%rax,%rax,1)
    4d0b:	00 00 00 00 
    4d0f:	66 66 2e 0f 1f 84 00 	data16 nopw %cs:0x0(%rax,%rax,1)
    4d16:	00 00 00 00 
    4d1a:	66 66 2e 0f 1f 84 00 	data16 nopw %cs:0x0(%rax,%rax,1)
    4d21:	00 00 00 00 
    4d25:	66 66 2e 0f 1f 84 00 	data16 nopw %cs:0x0(%rax,%rax,1)
    4d2c:	00 00 00 00 
    4d30:	66 66 2e 0f 1f 84 00 	data16 nopw %cs:0x0(%rax,%rax,1)
    4d37:	00 00 00 00 
    4d3b:	66 66 2e 0f 1f 84 00 	data16 nopw %cs:0x0(%rax,%rax,1)
    4d42:	00 00 00 00 
    4d46:	66 66 2e 0f 1f 84 00 	data16 nopw %cs:0x0(%rax,%rax,1)
    4d4d:	00 00 00 00 
    4d51:	66 66 2e 0f 1f 84 00 	data16 nopw %cs:0x0(%rax,%rax,1)
    4d58:	00 00 00 00 
    4d5c:	66 66 2e 0f 1f 84 00 	data16 nopw %cs:0x0(%rax,%rax,1)
    4d63:	00 00 00 00 
    4d67:	66 66 2e 0f 1f 84 00 	data16 nopw %cs:0x0(%rax,%rax,1)
    4d6e:	00 00 00 00 
    4d72:	66 66 2e 0f 1f 84 00 	data16 nopw %cs:0x0(%rax,%rax,1)
    4d79:	00 00 00 00 
    4d7d:	66 66 2e 0f 1f 84 00 	data16 nopw %cs:0x0(%rax,%rax,1)
    4d84:	00 00 00 00 
    4d88:	66 66 2e 0f 1f 84 00 	data16 nopw %cs:0x0(%rax,%rax,1)
    4d8f:	00 00 00 00 
    4d93:	66 66 2e 0f 1f 84 00 	data16 nopw %cs:0x0(%rax,%rax,1)
    4d9a:	00 00 00 00 
    4d9e:	66 66 2e 0f 1f 84 00 	data16 nopw %cs:0x0(%rax,%rax,1)
    4da5:	00 00 00 00 
    4da9:	66 66 2e 0f 1f 84 00 	data16 nopw %cs:0x0(%rax,%rax,1)
    4db0:	00 00 00 00 
    4db4:	66 66 2e 0f 1f 84 00 	data16 nopw %cs:0x0(%rax,%rax,1)
    4dbb:	00 00 00 00 
    4dbf:	66 66 2e 0f 1f 84 00 	data16 nopw %cs:0x0(%rax,%rax,1)
    4dc6:	00 00 00 00 
    4dca:	66 66 2e 0f 1f 84 00 	data16 nopw %cs:0x0(%rax,%rax,1)
    4dd1:	00 00 00 00 
    4dd5:	66 66 2e 0f 1f 84 00 	data16 nopw %cs:0x0(%rax,%rax,1)
    4ddc:	00 00 00 00 
    4de0:	66 66 2e 0f 1f 84 00 	data16 nopw %cs:0x0(%rax,%rax,1)
    4de7:	00 00 00 00 
    4deb:	66 66 2e 0f 1f 84 00 	data16 nopw %cs:0x0(%rax,%rax,1)
    4df2:	00 00 00 00 
    4df6:	66 66 2e 0f 1f 84 00 	data16 nopw %cs:0x0(%rax,%rax,1)
    4dfd:	00 00 00 00 
    4e01:	66 66 2e 0f 1f 84 00 	data16 nopw %cs:0x0(%rax,%rax,1)
    4e08:	00 00 00 00 
    4e0c:	66 66 2e 0f 1f 84 00 	data16 nopw %cs:0x0(%rax,%rax,1)
    4e13:	00 00 00 00 
    4e17:	66 66 2e 0f 1f 84 00 	data16 nopw %cs:0x0(%rax,%rax,1)
    4e1e:	00 00 00 00 
    4e22:	66 66 2e 0f 1f 84 00 	data16 nopw %cs:0x0(%rax,%rax,1)
    4e29:	00 00 00 00 
    4e2d:	66 66 2e 0f 1f 84 00 	data16 nopw %cs:0x0(%rax,%rax,1)
    4e34:	00 00 00 00 
    4e38:	66 66 2e 0f 1f 84 00 	data16 nopw %cs:0x0(%rax,%rax,1)
    4e3f:	00 00 00 00 
    4e43:	66 66 2e 0f 1f 84 00 	data16 nopw %cs:0x0(%rax,%rax,1)
    4e4a:	00 00 00 00 
    4e4e:	66 66 2e 0f 1f 84 00 	data16 nopw %cs:0x0(%rax,%rax,1)
    4e55:	00 00 00 00 
    4e59:	66 66 2e 0f 1f 84 00 	data16 nopw %cs:0x0(%rax,%rax,1)
    4e60:	00 00 00 00 
    4e64:	66 66 2e 0f 1f 84 00 	data16 nopw %cs:0x0(%rax,%rax,1)
    4e6b:	00 00 00 00 
    4e6f:	66 66 2e 0f 1f 84 00 	data16 nopw %cs:0x0(%rax,%rax,1)
    4e76:	00 00 00 00 
    4e7a:	66 66 2e 0f 1f 84 00 	data16 nopw %cs:0x0(%rax,%rax,1)
    4e81:	00 00 00 00 
    4e85:	66 66 2e 0f 1f 84 00 	data16 nopw %cs:0x0(%rax,%rax,1)
    4e8c:	00 00 00 00 
    4e90:	66 66 2e 0f 1f 84 00 	data16 nopw %cs:0x0(%rax,%rax,1)
    4e97:	00 00 00 00 
    4e9b:	66 66 2e 0f 1f 84 00 	data16 nopw %cs:0x0(%rax,%rax,1)
    4ea2:	00 00 00 00 
    4ea6:	66 66 2e 0f 1f 84 00 	data16 nopw %cs:0x0(%rax,%rax,1)
    4ead:	00 00 00 00 
    4eb1:	66 66 2e 0f 1f 84 00 	data16 nopw %cs:0x0(%rax,%rax,1)
    4eb8:	00 00 00 00 
    4ebc:	66 66 2e 0f 1f 84 00 	data16 nopw %cs:0x0(%rax,%rax,1)
    4ec3:	00 00 00 00 
    4ec7:	66 66 2e 0f 1f 84 00 	data16 nopw %cs:0x0(%rax,%rax,1)
    4ece:	00 00 00 00 
    4ed2:	66 66 2e 0f 1f 84 00 	data16 nopw %cs:0x0(%rax,%rax,1)
    4ed9:	00 00 00 00 
    4edd:	66 66 2e 0f 1f 84 00 	data16 nopw %cs:0x0(%rax,%rax,1)
    4ee4:	00 00 00 00 
    4ee8:	66 66 2e 0f 1f 84 00 	data16 nopw %cs:0x0(%rax,%rax,1)
    4eef:	00 00 00 00 
    4ef3:	66 66 2e 0f 1f 84 00 	data16 nopw %cs:0x0(%rax,%rax,1)
    4efa:	00 00 00 00 
    4efe:	66 66 2e 0f 1f 84 00 	data16 nopw %cs:0x0(%rax,%rax,1)
    4f05:	00 00 00 00 
    4f09:	66 66 2e 0f 1f 84 00 	data16 nopw %cs:0x0(%rax,%rax,1)
    4f10:	00 00 00 00 
    4f14:	66 66 2e 0f 1f 84 00 	data16 nopw %cs:0x0(%rax,%rax,1)
    4f1b:	00 00 00 00 
    4f1f:	66 66 2e 0f 1f 84 00 	data16 nopw %cs:0x0(%rax,%rax,1)
    4f26:	00 00 00 00 
    4f2a:	66 66 2e 0f 1f 84 00 	data16 nopw %cs:0x0(%rax,%rax,1)
    4f31:	00 00 00 00 
    4f35:	66 66 2e 0f 1f 84 00 	data16 nopw %cs:0x0(%rax,%rax,1)
    4f3c:	00 00 00 00 
    4f40:	66 66 2e 0f 1f 84 00 	data16 nopw %cs:0x0(%rax,%rax,1)
    4f47:	00 00 00 00 
    4f4b:	66 66 2e 0f 1f 84 00 	data16 nopw %cs:0x0(%rax,%rax,1)
    4f52:	00 00 00 00 
    4f56:	66 66 2e 0f 1f 84 00 	data16 nopw %cs:0x0(%rax,%rax,1)
    4f5d:	00 00 00 00 
    4f61:	66 66 2e 0f 1f 84 00 	data16 nopw %cs:0x0(%rax,%rax,1)
    4f68:	00 00 00 00 
    4f6c:	66 66 2e 0f 1f 84 00 	data16 nopw %cs:0x0(%rax,%rax,1)
    4f73:	00 00 00 00 
    4f77:	66 66 2e 0f 1f 84 00 	data16 nopw %cs:0x0(%rax,%rax,1)
    4f7e:	00 00 00 00 
    4f82:	66 66 2e 0f 1f 84 00 	data16 nopw %cs:0x0(%rax,%rax,1)
    4f89:	00 00 00 00 
    4f8d:	66 66 2e 0f 1f 84 00 	data16 nopw %cs:0x0(%rax,%rax,1)
    4f94:	00 00 00 00 
    4f98:	66 66 2e 0f 1f 84 00 	data16 nopw %cs:0x0(%rax,%rax,1)
    4f9f:	00 00 00 00 
    4fa3:	66 66 2e 0f 1f 84 00 	data16 nopw %cs:0x0(%rax,%rax,1)
    4faa:	00 00 00 00 
    4fae:	66 66 2e 0f 1f 84 00 	data16 nopw %cs:0x0(%rax,%rax,1)
    4fb5:	00 00 00 00 
    4fb9:	66 66 2e 0f 1f 84 00 	data16 nopw %cs:0x0(%rax,%rax,1)
    4fc0:	00 00 00 00 
    4fc4:	66 66 2e 0f 1f 84 00 	data16 nopw %cs:0x0(%rax,%rax,1)
    4fcb:	00 00 00 00 
    4fcf:	66 66 2e 0f 1f 84 00 	data16 nopw %cs:0x0(%rax,%rax,1)
    4fd6:	00 00 00 00 
    4fda:	66 66 2e 0f 1f 84 00 	data16 nopw %cs:0x0(%rax,%rax,1)
    4fe1:	00 00 00 00 
    4fe5:	66 66 2e 0f 1f 84 00 	data16 nopw %cs:0x0(%rax,%rax,1)
    4fec:	00 00 00 00 
    4ff0:	66 66 2e 0f 1f 84 00 	data16 nopw %cs:0x0(%rax,%rax,1)
    4ff7:	00 00 00 00 
    4ffb:	0f 1f 44 00 00       	nopl   0x0(%rax,%rax,1)

0000000000005000 <multiply>:
    5000:	48 89 f8             	mov    %rdi,%rax
    5003:	48 89 d1             	mov    %rdx,%rcx
    5006:	31 d2                	xor    %edx,%edx
    5008:	48 0f af c6          	imul   %rsi,%rax
    500c:	48 f7 f1             	div    %rcx
    500f:	48 89 d0             	mov    %rdx,%rax
    5012:	c3                   	retq   
	...

0000000000006013 <sgx_ecall_get_modpow_adrs>:
    6013:	48 85 ff             	test   %rdi,%rdi
    6016:	74 28                	je     6040 <sgx_ecall_get_modpow_adrs+0x2d>
    6018:	53                   	push   %rbx
    6019:	be 08 00 00 00       	mov    $0x8,%esi
    601e:	48 89 fb             	mov    %rdi,%rbx
    6021:	e8 ba 02 00 00       	callq  62e0 <sgx_is_outside_enclave>
    6026:	85 c0                	test   %eax,%eax
    6028:	75 07                	jne    6031 <sgx_ecall_get_modpow_adrs+0x1e>
    602a:	b8 02 00 00 00       	mov    $0x2,%eax
    602f:	eb 0d                	jmp    603e <sgx_ecall_get_modpow_adrs+0x2b>
    6031:	0f ae e8             	lfence 
    6034:	e8 51 c1 ff ff       	callq  218a <ecall_get_modpow_adrs>
    6039:	48 89 03             	mov    %rax,(%rbx)
    603c:	31 c0                	xor    %eax,%eax
    603e:	5b                   	pop    %rbx
    603f:	c3                   	retq   
    6040:	b8 02 00 00 00       	mov    $0x2,%eax
    6045:	c3                   	retq   

0000000000006046 <sgx_ecall_get_multiply_adrs>:
    6046:	48 85 ff             	test   %rdi,%rdi
    6049:	74 28                	je     6073 <sgx_ecall_get_multiply_adrs+0x2d>
    604b:	53                   	push   %rbx
    604c:	be 08 00 00 00       	mov    $0x8,%esi
    6051:	48 89 fb             	mov    %rdi,%rbx
    6054:	e8 87 02 00 00       	callq  62e0 <sgx_is_outside_enclave>
    6059:	85 c0                	test   %eax,%eax
    605b:	75 07                	jne    6064 <sgx_ecall_get_multiply_adrs+0x1e>
    605d:	b8 02 00 00 00       	mov    $0x2,%eax
    6062:	eb 0d                	jmp    6071 <sgx_ecall_get_multiply_adrs+0x2b>
    6064:	0f ae e8             	lfence 
    6067:	e8 16 c1 ff ff       	callq  2182 <ecall_get_multiply_adrs>
    606c:	48 89 03             	mov    %rax,(%rbx)
    606f:	31 c0                	xor    %eax,%eax
    6071:	5b                   	pop    %rbx
    6072:	c3                   	retq   
    6073:	b8 02 00 00 00       	mov    $0x2,%eax
    6078:	c3                   	retq   

0000000000006079 <sgx_ecall_get_square_adrs>:
    6079:	48 85 ff             	test   %rdi,%rdi
    607c:	74 28                	je     60a6 <sgx_ecall_get_square_adrs+0x2d>
    607e:	53                   	push   %rbx
    607f:	be 08 00 00 00       	mov    $0x8,%esi
    6084:	48 89 fb             	mov    %rdi,%rbx
    6087:	e8 54 02 00 00       	callq  62e0 <sgx_is_outside_enclave>
    608c:	85 c0                	test   %eax,%eax
    608e:	75 07                	jne    6097 <sgx_ecall_get_square_adrs+0x1e>
    6090:	b8 02 00 00 00       	mov    $0x2,%eax
    6095:	eb 0d                	jmp    60a4 <sgx_ecall_get_square_adrs+0x2b>
    6097:	0f ae e8             	lfence 
    609a:	e8 db c0 ff ff       	callq  217a <ecall_get_square_adrs>
    609f:	48 89 03             	mov    %rax,(%rbx)
    60a2:	31 c0                	xor    %eax,%eax
    60a4:	5b                   	pop    %rbx
    60a5:	c3                   	retq   
    60a6:	b8 02 00 00 00       	mov    $0x2,%eax
    60ab:	c3                   	retq   

00000000000060ac <sgx_ecall_rsa_decode>:
    60ac:	48 85 ff             	test   %rdi,%rdi
    60af:	74 2a                	je     60db <sgx_ecall_rsa_decode+0x2f>
    60b1:	53                   	push   %rbx
    60b2:	be 08 00 00 00       	mov    $0x8,%esi
    60b7:	48 89 fb             	mov    %rdi,%rbx
    60ba:	e8 21 02 00 00       	callq  62e0 <sgx_is_outside_enclave>
    60bf:	85 c0                	test   %eax,%eax
    60c1:	75 07                	jne    60ca <sgx_ecall_rsa_decode+0x1e>
    60c3:	b8 02 00 00 00       	mov    $0x2,%eax
    60c8:	eb 0f                	jmp    60d9 <sgx_ecall_rsa_decode+0x2d>
    60ca:	0f ae e8             	lfence 
    60cd:	8b 7b 04             	mov    0x4(%rbx),%edi
    60d0:	e8 0e c0 ff ff       	callq  20e3 <ecall_rsa_decode>
    60d5:	89 03                	mov    %eax,(%rbx)
    60d7:	31 c0                	xor    %eax,%eax
    60d9:	5b                   	pop    %rbx
    60da:	c3                   	retq   
    60db:	b8 02 00 00 00       	mov    $0x2,%eax
    60e0:	c3                   	retq   

00000000000060e1 <sgx_ecall_rsa_encode>:
    60e1:	48 85 ff             	test   %rdi,%rdi
    60e4:	74 2a                	je     6110 <sgx_ecall_rsa_encode+0x2f>
    60e6:	53                   	push   %rbx
    60e7:	be 08 00 00 00       	mov    $0x8,%esi
    60ec:	48 89 fb             	mov    %rdi,%rbx
    60ef:	e8 ec 01 00 00       	callq  62e0 <sgx_is_outside_enclave>
    60f4:	85 c0                	test   %eax,%eax
    60f6:	75 07                	jne    60ff <sgx_ecall_rsa_encode+0x1e>
    60f8:	b8 02 00 00 00       	mov    $0x2,%eax
    60fd:	eb 0f                	jmp    610e <sgx_ecall_rsa_encode+0x2d>
    60ff:	0f ae e8             	lfence 
    6102:	8b 7b 04             	mov    0x4(%rbx),%edi
    6105:	e8 5a c0 ff ff       	callq  2164 <ecall_rsa_encode>
    610a:	89 03                	mov    %eax,(%rbx)
    610c:	31 c0                	xor    %eax,%eax
    610e:	5b                   	pop    %rbx
    610f:	c3                   	retq   
    6110:	b8 02 00 00 00       	mov    $0x2,%eax
    6115:	c3                   	retq   
    6116:	66 2e 0f 1f 84 00 00 	nopw   %cs:0x0(%rax,%rax,1)
    611d:	00 00 00 

0000000000006120 <init_optimized_libs>:
    6120:	48 8d 05 79 bf 00 00 	lea    0xbf79(%rip),%rax        # 120a0 <g_enclave_state>
    6127:	83 38 01             	cmpl   $0x1,(%rax)
    612a:	0f 85 50 01 00 00    	jne    6280 <init_optimized_libs+0x160>
    6130:	55                   	push   %rbp
    6131:	53                   	push   %rbx
    6132:	48 b8 00 00 00 00 00 	movabs $0xff00000000000000,%rax
    6139:	00 00 ff 
    613c:	48 89 f5             	mov    %rsi,%rbp
    613f:	48 83 ec 08          	sub    $0x8,%rsp
    6143:	48 85 c7             	test   %rax,%rdi
    6146:	0f 85 d4 00 00 00    	jne    6220 <init_optimized_libs+0x100>
    614c:	48 f7 c7 00 fe ff ff 	test   $0xfffffffffffffe00,%rdi
    6153:	0f 84 ef 00 00 00    	je     6248 <init_optimized_libs+0x128>
    6159:	40 f6 c7 20          	test   $0x20,%dil
    615d:	74 10                	je     616f <init_optimized_libs+0x4f>
    615f:	48 89 f8             	mov    %rdi,%rax
    6162:	83 e0 1f             	and    $0x1f,%eax
    6165:	48 83 f8 1f          	cmp    $0x1f,%rax
    6169:	0f 85 d9 00 00 00    	jne    6248 <init_optimized_libs+0x128>
    616f:	40 f6 c7 40          	test   $0x40,%dil
    6173:	74 10                	je     6185 <init_optimized_libs+0x65>
    6175:	48 89 f8             	mov    %rdi,%rax
    6178:	83 e0 3f             	and    $0x3f,%eax
    617b:	48 83 f8 3f          	cmp    $0x3f,%rax
    617f:	0f 85 c3 00 00 00    	jne    6248 <init_optimized_libs+0x128>
    6185:	40 f6 c7 80          	test   $0x80,%dil
    6189:	74 10                	je     619b <init_optimized_libs+0x7b>
    618b:	48 89 f8             	mov    %rdi,%rax
    618e:	83 e0 7f             	and    $0x7f,%eax
    6191:	48 83 f8 7f          	cmp    $0x7f,%rax
    6195:	0f 85 ad 00 00 00    	jne    6248 <init_optimized_libs+0x128>
    619b:	f7 c7 00 01 00 00    	test   $0x100,%edi
    61a1:	74 10                	je     61b3 <init_optimized_libs+0x93>
    61a3:	40 0f b6 c7          	movzbl %dil,%eax
    61a7:	48 3d ff 00 00 00    	cmp    $0xff,%rax
    61ad:	0f 85 95 00 00 00    	jne    6248 <init_optimized_libs+0x128>
    61b3:	f7 c7 00 02 00 00    	test   $0x200,%edi
    61b9:	74 10                	je     61cb <init_optimized_libs+0xab>
    61bb:	48 89 f8             	mov    %rdi,%rax
    61be:	25 ff 01 00 00       	and    $0x1ff,%eax
    61c3:	48 3d ff 01 00 00    	cmp    $0x1ff,%rax
    61c9:	75 7d                	jne    6248 <init_optimized_libs+0x128>
    61cb:	f7 c7 00 04 00 00    	test   $0x400,%edi
    61d1:	75 65                	jne    6238 <init_optimized_libs+0x118>
    61d3:	48 89 d0             	mov    %rdx,%rax
    61d6:	83 e0 06             	and    $0x6,%eax
    61d9:	48 83 f8 06          	cmp    $0x6,%rax
    61dd:	74 79                	je     6258 <init_optimized_libs+0x138>
    61df:	48 b8 ff 7f 12 86 08 	movabs $0xfffe200886127fff,%rax
    61e6:	20 fe ff 
    61e9:	48 21 c7             	and    %rax,%rdi
    61ec:	48 8d 1d 3d bc 00 00 	lea    0xbc3d(%rip),%rbx        # 11e30 <g_cpu_feature_indicator>
    61f3:	48 89 3b             	mov    %rdi,(%rbx)
    61f6:	e8 a5 6b 00 00       	callq  cda0 <sgx_init_string_lib>
    61fb:	85 c0                	test   %eax,%eax
    61fd:	75 49                	jne    6248 <init_optimized_libs+0x128>
    61ff:	48 8b 3b             	mov    (%rbx),%rdi
    6202:	48 89 ee             	mov    %rbp,%rsi
    6205:	e8 a6 6d 00 00       	callq  cfb0 <sgx_init_crypto_lib>
    620a:	85 c0                	test   %eax,%eax
    620c:	0f 95 c0             	setne  %al
    620f:	48 83 c4 08          	add    $0x8,%rsp
    6213:	0f b6 c0             	movzbl %al,%eax
    6216:	f7 d8                	neg    %eax
    6218:	5b                   	pop    %rbx
    6219:	5d                   	pop    %rbp
    621a:	c3                   	retq   
    621b:	0f 1f 44 00 00       	nopl   0x0(%rax,%rax,1)
    6220:	48 b8 ff ff ff ff ff 	movabs $0xffffffffffffff,%rax
    6227:	ff ff 00 
    622a:	48 21 c7             	and    %rax,%rdi
    622d:	e9 1a ff ff ff       	jmpq   614c <init_optimized_libs+0x2c>
    6232:	66 0f 1f 44 00 00    	nopw   0x0(%rax,%rax,1)
    6238:	48 89 f8             	mov    %rdi,%rax
    623b:	25 ff 03 00 00       	and    $0x3ff,%eax
    6240:	48 3d ff 03 00 00    	cmp    $0x3ff,%rax
    6246:	74 8b                	je     61d3 <init_optimized_libs+0xb3>
    6248:	48 83 c4 08          	add    $0x8,%rsp
    624c:	b8 ff ff ff ff       	mov    $0xffffffff,%eax
    6251:	5b                   	pop    %rbx
    6252:	5d                   	pop    %rbp
    6253:	c3                   	retq   
    6254:	0f 1f 40 00          	nopl   0x0(%rax)
    6258:	81 e2 e0 00 00 00    	and    $0xe0,%edx
    625e:	48 81 fa e0 00 00 00 	cmp    $0xe0,%rdx
    6265:	74 85                	je     61ec <init_optimized_libs+0xcc>
    6267:	48 b8 ff ff ff b6 18 	movabs $0xfffee018b6ffffff,%rax
    626e:	e0 fe ff 
    6271:	48 21 c7             	and    %rax,%rdi
    6274:	e9 73 ff ff ff       	jmpq   61ec <init_optimized_libs+0xcc>
    6279:	0f 1f 80 00 00 00 00 	nopl   0x0(%rax)
    6280:	b8 ff ff ff ff       	mov    $0xffffffff,%eax
    6285:	c3                   	retq   
    6286:	66 2e 0f 1f 84 00 00 	nopw   %cs:0x0(%rax,%rax,1)
    628d:	00 00 00 

0000000000006290 <sgx_is_within_enclave>:
    6290:	48 8d 05 29 7e 00 00 	lea    0x7e29(%rip),%rax        # e0c0 <g_global_data>
    6297:	48 8d 0d 62 9d ff ff 	lea    -0x629e(%rip),%rcx        # 0 <__ImageBase>
    629e:	48 85 f6             	test   %rsi,%rsi
    62a1:	48 8b 40 08          	mov    0x8(%rax),%rax
    62a5:	4c 8d 44 08 ff       	lea    -0x1(%rax,%rcx,1),%r8
    62aa:	74 24                	je     62d0 <sgx_is_within_enclave+0x40>
    62ac:	48 83 ee 01          	sub    $0x1,%rsi
    62b0:	48 01 fe             	add    %rdi,%rsi
    62b3:	0f 93 c2             	setae  %dl
    62b6:	48 39 cf             	cmp    %rcx,%rdi
    62b9:	0f 93 c0             	setae  %al
    62bc:	21 c2                	and    %eax,%edx
    62be:	31 c0                	xor    %eax,%eax
    62c0:	4c 39 c6             	cmp    %r8,%rsi
    62c3:	0f 96 c0             	setbe  %al
    62c6:	21 d0                	and    %edx,%eax
    62c8:	c3                   	retq   
    62c9:	0f 1f 80 00 00 00 00 	nopl   0x0(%rax)
    62d0:	48 89 fe             	mov    %rdi,%rsi
    62d3:	ba 01 00 00 00       	mov    $0x1,%edx
    62d8:	eb dc                	jmp    62b6 <sgx_is_within_enclave+0x26>
    62da:	66 0f 1f 44 00 00    	nopw   0x0(%rax,%rax,1)

00000000000062e0 <sgx_is_outside_enclave>:
    62e0:	48 8d 05 d9 7d 00 00 	lea    0x7dd9(%rip),%rax        # e0c0 <g_global_data>
    62e7:	48 85 f6             	test   %rsi,%rsi
    62ea:	48 8b 40 08          	mov    0x8(%rax),%rax
    62ee:	74 10                	je     6300 <sgx_is_outside_enclave+0x20>
    62f0:	48 83 ee 01          	sub    $0x1,%rsi
    62f4:	48 01 fe             	add    %rdi,%rsi
    62f7:	73 0a                	jae    6303 <sgx_is_outside_enclave+0x23>
    62f9:	31 c0                	xor    %eax,%eax
    62fb:	c3                   	retq   
    62fc:	0f 1f 40 00          	nopl   0x0(%rax)
    6300:	48 89 fe             	mov    %rdi,%rsi
    6303:	48 8d 15 f6 9c ff ff 	lea    -0x630a(%rip),%rdx        # 0 <__ImageBase>
    630a:	48 8d 44 10 ff       	lea    -0x1(%rax,%rdx,1),%rax
    630f:	48 39 c7             	cmp    %rax,%rdi
    6312:	0f 97 c0             	seta   %al
    6315:	48 39 f2             	cmp    %rsi,%rdx
    6318:	0f 97 c2             	seta   %dl
    631b:	09 d0                	or     %edx,%eax
    631d:	0f b6 c0             	movzbl %al,%eax
    6320:	c3                   	retq   
    6321:	66 2e 0f 1f 84 00 00 	nopw   %cs:0x0(%rax,%rax,1)
    6328:	00 00 00 
    632b:	0f 1f 44 00 00       	nopl   0x0(%rax,%rax,1)

0000000000006330 <sgx_ocalloc>:
    6330:	53                   	push   %rbx
    6331:	48 89 fb             	mov    %rdi,%rbx
    6334:	48 83 ec 10          	sub    $0x10,%rsp
    6338:	e8 c4 76 00 00       	callq  da01 <get_thread_data>
    633d:	4c 8d 05 7c 7d 00 00 	lea    0x7d7c(%rip),%r8        # e0c0 <g_global_data>
    6344:	48 8b 70 20          	mov    0x20(%rax),%rsi
    6348:	48 8d 3d b1 9c ff ff 	lea    -0x634f(%rip),%rdi        # 0 <__ImageBase>
    634f:	49 8b 40 08          	mov    0x8(%r8),%rax
    6353:	48 8b 96 90 00 00 00 	mov    0x90(%rsi),%rdx
    635a:	48 8d 4c 07 ff       	lea    -0x1(%rdi,%rax,1),%rcx
    635f:	48 89 d0             	mov    %rdx,%rax
    6362:	48 83 c0 07          	add    $0x7,%rax
    6366:	0f 82 ad 00 00 00    	jb     6419 <sgx_ocalloc+0xe9>
    636c:	48 39 c7             	cmp    %rax,%rdi
    636f:	77 09                	ja     637a <sgx_ocalloc+0x4a>
    6371:	48 39 ca             	cmp    %rcx,%rdx
    6374:	0f 86 9f 00 00 00    	jbe    6419 <sgx_ocalloc+0xe9>
    637a:	48 39 da             	cmp    %rbx,%rdx
    637d:	0f 82 96 00 00 00    	jb     6419 <sgx_ocalloc+0xe9>
    6383:	48 89 d1             	mov    %rdx,%rcx
    6386:	4d 8b 40 08          	mov    0x8(%r8),%r8
    638a:	48 29 d9             	sub    %rbx,%rcx
    638d:	48 89 c8             	mov    %rcx,%rax
    6390:	48 83 e0 f0          	and    $0xfffffffffffffff0,%rax
    6394:	48 85 db             	test   %rbx,%rbx
    6397:	4e 8d 44 07 ff       	lea    -0x1(%rdi,%r8,1),%r8
    639c:	75 72                	jne    6410 <sgx_ocalloc+0xe0>
    639e:	48 89 c3             	mov    %rax,%rbx
    63a1:	48 39 df             	cmp    %rbx,%rdi
    63a4:	77 05                	ja     63ab <sgx_ocalloc+0x7b>
    63a6:	4c 39 c0             	cmp    %r8,%rax
    63a9:	76 6e                	jbe    6419 <sgx_ocalloc+0xe9>
    63ab:	48 83 ea 01          	sub    $0x1,%rdx
    63af:	48 81 e2 00 f0 ff ff 	and    $0xfffffffffffff000,%rdx
    63b6:	48 81 e1 00 f0 ff ff 	and    $0xfffffffffffff000,%rcx
    63bd:	74 5a                	je     6419 <sgx_ocalloc+0xe9>
    63bf:	48 89 54 24 08       	mov    %rdx,0x8(%rsp)
    63c4:	48 8b 54 24 08       	mov    0x8(%rsp),%rdx
    63c9:	48 39 d1             	cmp    %rdx,%rcx
    63cc:	77 31                	ja     63ff <sgx_ocalloc+0xcf>
    63ce:	66 90                	xchg   %ax,%ax
    63d0:	48 8b 54 24 08       	mov    0x8(%rsp),%rdx
    63d5:	48 89 96 90 00 00 00 	mov    %rdx,0x90(%rsi)
    63dc:	48 8b 54 24 08       	mov    0x8(%rsp),%rdx
    63e1:	c6 02 00             	movb   $0x0,(%rdx)
    63e4:	48 8b 54 24 08       	mov    0x8(%rsp),%rdx
    63e9:	48 81 ea 00 10 00 00 	sub    $0x1000,%rdx
    63f0:	48 89 54 24 08       	mov    %rdx,0x8(%rsp)
    63f5:	48 8b 54 24 08       	mov    0x8(%rsp),%rdx
    63fa:	48 39 ca             	cmp    %rcx,%rdx
    63fd:	73 d1                	jae    63d0 <sgx_ocalloc+0xa0>
    63ff:	48 89 86 90 00 00 00 	mov    %rax,0x90(%rsi)
    6406:	48 83 c4 10          	add    $0x10,%rsp
    640a:	5b                   	pop    %rbx
    640b:	c3                   	retq   
    640c:	0f 1f 40 00          	nopl   0x0(%rax)
    6410:	48 83 eb 01          	sub    $0x1,%rbx
    6414:	48 01 c3             	add    %rax,%rbx
    6417:	73 88                	jae    63a1 <sgx_ocalloc+0x71>
    6419:	e8 12 79 00 00       	callq  dd30 <abort>
    641e:	66 90                	xchg   %ax,%ax

0000000000006420 <sgx_ocfree>:
    6420:	48 83 ec 08          	sub    $0x8,%rsp
    6424:	e8 d8 75 00 00       	callq  da01 <get_thread_data>
    6429:	48 8d 0d 90 7c 00 00 	lea    0x7c90(%rip),%rcx        # e0c0 <g_global_data>
    6430:	48 8b 70 20          	mov    0x20(%rax),%rsi
    6434:	48 8b 40 08          	mov    0x8(%rax),%rax
    6438:	48 8d 15 c1 9b ff ff 	lea    -0x643f(%rip),%rdx        # 0 <__ImageBase>
    643f:	48 8b 49 08          	mov    0x8(%rcx),%rcx
    6443:	48 8b 40 e8          	mov    -0x18(%rax),%rax
    6447:	48 8d 7c 0a ff       	lea    -0x1(%rdx,%rcx,1),%rdi
    644c:	48 89 c1             	mov    %rax,%rcx
    644f:	48 83 c1 07          	add    $0x7,%rcx
    6453:	72 16                	jb     646b <sgx_ocfree+0x4b>
    6455:	48 39 ca             	cmp    %rcx,%rdx
    6458:	77 05                	ja     645f <sgx_ocfree+0x3f>
    645a:	48 39 f8             	cmp    %rdi,%rax
    645d:	76 0c                	jbe    646b <sgx_ocfree+0x4b>
    645f:	48 89 86 90 00 00 00 	mov    %rax,0x90(%rsi)
    6466:	48 83 c4 08          	add    $0x8,%rsp
    646a:	c3                   	retq   
    646b:	e8 c0 78 00 00       	callq  dd30 <abort>

0000000000006470 <sgx_read_rand>:
    6470:	41 56                	push   %r14
    6472:	41 55                	push   %r13
    6474:	41 54                	push   %r12
    6476:	55                   	push   %rbp
    6477:	53                   	push   %rbx
    6478:	48 83 ec 10          	sub    $0x10,%rsp
    647c:	64 48 8b 04 25 28 00 	mov    %fs:0x28,%rax
    6483:	00 00 
    6485:	48 89 44 24 08       	mov    %rax,0x8(%rsp)
    648a:	31 c0                	xor    %eax,%eax
    648c:	48 85 ff             	test   %rdi,%rdi
    648f:	0f 84 cb 00 00 00    	je     6560 <sgx_read_rand+0xf0>
    6495:	48 85 f6             	test   %rsi,%rsi
    6498:	48 89 f3             	mov    %rsi,%rbx
    649b:	0f 84 bf 00 00 00    	je     6560 <sgx_read_rand+0xf0>
    64a1:	48 8d 43 ff          	lea    -0x1(%rbx),%rax
    64a5:	49 89 fc             	mov    %rdi,%r12
    64a8:	48 8d 35 11 7c 00 00 	lea    0x7c11(%rip),%rsi        # e0c0 <g_global_data>
    64af:	48 8d 0d 4a 9b ff ff 	lea    -0x64b6(%rip),%rcx        # 0 <__ImageBase>
    64b6:	4c 01 e0             	add    %r12,%rax
    64b9:	41 0f 92 c0          	setb   %r8b
    64bd:	48 8b 7e 08          	mov    0x8(%rsi),%rdi
    64c1:	48 89 c2             	mov    %rax,%rdx
    64c4:	45 0f b6 c0          	movzbl %r8b,%r8d
    64c8:	0f 82 da 00 00 00    	jb     65a8 <sgx_read_rand+0x138>
    64ce:	49 39 cc             	cmp    %rcx,%r12
    64d1:	0f 82 d1 00 00 00    	jb     65a8 <sgx_read_rand+0x138>
    64d7:	48 8d 44 39 ff       	lea    -0x1(%rcx,%rdi,1),%rax
    64dc:	48 39 d0             	cmp    %rdx,%rax
    64df:	0f 82 9b 00 00 00    	jb     6580 <sgx_read_rand+0x110>
    64e5:	4c 8d 6c 24 04       	lea    0x4(%rsp),%r13
    64ea:	c7 44 24 04 00 00 00 	movl   $0x0,0x4(%rsp)
    64f1:	00 
    64f2:	41 be 04 00 00 00    	mov    $0x4,%r14d
    64f8:	0f 1f 84 00 00 00 00 	nopl   0x0(%rax,%rax,1)
    64ff:	00 
    6500:	4c 89 ef             	mov    %r13,%rdi
    6503:	e8 09 78 00 00       	callq  dd11 <do_rdrand>
    6508:	85 c0                	test   %eax,%eax
    650a:	74 64                	je     6570 <sgx_read_rand+0x100>
    650c:	48 83 fb 04          	cmp    $0x4,%rbx
    6510:	4c 89 f5             	mov    %r14,%rbp
    6513:	4c 89 e7             	mov    %r12,%rdi
    6516:	48 0f 46 eb          	cmovbe %rbx,%rbp
    651a:	4c 89 ee             	mov    %r13,%rsi
    651d:	48 89 ea             	mov    %rbp,%rdx
    6520:	49 01 ec             	add    %rbp,%r12
    6523:	e8 58 66 00 00       	callq  cb80 <memcpy>
    6528:	48 29 eb             	sub    %rbp,%rbx
    652b:	75 d3                	jne    6500 <sgx_read_rand+0x90>
    652d:	b9 04 00 00 00       	mov    $0x4,%ecx
    6532:	31 d2                	xor    %edx,%edx
    6534:	be 04 00 00 00       	mov    $0x4,%esi
    6539:	4c 89 ef             	mov    %r13,%rdi
    653c:	e8 9f 66 00 00       	callq  cbe0 <memset_s>
    6541:	31 c0                	xor    %eax,%eax
    6543:	48 8b 4c 24 08       	mov    0x8(%rsp),%rcx
    6548:	64 48 33 0c 25 28 00 	xor    %fs:0x28,%rcx
    654f:	00 00 
    6551:	75 6a                	jne    65bd <sgx_read_rand+0x14d>
    6553:	48 83 c4 10          	add    $0x10,%rsp
    6557:	5b                   	pop    %rbx
    6558:	5d                   	pop    %rbp
    6559:	41 5c                	pop    %r12
    655b:	41 5d                	pop    %r13
    655d:	41 5e                	pop    %r14
    655f:	c3                   	retq   
    6560:	b8 02 00 00 00       	mov    $0x2,%eax
    6565:	eb dc                	jmp    6543 <sgx_read_rand+0xd3>
    6567:	66 0f 1f 84 00 00 00 	nopw   0x0(%rax,%rax,1)
    656e:	00 00 
    6570:	b8 01 00 00 00       	mov    $0x1,%eax
    6575:	eb cc                	jmp    6543 <sgx_read_rand+0xd3>
    6577:	66 0f 1f 84 00 00 00 	nopw   0x0(%rax,%rax,1)
    657e:	00 00 
    6580:	48 8b 46 08          	mov    0x8(%rsi),%rax
    6584:	48 8d 74 01 ff       	lea    -0x1(%rcx,%rax,1),%rsi
    6589:	48 39 d1             	cmp    %rdx,%rcx
    658c:	0f 87 53 ff ff ff    	ja     64e5 <sgx_read_rand+0x75>
    6592:	49 39 f4             	cmp    %rsi,%r12
    6595:	b8 02 00 00 00       	mov    $0x2,%eax
    659a:	0f 87 45 ff ff ff    	ja     64e5 <sgx_read_rand+0x75>
    65a0:	eb a1                	jmp    6543 <sgx_read_rand+0xd3>
    65a2:	66 0f 1f 44 00 00    	nopw   0x0(%rax,%rax,1)
    65a8:	4d 85 c0             	test   %r8,%r8
    65ab:	48 8b 76 08          	mov    0x8(%rsi),%rsi
    65af:	b8 02 00 00 00       	mov    $0x2,%eax
    65b4:	75 8d                	jne    6543 <sgx_read_rand+0xd3>
    65b6:	48 8d 74 31 ff       	lea    -0x1(%rcx,%rsi,1),%rsi
    65bb:	eb cc                	jmp    6589 <sgx_read_rand+0x119>
    65bd:	e8 4e 2e 00 00       	callq  9410 <__stack_chk_fail>
    65c2:	66 2e 0f 1f 84 00 00 	nopw   %cs:0x0(%rax,%rax,1)
    65c9:	00 00 00 
    65cc:	0f 1f 40 00          	nopl   0x0(%rax)

00000000000065d0 <check_static_stack_canary>:
    65d0:	48 8d 05 41 b8 00 00 	lea    0xb841(%rip),%rax        # 11e18 <__intel_security_cookie>
    65d7:	48 8b 00             	mov    (%rax),%rax
    65da:	48 39 87 58 fd fe ff 	cmp    %rax,-0x102a8(%rdi)
    65e1:	0f 95 c0             	setne  %al
    65e4:	0f b6 c0             	movzbl %al,%eax
    65e7:	f7 d8                	neg    %eax
    65e9:	c3                   	retq   
    65ea:	66 0f 1f 44 00 00    	nopw   0x0(%rax,%rax,1)

00000000000065f0 <_ZL19sgx_accept_backwardmmm>:
    65f0:	4c 8d 54 24 08       	lea    0x8(%rsp),%r10
    65f5:	48 83 e4 c0          	and    $0xffffffffffffffc0,%rsp
    65f9:	41 ff 72 f8          	pushq  -0x8(%r10)
    65fd:	55                   	push   %rbp
    65fe:	48 89 e5             	mov    %rsp,%rbp
    6601:	41 55                	push   %r13
    6603:	41 54                	push   %r12
    6605:	41 52                	push   %r10
    6607:	53                   	push   %rbx
    6608:	48 81 ec 90 00 00 00 	sub    $0x90,%rsp
    660f:	48 89 bd 50 ff ff ff 	mov    %rdi,-0xb0(%rbp)
    6616:	48 c7 85 58 ff ff ff 	movq   $0x0,-0xa8(%rbp)
    661d:	00 00 00 00 
    6621:	64 48 8b 04 25 28 00 	mov    %fs:0x28,%rax
    6628:	00 00 
    662a:	48 89 45 c8          	mov    %rax,-0x38(%rbp)
    662e:	31 c0                	xor    %eax,%eax
    6630:	48 39 f2             	cmp    %rsi,%rdx
    6633:	48 c7 85 60 ff ff ff 	movq   $0x0,-0xa0(%rbp)
    663a:	00 00 00 00 
    663e:	48 c7 85 68 ff ff ff 	movq   $0x0,-0x98(%rbp)
    6645:	00 00 00 00 
    6649:	48 c7 85 70 ff ff ff 	movq   $0x0,-0x90(%rbp)
    6650:	00 00 00 00 
    6654:	48 c7 85 78 ff ff ff 	movq   $0x0,-0x88(%rbp)
    665b:	00 00 00 00 
    665f:	48 c7 45 80 00 00 00 	movq   $0x0,-0x80(%rbp)
    6666:	00 
    6667:	48 c7 45 88 00 00 00 	movq   $0x0,-0x78(%rbp)
    666e:	00 
    666f:	76 2a                	jbe    669b <_ZL19sgx_accept_backwardmmm+0xab>
    6671:	4c 8d ad 50 ff ff ff 	lea    -0xb0(%rbp),%r13
    6678:	49 89 f4             	mov    %rsi,%r12
    667b:	48 89 d3             	mov    %rdx,%rbx
    667e:	66 90                	xchg   %ax,%ax
    6680:	48 81 eb 00 10 00 00 	sub    $0x1000,%rbx
    6687:	4c 89 ef             	mov    %r13,%rdi
    668a:	48 89 de             	mov    %rbx,%rsi
    668d:	e8 50 76 00 00       	callq  dce2 <do_eaccept>
    6692:	85 c0                	test   %eax,%eax
    6694:	75 2a                	jne    66c0 <_ZL19sgx_accept_backwardmmm+0xd0>
    6696:	49 39 dc             	cmp    %rbx,%r12
    6699:	72 e5                	jb     6680 <_ZL19sgx_accept_backwardmmm+0x90>
    669b:	31 c0                	xor    %eax,%eax
    669d:	48 8b 4d c8          	mov    -0x38(%rbp),%rcx
    66a1:	64 48 33 0c 25 28 00 	xor    %fs:0x28,%rcx
    66a8:	00 00 
    66aa:	75 19                	jne    66c5 <_ZL19sgx_accept_backwardmmm+0xd5>
    66ac:	48 81 c4 90 00 00 00 	add    $0x90,%rsp
    66b3:	5b                   	pop    %rbx
    66b4:	41 5a                	pop    %r10
    66b6:	41 5c                	pop    %r12
    66b8:	41 5d                	pop    %r13
    66ba:	5d                   	pop    %rbp
    66bb:	49 8d 62 f8          	lea    -0x8(%r10),%rsp
    66bf:	c3                   	retq   
    66c0:	e8 6b 76 00 00       	callq  dd30 <abort>
    66c5:	e8 46 2d 00 00       	callq  9410 <__stack_chk_fail>
    66ca:	66 0f 1f 44 00 00    	nopw   0x0(%rax,%rax,1)

00000000000066d0 <_ZL25check_dynamic_entry_rangePvmtmP24dynamic_flags_attributes.part.0>:
    66d0:	41 57                	push   %r15
    66d2:	41 56                	push   %r14
    66d4:	41 55                	push   %r13
    66d6:	41 54                	push   %r12
    66d8:	55                   	push   %rbp
    66d9:	53                   	push   %rbx
    66da:	48 83 ec 08          	sub    $0x8,%rsp
    66de:	48 8d 2d db 79 00 00 	lea    0x79db(%rip),%rbp        # e0c0 <g_global_data>
    66e5:	8b 85 30 01 00 00    	mov    0x130(%rbp),%eax
    66eb:	85 c0                	test   %eax,%eax
    66ed:	74 46                	je     6735 <_ZL25check_dynamic_entry_rangePvmtmP24dynamic_flags_attributes.part.0+0x65>
    66ef:	0f b7 85 38 01 00 00 	movzwl 0x138(%rbp),%eax
    66f6:	66 39 c2             	cmp    %ax,%dx
    66f9:	0f 84 e1 00 00 00    	je     67e0 <_ZL25check_dynamic_entry_rangePvmtmP24dynamic_flags_attributes.part.0+0x110>
    66ff:	41 89 d1             	mov    %edx,%r9d
    6702:	31 db                	xor    %ebx,%ebx
    6704:	eb 22                	jmp    6728 <_ZL25check_dynamic_entry_rangePvmtmP24dynamic_flags_attributes.part.0+0x58>
    6706:	66 2e 0f 1f 84 00 00 	nopw   %cs:0x0(%rax,%rax,1)
    670d:	00 00 00 
    6710:	89 d8                	mov    %ebx,%eax
    6712:	48 c1 e0 05          	shl    $0x5,%rax
    6716:	48 8d 54 05 00       	lea    0x0(%rbp,%rax,1),%rdx
    671b:	0f b7 92 38 01 00 00 	movzwl 0x138(%rdx),%edx
    6722:	66 44 39 ca          	cmp    %r9w,%dx
    6726:	74 28                	je     6750 <_ZL25check_dynamic_entry_rangePvmtmP24dynamic_flags_attributes.part.0+0x80>
    6728:	8b 85 30 01 00 00    	mov    0x130(%rbp),%eax
    672e:	83 c3 01             	add    $0x1,%ebx
    6731:	39 d8                	cmp    %ebx,%eax
    6733:	77 db                	ja     6710 <_ZL25check_dynamic_entry_rangePvmtmP24dynamic_flags_attributes.part.0+0x40>
    6735:	b8 ff ff ff ff       	mov    $0xffffffff,%eax
    673a:	48 83 c4 08          	add    $0x8,%rsp
    673e:	5b                   	pop    %rbx
    673f:	5d                   	pop    %rbp
    6740:	41 5c                	pop    %r12
    6742:	41 5d                	pop    %r13
    6744:	41 5e                	pop    %r14
    6746:	41 5f                	pop    %r15
    6748:	c3                   	retq   
    6749:	0f 1f 80 00 00 00 00 	nopl   0x0(%rax)
    6750:	48 05 38 01 00 00    	add    $0x138,%rax
    6756:	48 01 e8             	add    %rbp,%rax
    6759:	74 da                	je     6735 <_ZL25check_dynamic_entry_rangePvmtmP24dynamic_flags_attributes.part.0+0x65>
    675b:	4d 89 c6             	mov    %r8,%r14
    675e:	49 89 cd             	mov    %rcx,%r13
    6761:	49 89 ff             	mov    %rdi,%r15
    6764:	49 89 f4             	mov    %rsi,%r12
    6767:	e8 5a 72 00 00       	callq  d9c6 <get_enclave_base>
    676c:	49 89 d8             	mov    %rbx,%r8
    676f:	49 c1 e0 05          	shl    $0x5,%r8
    6773:	49 01 e8             	add    %rbp,%r8
    6776:	49 8b 90 40 01 00 00 	mov    0x140(%r8),%rdx
    677d:	4c 01 ea             	add    %r13,%rdx
    6780:	48 01 d0             	add    %rdx,%rax
    6783:	41 8b 90 3c 01 00 00 	mov    0x13c(%r8),%edx
    678a:	4c 39 f8             	cmp    %r15,%rax
    678d:	77 a6                	ja     6735 <_ZL25check_dynamic_entry_rangePvmtmP24dynamic_flags_attributes.part.0+0x65>
    678f:	4c 89 e6             	mov    %r12,%rsi
    6792:	48 c1 e2 0c          	shl    $0xc,%rdx
    6796:	48 c1 e6 0c          	shl    $0xc,%rsi
    679a:	48 01 c2             	add    %rax,%rdx
    679d:	4a 8d 3c 3e          	lea    (%rsi,%r15,1),%rdi
    67a1:	48 39 d7             	cmp    %rdx,%rdi
    67a4:	77 8f                	ja     6735 <_ZL25check_dynamic_entry_rangePvmtmP24dynamic_flags_attributes.part.0+0x65>
    67a6:	31 c0                	xor    %eax,%eax
    67a8:	4d 85 f6             	test   %r14,%r14
    67ab:	74 8d                	je     673a <_ZL25check_dynamic_entry_rangePvmtmP24dynamic_flags_attributes.part.0+0x6a>
    67ad:	48 83 c3 0a          	add    $0xa,%rbx
    67b1:	48 c1 e3 05          	shl    $0x5,%rbx
    67b5:	48 01 dd             	add    %rbx,%rbp
    67b8:	48 8b 55 10          	mov    0x10(%rbp),%rdx
    67bc:	49 89 16             	mov    %rdx,(%r14)
    67bf:	41 0f b7 90 3a 01 00 	movzwl 0x13a(%r8),%edx
    67c6:	00 
    67c7:	66 41 89 56 08       	mov    %dx,0x8(%r14)
    67cc:	48 83 c4 08          	add    $0x8,%rsp
    67d0:	5b                   	pop    %rbx
    67d1:	5d                   	pop    %rbp
    67d2:	41 5c                	pop    %r12
    67d4:	41 5d                	pop    %r13
    67d6:	41 5e                	pop    %r14
    67d8:	41 5f                	pop    %r15
    67da:	c3                   	retq   
    67db:	0f 1f 44 00 00       	nopl   0x0(%rax,%rax,1)
    67e0:	b8 38 01 00 00       	mov    $0x138,%eax
    67e5:	31 db                	xor    %ebx,%ebx
    67e7:	e9 6a ff ff ff       	jmpq   6756 <_ZL25check_dynamic_entry_rangePvmtmP24dynamic_flags_attributes.part.0+0x86>
    67ec:	0f 1f 40 00          	nopl   0x0(%rax)

00000000000067f0 <_ZL19check_dynamic_rangePvmPmP24dynamic_flags_attributes>:
    67f0:	41 57                	push   %r15
    67f2:	49 89 f7             	mov    %rsi,%r15
    67f5:	41 56                	push   %r14
    67f7:	49 c1 e7 0c          	shl    $0xc,%r15
    67fb:	41 55                	push   %r13
    67fd:	41 54                	push   %r12
    67ff:	4c 89 f8             	mov    %r15,%rax
    6802:	55                   	push   %rbp
    6803:	53                   	push   %rbx
    6804:	48 f7 d0             	not    %rax
    6807:	48 83 ec 28          	sub    $0x28,%rsp
    680b:	48 39 f8             	cmp    %rdi,%rax
    680e:	0f 82 35 01 00 00    	jb     6949 <_ZL19check_dynamic_rangePvmPmP24dynamic_flags_attributes+0x159>
    6814:	48 89 fb             	mov    %rdi,%rbx
    6817:	48 89 cd             	mov    %rcx,%rbp
    681a:	48 89 54 24 10       	mov    %rdx,0x10(%rsp)
    681f:	49 89 f4             	mov    %rsi,%r12
    6822:	e8 89 16 00 00       	callq  7eb0 <get_heap_base>
    6827:	49 89 c5             	mov    %rax,%r13
    682a:	e8 01 17 00 00       	callq  7f30 <get_heap_min_size>
    682f:	49 01 c5             	add    %rax,%r13
    6832:	e8 99 16 00 00       	callq  7ed0 <get_heap_size>
    6837:	49 89 c6             	mov    %rax,%r14
    683a:	e8 f1 16 00 00       	callq  7f30 <get_heap_min_size>
    683f:	49 29 c6             	sub    %rax,%r14
    6842:	4c 39 eb             	cmp    %r13,%rbx
    6845:	72 39                	jb     6880 <_ZL19check_dynamic_rangePvmPmP24dynamic_flags_attributes+0x90>
    6847:	49 8d 04 1f          	lea    (%r15,%rbx,1),%rax
    684b:	4b 8d 54 35 00       	lea    0x0(%r13,%r14,1),%rdx
    6850:	48 39 d0             	cmp    %rdx,%rax
    6853:	77 2b                	ja     6880 <_ZL19check_dynamic_rangePvmPmP24dynamic_flags_attributes+0x90>
    6855:	48 85 ed             	test   %rbp,%rbp
    6858:	74 11                	je     686b <_ZL19check_dynamic_rangePvmPmP24dynamic_flags_attributes+0x7b>
    685a:	b8 08 00 00 00       	mov    $0x8,%eax
    685f:	48 c7 45 00 03 02 00 	movq   $0x203,0x0(%rbp)
    6866:	00 
    6867:	66 89 45 08          	mov    %ax,0x8(%rbp)
    686b:	31 c0                	xor    %eax,%eax
    686d:	48 83 c4 28          	add    $0x28,%rsp
    6871:	5b                   	pop    %rbx
    6872:	5d                   	pop    %rbp
    6873:	41 5c                	pop    %r12
    6875:	41 5d                	pop    %r13
    6877:	41 5e                	pop    %r14
    6879:	41 5f                	pop    %r15
    687b:	c3                   	retq   
    687c:	0f 1f 40 00          	nopl   0x0(%rax)
    6880:	31 c9                	xor    %ecx,%ecx
    6882:	49 89 e8             	mov    %rbp,%r8
    6885:	ba 07 00 00 00       	mov    $0x7,%edx
    688a:	4c 89 e6             	mov    %r12,%rsi
    688d:	48 89 df             	mov    %rbx,%rdi
    6890:	e8 3b fe ff ff       	callq  66d0 <_ZL25check_dynamic_entry_rangePvmtmP24dynamic_flags_attributes.part.0>
    6895:	85 c0                	test   %eax,%eax
    6897:	74 d2                	je     686b <_ZL19check_dynamic_rangePvmPmP24dynamic_flags_attributes+0x7b>
    6899:	48 8d 05 b8 b5 00 00 	lea    0xb5b8(%rip),%rax        # 11e58 <rsrv_mem_min_size>
    68a0:	48 8b 08             	mov    (%rax),%rcx
    68a3:	48 8d 05 be b5 00 00 	lea    0xb5be(%rip),%rax        # 11e68 <rsrv_mem_base>
    68aa:	48 8b 10             	mov    (%rax),%rdx
    68ad:	48 01 ca             	add    %rcx,%rdx
    68b0:	48 39 d3             	cmp    %rdx,%rbx
    68b3:	72 18                	jb     68cd <_ZL19check_dynamic_rangePvmPmP24dynamic_flags_attributes+0xdd>
    68b5:	48 8d 05 a4 b5 00 00 	lea    0xb5a4(%rip),%rax        # 11e60 <rsrv_mem_size>
    68bc:	49 01 df             	add    %rbx,%r15
    68bf:	48 8b 00             	mov    (%rax),%rax
    68c2:	48 29 c8             	sub    %rcx,%rax
    68c5:	48 01 d0             	add    %rdx,%rax
    68c8:	49 39 c7             	cmp    %rax,%r15
    68cb:	76 88                	jbe    6855 <_ZL19check_dynamic_rangePvmPmP24dynamic_flags_attributes+0x65>
    68cd:	48 8d 15 ec 77 00 00 	lea    0x77ec(%rip),%rdx        # e0c0 <g_global_data>
    68d4:	8b 82 30 01 00 00    	mov    0x130(%rdx),%eax
    68da:	85 c0                	test   %eax,%eax
    68dc:	74 40                	je     691e <_ZL19check_dynamic_rangePvmPmP24dynamic_flags_attributes+0x12e>
    68de:	0f b7 82 38 01 00 00 	movzwl 0x138(%rdx),%eax
    68e5:	66 3d 13 10          	cmp    $0x1013,%ax
    68e9:	0f 84 3b 01 00 00    	je     6a2a <_ZL19check_dynamic_rangePvmPmP24dynamic_flags_attributes+0x23a>
    68ef:	31 c0                	xor    %eax,%eax
    68f1:	eb 1e                	jmp    6911 <_ZL19check_dynamic_rangePvmPmP24dynamic_flags_attributes+0x121>
    68f3:	0f 1f 44 00 00       	nopl   0x0(%rax,%rax,1)
    68f8:	41 89 c1             	mov    %eax,%r9d
    68fb:	49 c1 e1 05          	shl    $0x5,%r9
    68ff:	4a 8d 0c 0a          	lea    (%rdx,%r9,1),%rcx
    6903:	0f b7 89 38 01 00 00 	movzwl 0x138(%rcx),%ecx
    690a:	66 81 f9 13 10       	cmp    $0x1013,%cx
    690f:	74 47                	je     6958 <_ZL19check_dynamic_rangePvmPmP24dynamic_flags_attributes+0x168>
    6911:	8b 8a 30 01 00 00    	mov    0x130(%rdx),%ecx
    6917:	83 c0 01             	add    $0x1,%eax
    691a:	39 c1                	cmp    %eax,%ecx
    691c:	77 da                	ja     68f8 <_ZL19check_dynamic_rangePvmPmP24dynamic_flags_attributes+0x108>
    691e:	41 be 0e 00 00 00    	mov    $0xe,%r14d
    6924:	31 c9                	xor    %ecx,%ecx
    6926:	49 89 e8             	mov    %rbp,%r8
    6929:	44 89 f2             	mov    %r14d,%edx
    692c:	4c 89 e6             	mov    %r12,%rsi
    692f:	48 89 df             	mov    %rbx,%rdi
    6932:	e8 99 fd ff ff       	callq  66d0 <_ZL25check_dynamic_entry_rangePvmtmP24dynamic_flags_attributes.part.0>
    6937:	85 c0                	test   %eax,%eax
    6939:	0f 84 d1 00 00 00    	je     6a10 <_ZL19check_dynamic_rangePvmPmP24dynamic_flags_attributes+0x220>
    693f:	41 83 c6 01          	add    $0x1,%r14d
    6943:	41 83 fe 13          	cmp    $0x13,%r14d
    6947:	75 db                	jne    6924 <_ZL19check_dynamic_rangePvmPmP24dynamic_flags_attributes+0x134>
    6949:	b8 ff ff ff ff       	mov    $0xffffffff,%eax
    694e:	e9 1a ff ff ff       	jmpq   686d <_ZL19check_dynamic_rangePvmPmP24dynamic_flags_attributes+0x7d>
    6953:	0f 1f 44 00 00       	nopl   0x0(%rax,%rax,1)
    6958:	49 81 c1 38 01 00 00 	add    $0x138,%r9
    695f:	49 01 d1             	add    %rdx,%r9
    6962:	74 ba                	je     691e <_ZL19check_dynamic_rangePvmPmP24dynamic_flags_attributes+0x12e>
    6964:	41 89 c1             	mov    %eax,%r9d
    6967:	c7 44 24 0c 0e 00 00 	movl   $0xe,0xc(%rsp)
    696e:	00 
    696f:	49 c1 e1 05          	shl    $0x5,%r9
    6973:	4e 8d 3c 0a          	lea    (%rdx,%r9,1),%r15
    6977:	41 8b 87 3c 01 00 00 	mov    0x13c(%r15),%eax
    697e:	83 f8 ff             	cmp    $0xffffffff,%eax
    6981:	74 75                	je     69f8 <_ZL19check_dynamic_rangePvmPmP24dynamic_flags_attributes+0x208>
    6983:	45 31 ed             	xor    %r13d,%r13d
    6986:	eb 1b                	jmp    69a3 <_ZL19check_dynamic_rangePvmPmP24dynamic_flags_attributes+0x1b3>
    6988:	0f 1f 84 00 00 00 00 	nopl   0x0(%rax,%rax,1)
    698f:	00 
    6990:	41 8b 87 3c 01 00 00 	mov    0x13c(%r15),%eax
    6997:	41 83 c5 01          	add    $0x1,%r13d
    699b:	83 c0 01             	add    $0x1,%eax
    699e:	44 39 e8             	cmp    %r13d,%eax
    69a1:	76 55                	jbe    69f8 <_ZL19check_dynamic_rangePvmPmP24dynamic_flags_attributes+0x208>
    69a3:	49 8b 8f 40 01 00 00 	mov    0x140(%r15),%rcx
    69aa:	45 89 ee             	mov    %r13d,%r14d
    69ad:	8b 54 24 0c          	mov    0xc(%rsp),%edx
    69b1:	49 8d 87 40 01 00 00 	lea    0x140(%r15),%rax
    69b8:	49 89 e8             	mov    %rbp,%r8
    69bb:	4c 89 e6             	mov    %r12,%rsi
    69be:	48 89 df             	mov    %rbx,%rdi
    69c1:	49 0f af ce          	imul   %r14,%rcx
    69c5:	48 89 44 24 18       	mov    %rax,0x18(%rsp)
    69ca:	e8 01 fd ff ff       	callq  66d0 <_ZL25check_dynamic_entry_rangePvmtmP24dynamic_flags_attributes.part.0>
    69cf:	85 c0                	test   %eax,%eax
    69d1:	75 bd                	jne    6990 <_ZL19check_dynamic_rangePvmPmP24dynamic_flags_attributes+0x1a0>
    69d3:	48 8b 5c 24 10       	mov    0x10(%rsp),%rbx
    69d8:	48 85 db             	test   %rbx,%rbx
    69db:	0f 84 8a fe ff ff    	je     686b <_ZL19check_dynamic_rangePvmPmP24dynamic_flags_attributes+0x7b>
    69e1:	48 8b 74 24 18       	mov    0x18(%rsp),%rsi
    69e6:	48 8b 16             	mov    (%rsi),%rdx
    69e9:	4c 0f af f2          	imul   %rdx,%r14
    69ed:	4c 89 33             	mov    %r14,(%rbx)
    69f0:	e9 78 fe ff ff       	jmpq   686d <_ZL19check_dynamic_rangePvmPmP24dynamic_flags_attributes+0x7d>
    69f5:	0f 1f 00             	nopl   (%rax)
    69f8:	83 44 24 0c 01       	addl   $0x1,0xc(%rsp)
    69fd:	8b 44 24 0c          	mov    0xc(%rsp),%eax
    6a01:	83 f8 13             	cmp    $0x13,%eax
    6a04:	0f 85 6d ff ff ff    	jne    6977 <_ZL19check_dynamic_rangePvmPmP24dynamic_flags_attributes+0x187>
    6a0a:	e9 3a ff ff ff       	jmpq   6949 <_ZL19check_dynamic_rangePvmPmP24dynamic_flags_attributes+0x159>
    6a0f:	90                   	nop
    6a10:	48 8b 5c 24 10       	mov    0x10(%rsp),%rbx
    6a15:	48 85 db             	test   %rbx,%rbx
    6a18:	0f 84 4d fe ff ff    	je     686b <_ZL19check_dynamic_rangePvmPmP24dynamic_flags_attributes+0x7b>
    6a1e:	48 c7 03 00 00 00 00 	movq   $0x0,(%rbx)
    6a25:	e9 43 fe ff ff       	jmpq   686d <_ZL19check_dynamic_rangePvmPmP24dynamic_flags_attributes+0x7d>
    6a2a:	41 b9 38 01 00 00    	mov    $0x138,%r9d
    6a30:	31 c0                	xor    %eax,%eax
    6a32:	e9 28 ff ff ff       	jmpq   695f <_ZL19check_dynamic_rangePvmPmP24dynamic_flags_attributes+0x16f>
    6a37:	66 0f 1f 84 00 00 00 	nopw   0x0(%rax,%rax,1)
    6a3e:	00 00 

0000000000006a40 <_Z24get_dynamic_layout_by_idt>:
    6a40:	48 8d 05 79 76 00 00 	lea    0x7679(%rip),%rax        # e0c0 <g_global_data>
    6a47:	41 89 f8             	mov    %edi,%r8d
    6a4a:	8b 90 30 01 00 00    	mov    0x130(%rax),%edx
    6a50:	85 d2                	test   %edx,%edx
    6a52:	74 38                	je     6a8c <_Z24get_dynamic_layout_by_idt+0x4c>
    6a54:	0f b7 90 38 01 00 00 	movzwl 0x138(%rax),%edx
    6a5b:	66 39 d7             	cmp    %dx,%di
    6a5e:	74 40                	je     6aa0 <_Z24get_dynamic_layout_by_idt+0x60>
    6a60:	31 d2                	xor    %edx,%edx
    6a62:	eb 1b                	jmp    6a7f <_Z24get_dynamic_layout_by_idt+0x3f>
    6a64:	0f 1f 40 00          	nopl   0x0(%rax)
    6a68:	89 d1                	mov    %edx,%ecx
    6a6a:	48 c1 e1 05          	shl    $0x5,%rcx
    6a6e:	48 8d 34 08          	lea    (%rax,%rcx,1),%rsi
    6a72:	0f b7 b6 38 01 00 00 	movzwl 0x138(%rsi),%esi
    6a79:	66 44 39 c6          	cmp    %r8w,%si
    6a7d:	74 11                	je     6a90 <_Z24get_dynamic_layout_by_idt+0x50>
    6a7f:	8b 88 30 01 00 00    	mov    0x130(%rax),%ecx
    6a85:	83 c2 01             	add    $0x1,%edx
    6a88:	39 d1                	cmp    %edx,%ecx
    6a8a:	77 dc                	ja     6a68 <_Z24get_dynamic_layout_by_idt+0x28>
    6a8c:	31 c0                	xor    %eax,%eax
    6a8e:	c3                   	retq   
    6a8f:	90                   	nop
    6a90:	48 81 c1 38 01 00 00 	add    $0x138,%rcx
    6a97:	48 01 c8             	add    %rcx,%rax
    6a9a:	c3                   	retq   
    6a9b:	0f 1f 44 00 00       	nopl   0x0(%rax,%rax,1)
    6aa0:	b9 38 01 00 00       	mov    $0x138,%ecx
    6aa5:	eb f0                	jmp    6a97 <_Z24get_dynamic_layout_by_idt+0x57>
    6aa7:	66 0f 1f 84 00 00 00 	nopw   0x0(%rax,%rax,1)
    6aae:	00 00 

0000000000006ab0 <is_dynamic_thread>:
    6ab0:	48 83 ec 28          	sub    $0x28,%rsp
    6ab4:	64 48 8b 04 25 28 00 	mov    %fs:0x28,%rax
    6abb:	00 00 
    6abd:	48 89 44 24 18       	mov    %rax,0x18(%rsp)
    6ac2:	31 c0                	xor    %eax,%eax
    6ac4:	48 85 ff             	test   %rdi,%rdi
    6ac7:	74 27                	je     6af0 <is_dynamic_thread+0x40>
    6ac9:	31 d2                	xor    %edx,%edx
    6acb:	48 89 e1             	mov    %rsp,%rcx
    6ace:	be 01 00 00 00       	mov    $0x1,%esi
    6ad3:	e8 18 fd ff ff       	callq  67f0 <_ZL19check_dynamic_rangePvmPmP24dynamic_flags_attributes>
    6ad8:	85 c0                	test   %eax,%eax
    6ada:	75 14                	jne    6af0 <is_dynamic_thread+0x40>
    6adc:	31 c0                	xor    %eax,%eax
    6ade:	48 81 3c 24 00 01 00 	cmpq   $0x100,(%rsp)
    6ae5:	00 
    6ae6:	0f 94 c0             	sete   %al
    6ae9:	eb 07                	jmp    6af2 <is_dynamic_thread+0x42>
    6aeb:	0f 1f 44 00 00       	nopl   0x0(%rax,%rax,1)
    6af0:	31 c0                	xor    %eax,%eax
    6af2:	48 8b 54 24 18       	mov    0x18(%rsp),%rdx
    6af7:	64 48 33 14 25 28 00 	xor    %fs:0x28,%rdx
    6afe:	00 00 
    6b00:	75 05                	jne    6b07 <is_dynamic_thread+0x57>
    6b02:	48 83 c4 28          	add    $0x28,%rsp
    6b06:	c3                   	retq   
    6b07:	e8 04 29 00 00       	callq  9410 <__stack_chk_fail>
    6b0c:	0f 1f 40 00          	nopl   0x0(%rax)

0000000000006b10 <is_dynamic_thread_exist>:
    6b10:	48 8d 05 11 b3 00 00 	lea    0xb311(%rip),%rax        # 11e28 <EDMM_supported>
    6b17:	8b 00                	mov    (%rax),%eax
    6b19:	85 c0                	test   %eax,%eax
    6b1b:	74 49                	je     6b66 <is_dynamic_thread_exist+0x56>
    6b1d:	48 8d 0d 9c 75 00 00 	lea    0x759c(%rip),%rcx        # e0c0 <g_global_data>
    6b24:	8b 81 30 01 00 00    	mov    0x130(%rcx),%eax
    6b2a:	85 c0                	test   %eax,%eax
    6b2c:	74 36                	je     6b64 <is_dynamic_thread_exist+0x54>
    6b2e:	0f b7 81 38 01 00 00 	movzwl 0x138(%rcx),%eax
    6b35:	66 83 f8 12          	cmp    $0x12,%ax
    6b39:	74 45                	je     6b80 <is_dynamic_thread_exist+0x70>
    6b3b:	31 c0                	xor    %eax,%eax
    6b3d:	eb 18                	jmp    6b57 <is_dynamic_thread_exist+0x47>
    6b3f:	90                   	nop
    6b40:	89 c2                	mov    %eax,%edx
    6b42:	48 c1 e2 05          	shl    $0x5,%rdx
    6b46:	48 8d 34 11          	lea    (%rcx,%rdx,1),%rsi
    6b4a:	0f b7 b6 38 01 00 00 	movzwl 0x138(%rsi),%esi
    6b51:	66 83 fe 12          	cmp    $0x12,%si
    6b55:	74 19                	je     6b70 <is_dynamic_thread_exist+0x60>
    6b57:	8b 91 30 01 00 00    	mov    0x130(%rcx),%edx
    6b5d:	83 c0 01             	add    $0x1,%eax
    6b60:	39 c2                	cmp    %eax,%edx
    6b62:	77 dc                	ja     6b40 <is_dynamic_thread_exist+0x30>
    6b64:	31 c0                	xor    %eax,%eax
    6b66:	f3 c3                	repz retq 
    6b68:	0f 1f 84 00 00 00 00 	nopl   0x0(%rax,%rax,1)
    6b6f:	00 
    6b70:	48 81 c2 38 01 00 00 	add    $0x138,%rdx
    6b77:	31 c0                	xor    %eax,%eax
    6b79:	48 01 d1             	add    %rdx,%rcx
    6b7c:	0f 95 c0             	setne  %al
    6b7f:	c3                   	retq   
    6b80:	ba 38 01 00 00       	mov    $0x138,%edx
    6b85:	eb f0                	jmp    6b77 <is_dynamic_thread_exist+0x67>
    6b87:	66 0f 1f 84 00 00 00 	nopw   0x0(%rax,%rax,1)
    6b8e:	00 00 

0000000000006b90 <get_dynamic_stack_max_page>:
    6b90:	48 8d 0d 29 75 00 00 	lea    0x7529(%rip),%rcx        # e0c0 <g_global_data>
    6b97:	8b 81 30 01 00 00    	mov    0x130(%rcx),%eax
    6b9d:	85 c0                	test   %eax,%eax
    6b9f:	74 3d                	je     6bde <get_dynamic_stack_max_page+0x4e>
    6ba1:	0f b7 81 38 01 00 00 	movzwl 0x138(%rcx),%eax
    6ba8:	66 83 f8 07          	cmp    $0x7,%ax
    6bac:	74 52                	je     6c00 <get_dynamic_stack_max_page+0x70>
    6bae:	31 c0                	xor    %eax,%eax
    6bb0:	eb 1d                	jmp    6bcf <get_dynamic_stack_max_page+0x3f>
    6bb2:	66 0f 1f 44 00 00    	nopw   0x0(%rax,%rax,1)
    6bb8:	89 c2                	mov    %eax,%edx
    6bba:	48 c1 e2 05          	shl    $0x5,%rdx
    6bbe:	48 8d 34 11          	lea    (%rcx,%rdx,1),%rsi
    6bc2:	0f b7 b6 38 01 00 00 	movzwl 0x138(%rsi),%esi
    6bc9:	66 83 fe 07          	cmp    $0x7,%si
    6bcd:	74 11                	je     6be0 <get_dynamic_stack_max_page+0x50>
    6bcf:	8b 91 30 01 00 00    	mov    0x130(%rcx),%edx
    6bd5:	83 c0 01             	add    $0x1,%eax
    6bd8:	39 c2                	cmp    %eax,%edx
    6bda:	77 dc                	ja     6bb8 <get_dynamic_stack_max_page+0x28>
    6bdc:	31 c0                	xor    %eax,%eax
    6bde:	f3 c3                	repz retq 
    6be0:	48 81 c2 38 01 00 00 	add    $0x138,%rdx
    6be7:	48 01 ca             	add    %rcx,%rdx
    6bea:	74 f0                	je     6bdc <get_dynamic_stack_max_page+0x4c>
    6bec:	48 c1 e0 05          	shl    $0x5,%rax
    6bf0:	48 01 c8             	add    %rcx,%rax
    6bf3:	8b 80 3c 01 00 00    	mov    0x13c(%rax),%eax
    6bf9:	c3                   	retq   
    6bfa:	66 0f 1f 44 00 00    	nopw   0x0(%rax,%rax,1)
    6c00:	ba 38 01 00 00       	mov    $0x138,%edx
    6c05:	31 c0                	xor    %eax,%eax
    6c07:	eb de                	jmp    6be7 <get_dynamic_stack_max_page+0x57>
    6c09:	0f 1f 80 00 00 00 00 	nopl   0x0(%rax)

0000000000006c10 <sgx_accept_forward>:
    6c10:	4c 8d 54 24 08       	lea    0x8(%rsp),%r10
    6c15:	48 83 e4 c0          	and    $0xffffffffffffffc0,%rsp
    6c19:	41 ff 72 f8          	pushq  -0x8(%r10)
    6c1d:	55                   	push   %rbp
    6c1e:	48 89 e5             	mov    %rsp,%rbp
    6c21:	41 55                	push   %r13
    6c23:	41 54                	push   %r12
    6c25:	41 52                	push   %r10
    6c27:	53                   	push   %rbx
    6c28:	48 81 ec 90 00 00 00 	sub    $0x90,%rsp
    6c2f:	48 89 bd 50 ff ff ff 	mov    %rdi,-0xb0(%rbp)
    6c36:	48 c7 85 58 ff ff ff 	movq   $0x0,-0xa8(%rbp)
    6c3d:	00 00 00 00 
    6c41:	64 48 8b 04 25 28 00 	mov    %fs:0x28,%rax
    6c48:	00 00 
    6c4a:	48 89 45 c8          	mov    %rax,-0x38(%rbp)
    6c4e:	31 c0                	xor    %eax,%eax
    6c50:	48 39 d6             	cmp    %rdx,%rsi
    6c53:	48 c7 85 60 ff ff ff 	movq   $0x0,-0xa0(%rbp)
    6c5a:	00 00 00 00 
    6c5e:	48 c7 85 68 ff ff ff 	movq   $0x0,-0x98(%rbp)
    6c65:	00 00 00 00 
    6c69:	48 c7 85 70 ff ff ff 	movq   $0x0,-0x90(%rbp)
    6c70:	00 00 00 00 
    6c74:	48 c7 85 78 ff ff ff 	movq   $0x0,-0x88(%rbp)
    6c7b:	00 00 00 00 
    6c7f:	48 c7 45 80 00 00 00 	movq   $0x0,-0x80(%rbp)
    6c86:	00 
    6c87:	48 c7 45 88 00 00 00 	movq   $0x0,-0x78(%rbp)
    6c8e:	00 
    6c8f:	73 2a                	jae    6cbb <sgx_accept_forward+0xab>
    6c91:	4c 8d ad 50 ff ff ff 	lea    -0xb0(%rbp),%r13
    6c98:	48 89 f3             	mov    %rsi,%rbx
    6c9b:	49 89 d4             	mov    %rdx,%r12
    6c9e:	66 90                	xchg   %ax,%ax
    6ca0:	48 89 de             	mov    %rbx,%rsi
    6ca3:	4c 89 ef             	mov    %r13,%rdi
    6ca6:	e8 37 70 00 00       	callq  dce2 <do_eaccept>
    6cab:	85 c0                	test   %eax,%eax
    6cad:	75 31                	jne    6ce0 <sgx_accept_forward+0xd0>
    6caf:	48 81 c3 00 10 00 00 	add    $0x1000,%rbx
    6cb6:	49 39 dc             	cmp    %rbx,%r12
    6cb9:	77 e5                	ja     6ca0 <sgx_accept_forward+0x90>
    6cbb:	31 c0                	xor    %eax,%eax
    6cbd:	48 8b 4d c8          	mov    -0x38(%rbp),%rcx
    6cc1:	64 48 33 0c 25 28 00 	xor    %fs:0x28,%rcx
    6cc8:	00 00 
    6cca:	75 19                	jne    6ce5 <sgx_accept_forward+0xd5>
    6ccc:	48 81 c4 90 00 00 00 	add    $0x90,%rsp
    6cd3:	5b                   	pop    %rbx
    6cd4:	41 5a                	pop    %r10
    6cd6:	41 5c                	pop    %r12
    6cd8:	41 5d                	pop    %r13
    6cda:	5d                   	pop    %rbp
    6cdb:	49 8d 62 f8          	lea    -0x8(%r10),%rsp
    6cdf:	c3                   	retq   
    6ce0:	e8 4b 70 00 00       	callq  dd30 <abort>
    6ce5:	e8 26 27 00 00       	callq  9410 <__stack_chk_fail>
    6cea:	66 0f 1f 44 00 00    	nopw   0x0(%rax,%rax,1)

0000000000006cf0 <_Z18accept_post_removePVK9_layout_tS1_m>:
    6cf0:	48 39 f7             	cmp    %rsi,%rdi
    6cf3:	0f 83 d7 00 00 00    	jae    6dd0 <_Z18accept_post_removePVK9_layout_tS1_m+0xe0>
    6cf9:	41 56                	push   %r14
    6cfb:	41 55                	push   %r13
    6cfd:	41 54                	push   %r12
    6cff:	49 89 d4             	mov    %rdx,%r12
    6d02:	55                   	push   %rbp
    6d03:	48 89 f5             	mov    %rsi,%rbp
    6d06:	53                   	push   %rbx
    6d07:	48 89 fb             	mov    %rdi,%rbx
    6d0a:	eb 19                	jmp    6d25 <_Z18accept_post_removePVK9_layout_tS1_m+0x35>
    6d0c:	0f 1f 40 00          	nopl   0x0(%rax)
    6d10:	0f b7 03             	movzwl (%rbx),%eax
    6d13:	f6 c4 10             	test   $0x10,%ah
    6d16:	75 58                	jne    6d70 <_Z18accept_post_removePVK9_layout_tS1_m+0x80>
    6d18:	48 83 c3 20          	add    $0x20,%rbx
    6d1c:	48 39 dd             	cmp    %rbx,%rbp
    6d1f:	0f 86 97 00 00 00    	jbe    6dbc <_Z18accept_post_removePVK9_layout_tS1_m+0xcc>
    6d25:	0f b7 03             	movzwl (%rbx),%eax
    6d28:	f6 c4 10             	test   $0x10,%ah
    6d2b:	75 e3                	jne    6d10 <_Z18accept_post_removePVK9_layout_tS1_m+0x20>
    6d2d:	0f b7 43 02          	movzwl 0x2(%rbx),%eax
    6d31:	a8 10                	test   $0x10,%al
    6d33:	74 db                	je     6d10 <_Z18accept_post_removePVK9_layout_tS1_m+0x20>
    6d35:	48 8b 73 08          	mov    0x8(%rbx),%rsi
    6d39:	4e 8d 2c 26          	lea    (%rsi,%r12,1),%r13
    6d3d:	e8 84 6c 00 00       	callq  d9c6 <get_enclave_base>
    6d42:	8b 53 04             	mov    0x4(%rbx),%edx
    6d45:	4a 8d 34 28          	lea    (%rax,%r13,1),%rsi
    6d49:	bf 10 04 00 00       	mov    $0x410,%edi
    6d4e:	48 c1 e2 0c          	shl    $0xc,%rdx
    6d52:	48 01 f2             	add    %rsi,%rdx
    6d55:	e8 b6 fe ff ff       	callq  6c10 <sgx_accept_forward>
    6d5a:	85 c0                	test   %eax,%eax
    6d5c:	74 ba                	je     6d18 <_Z18accept_post_removePVK9_layout_tS1_m+0x28>
    6d5e:	5b                   	pop    %rbx
    6d5f:	5d                   	pop    %rbp
    6d60:	41 5c                	pop    %r12
    6d62:	41 5d                	pop    %r13
    6d64:	41 5e                	pop    %r14
    6d66:	c3                   	retq   
    6d67:	66 0f 1f 84 00 00 00 	nopw   0x0(%rax,%rax,1)
    6d6e:	00 00 
    6d70:	8b 43 04             	mov    0x4(%rbx),%eax
    6d73:	85 c0                	test   %eax,%eax
    6d75:	74 a1                	je     6d18 <_Z18accept_post_removePVK9_layout_tS1_m+0x28>
    6d77:	45 31 f6             	xor    %r14d,%r14d
    6d7a:	45 31 ed             	xor    %r13d,%r13d
    6d7d:	48 8b 43 08          	mov    0x8(%rbx),%rax
    6d81:	0f b7 7b 02          	movzwl 0x2(%rbx),%edi
    6d85:	48 89 de             	mov    %rbx,%rsi
    6d88:	49 01 c5             	add    %rax,%r13
    6d8b:	f7 df                	neg    %edi
    6d8d:	4c 89 ea             	mov    %r13,%rdx
    6d90:	48 63 ff             	movslq %edi,%rdi
    6d93:	48 c1 e7 05          	shl    $0x5,%rdi
    6d97:	48 01 df             	add    %rbx,%rdi
    6d9a:	e8 51 ff ff ff       	callq  6cf0 <_Z18accept_post_removePVK9_layout_tS1_m>
    6d9f:	85 c0                	test   %eax,%eax
    6da1:	75 bb                	jne    6d5e <_Z18accept_post_removePVK9_layout_tS1_m+0x6e>
    6da3:	8b 43 04             	mov    0x4(%rbx),%eax
    6da6:	41 83 c6 01          	add    $0x1,%r14d
    6daa:	44 39 f0             	cmp    %r14d,%eax
    6dad:	77 ce                	ja     6d7d <_Z18accept_post_removePVK9_layout_tS1_m+0x8d>
    6daf:	48 83 c3 20          	add    $0x20,%rbx
    6db3:	48 39 dd             	cmp    %rbx,%rbp
    6db6:	0f 87 69 ff ff ff    	ja     6d25 <_Z18accept_post_removePVK9_layout_tS1_m+0x35>
    6dbc:	5b                   	pop    %rbx
    6dbd:	31 c0                	xor    %eax,%eax
    6dbf:	5d                   	pop    %rbp
    6dc0:	41 5c                	pop    %r12
    6dc2:	41 5d                	pop    %r13
    6dc4:	41 5e                	pop    %r14
    6dc6:	c3                   	retq   
    6dc7:	66 0f 1f 84 00 00 00 	nopw   0x0(%rax,%rax,1)
    6dce:	00 00 
    6dd0:	31 c0                	xor    %eax,%eax
    6dd2:	c3                   	retq   
    6dd3:	66 2e 0f 1f 84 00 00 	nopw   %cs:0x0(%rax,%rax,1)
    6dda:	00 00 00 
    6ddd:	0f 1f 00             	nopl   (%rax)

0000000000006de0 <apply_pages_within_exception>:
    6de0:	4c 8d 54 24 08       	lea    0x8(%rsp),%r10
    6de5:	48 83 e4 c0          	and    $0xffffffffffffffc0,%rsp
    6de9:	41 ff 72 f8          	pushq  -0x8(%r10)
    6ded:	55                   	push   %rbp
    6dee:	48 89 e5             	mov    %rsp,%rbp
    6df1:	41 56                	push   %r14
    6df3:	41 55                	push   %r13
    6df5:	41 54                	push   %r12
    6df7:	41 52                	push   %r10
    6df9:	53                   	push   %rbx
    6dfa:	48 81 ec 88 00 00 00 	sub    $0x88,%rsp
    6e01:	64 48 8b 04 25 28 00 	mov    %fs:0x28,%rax
    6e08:	00 00 
    6e0a:	48 89 45 c8          	mov    %rax,-0x38(%rbp)
    6e0e:	31 c0                	xor    %eax,%eax
    6e10:	48 85 ff             	test   %rdi,%rdi
    6e13:	0f 84 ca 00 00 00    	je     6ee3 <apply_pages_within_exception+0x103>
    6e19:	31 c9                	xor    %ecx,%ecx
    6e1b:	31 d2                	xor    %edx,%edx
    6e1d:	48 89 fb             	mov    %rdi,%rbx
    6e20:	49 89 f4             	mov    %rsi,%r12
    6e23:	e8 c8 f9 ff ff       	callq  67f0 <_ZL19check_dynamic_rangePvmPmP24dynamic_flags_attributes>
    6e28:	85 c0                	test   %eax,%eax
    6e2a:	41 89 c5             	mov    %eax,%r13d
    6e2d:	0f 85 b0 00 00 00    	jne    6ee3 <apply_pages_within_exception+0x103>
    6e33:	49 c1 e4 0c          	shl    $0xc,%r12
    6e37:	48 c7 85 50 ff ff ff 	movq   $0x20b,-0xb0(%rbp)
    6e3e:	0b 02 00 00 
    6e42:	48 c7 85 58 ff ff ff 	movq   $0x0,-0xa8(%rbp)
    6e49:	00 00 00 00 
    6e4d:	49 01 dc             	add    %rbx,%r12
    6e50:	48 c7 85 60 ff ff ff 	movq   $0x0,-0xa0(%rbp)
    6e57:	00 00 00 00 
    6e5b:	48 c7 85 68 ff ff ff 	movq   $0x0,-0x98(%rbp)
    6e62:	00 00 00 00 
    6e66:	4c 39 e3             	cmp    %r12,%rbx
    6e69:	48 c7 85 70 ff ff ff 	movq   $0x0,-0x90(%rbp)
    6e70:	00 00 00 00 
    6e74:	48 c7 85 78 ff ff ff 	movq   $0x0,-0x88(%rbp)
    6e7b:	00 00 00 00 
    6e7f:	48 c7 45 80 00 00 00 	movq   $0x0,-0x80(%rbp)
    6e86:	00 
    6e87:	48 c7 45 88 00 00 00 	movq   $0x0,-0x78(%rbp)
    6e8e:	00 
    6e8f:	73 2a                	jae    6ebb <apply_pages_within_exception+0xdb>
    6e91:	4c 8d b5 50 ff ff ff 	lea    -0xb0(%rbp),%r14
    6e98:	0f 1f 84 00 00 00 00 	nopl   0x0(%rax,%rax,1)
    6e9f:	00 
    6ea0:	48 89 de             	mov    %rbx,%rsi
    6ea3:	4c 89 f7             	mov    %r14,%rdi
    6ea6:	e8 37 6e 00 00       	callq  dce2 <do_eaccept>
    6eab:	85 c0                	test   %eax,%eax
    6ead:	75 3c                	jne    6eeb <apply_pages_within_exception+0x10b>
    6eaf:	48 81 c3 00 10 00 00 	add    $0x1000,%rbx
    6eb6:	49 39 dc             	cmp    %rbx,%r12
    6eb9:	77 e5                	ja     6ea0 <apply_pages_within_exception+0xc0>
    6ebb:	48 8b 55 c8          	mov    -0x38(%rbp),%rdx
    6ebf:	64 48 33 14 25 28 00 	xor    %fs:0x28,%rdx
    6ec6:	00 00 
    6ec8:	44 89 e8             	mov    %r13d,%eax
    6ecb:	75 23                	jne    6ef0 <apply_pages_within_exception+0x110>
    6ecd:	48 81 c4 88 00 00 00 	add    $0x88,%rsp
    6ed4:	5b                   	pop    %rbx
    6ed5:	41 5a                	pop    %r10
    6ed7:	41 5c                	pop    %r12
    6ed9:	41 5d                	pop    %r13
    6edb:	41 5e                	pop    %r14
    6edd:	5d                   	pop    %rbp
    6ede:	49 8d 62 f8          	lea    -0x8(%r10),%rsp
    6ee2:	c3                   	retq   
    6ee3:	41 bd ff ff ff ff    	mov    $0xffffffff,%r13d
    6ee9:	eb d0                	jmp    6ebb <apply_pages_within_exception+0xdb>
    6eeb:	e8 40 6e 00 00       	callq  dd30 <abort>
    6ef0:	e8 1b 25 00 00       	callq  9410 <__stack_chk_fail>
    6ef5:	66 2e 0f 1f 84 00 00 	nopw   %cs:0x0(%rax,%rax,1)
    6efc:	00 00 00 
    6eff:	90                   	nop

0000000000006f00 <apply_EPC_pages>:
    6f00:	55                   	push   %rbp
    6f01:	53                   	push   %rbx
    6f02:	48 83 ec 28          	sub    $0x28,%rsp
    6f06:	64 48 8b 04 25 28 00 	mov    %fs:0x28,%rax
    6f0d:	00 00 
    6f0f:	48 89 44 24 18       	mov    %rax,0x18(%rsp)
    6f14:	31 c0                	xor    %eax,%eax
    6f16:	48 85 ff             	test   %rdi,%rdi
    6f19:	74 55                	je     6f70 <apply_EPC_pages+0x70>
    6f1b:	31 d2                	xor    %edx,%edx
    6f1d:	48 89 e1             	mov    %rsp,%rcx
    6f20:	48 89 fd             	mov    %rdi,%rbp
    6f23:	48 89 f3             	mov    %rsi,%rbx
    6f26:	e8 c5 f8 ff ff       	callq  67f0 <_ZL19check_dynamic_rangePvmPmP24dynamic_flags_attributes>
    6f2b:	85 c0                	test   %eax,%eax
    6f2d:	75 41                	jne    6f70 <apply_EPC_pages+0x70>
    6f2f:	48 c1 e3 0c          	shl    $0xc,%rbx
    6f33:	f6 44 24 08 40       	testb  $0x40,0x8(%rsp)
    6f38:	48 89 ee             	mov    %rbp,%rsi
    6f3b:	48 8d 14 2b          	lea    (%rbx,%rbp,1),%rdx
    6f3f:	bf 0b 02 00 00       	mov    $0x20b,%edi
    6f44:	75 22                	jne    6f68 <apply_EPC_pages+0x68>
    6f46:	e8 a5 f6 ff ff       	callq  65f0 <_ZL19sgx_accept_backwardmmm>
    6f4b:	48 8b 74 24 18       	mov    0x18(%rsp),%rsi
    6f50:	64 48 33 34 25 28 00 	xor    %fs:0x28,%rsi
    6f57:	00 00 
    6f59:	75 1c                	jne    6f77 <apply_EPC_pages+0x77>
    6f5b:	48 83 c4 28          	add    $0x28,%rsp
    6f5f:	5b                   	pop    %rbx
    6f60:	5d                   	pop    %rbp
    6f61:	c3                   	retq   
    6f62:	66 0f 1f 44 00 00    	nopw   0x0(%rax,%rax,1)
    6f68:	e8 a3 fc ff ff       	callq  6c10 <sgx_accept_forward>
    6f6d:	eb dc                	jmp    6f4b <apply_EPC_pages+0x4b>
    6f6f:	90                   	nop
    6f70:	b8 ff ff ff ff       	mov    $0xffffffff,%eax
    6f75:	eb d4                	jmp    6f4b <apply_EPC_pages+0x4b>
    6f77:	e8 94 24 00 00       	callq  9410 <__stack_chk_fail>
    6f7c:	0f 1f 40 00          	nopl   0x0(%rax)

0000000000006f80 <trim_EPC_pages>:
    6f80:	48 85 ff             	test   %rdi,%rdi
    6f83:	74 65                	je     6fea <trim_EPC_pages+0x6a>
    6f85:	55                   	push   %rbp
    6f86:	53                   	push   %rbx
    6f87:	31 c9                	xor    %ecx,%ecx
    6f89:	31 d2                	xor    %edx,%edx
    6f8b:	48 89 f5             	mov    %rsi,%rbp
    6f8e:	48 89 fb             	mov    %rdi,%rbx
    6f91:	48 83 ec 08          	sub    $0x8,%rsp
    6f95:	e8 56 f8 ff ff       	callq  67f0 <_ZL19check_dynamic_rangePvmPmP24dynamic_flags_attributes>
    6f9a:	85 c0                	test   %eax,%eax
    6f9c:	75 45                	jne    6fe3 <trim_EPC_pages+0x63>
    6f9e:	48 c1 e5 0c          	shl    $0xc,%rbp
    6fa2:	48 89 df             	mov    %rbx,%rdi
    6fa5:	48 01 dd             	add    %rbx,%rbp
    6fa8:	48 89 ee             	mov    %rbp,%rsi
    6fab:	e8 30 0e 00 00       	callq  7de0 <trim_range_ocall>
    6fb0:	48 89 ea             	mov    %rbp,%rdx
    6fb3:	48 89 de             	mov    %rbx,%rsi
    6fb6:	bf 10 04 00 00       	mov    $0x410,%edi
    6fbb:	e8 50 fc ff ff       	callq  6c10 <sgx_accept_forward>
    6fc0:	48 39 eb             	cmp    %rbp,%rbx
    6fc3:	73 17                	jae    6fdc <trim_EPC_pages+0x5c>
    6fc5:	0f 1f 00             	nopl   (%rax)
    6fc8:	48 89 df             	mov    %rbx,%rdi
    6fcb:	48 81 c3 00 10 00 00 	add    $0x1000,%rbx
    6fd2:	e8 69 0e 00 00       	callq  7e40 <trim_range_commit_ocall>
    6fd7:	48 39 dd             	cmp    %rbx,%rbp
    6fda:	77 ec                	ja     6fc8 <trim_EPC_pages+0x48>
    6fdc:	48 83 c4 08          	add    $0x8,%rsp
    6fe0:	5b                   	pop    %rbx
    6fe1:	5d                   	pop    %rbp
    6fe2:	c3                   	retq   
    6fe3:	b8 ff ff ff ff       	mov    $0xffffffff,%eax
    6fe8:	eb f2                	jmp    6fdc <trim_EPC_pages+0x5c>
    6fea:	b8 ff ff ff ff       	mov    $0xffffffff,%eax
    6fef:	c3                   	retq   

0000000000006ff0 <do_add_thread>:
    6ff0:	41 56                	push   %r14
    6ff2:	41 55                	push   %r13
    6ff4:	41 54                	push   %r12
    6ff6:	55                   	push   %rbp
    6ff7:	53                   	push   %rbx
    6ff8:	48 89 fb             	mov    %rdi,%rbx
    6ffb:	48 83 ec 10          	sub    $0x10,%rsp
    6fff:	64 48 8b 04 25 28 00 	mov    %fs:0x28,%rax
    7006:	00 00 
    7008:	48 89 44 24 08       	mov    %rax,0x8(%rsp)
    700d:	31 c0                	xor    %eax,%eax
    700f:	48 c7 04 24 00 00 00 	movq   $0x0,(%rsp)
    7016:	00 
    7017:	e8 aa 69 00 00       	callq  d9c6 <get_enclave_base>
    701c:	31 c9                	xor    %ecx,%ecx
    701e:	48 89 e2             	mov    %rsp,%rdx
    7021:	be 01 00 00 00       	mov    $0x1,%esi
    7026:	48 89 df             	mov    %rbx,%rdi
    7029:	48 89 c5             	mov    %rax,%rbp
    702c:	e8 bf f7 ff ff       	callq  67f0 <_ZL19check_dynamic_rangePvmPmP24dynamic_flags_attributes>
    7031:	85 c0                	test   %eax,%eax
    7033:	75 51                	jne    7086 <do_add_thread+0x96>
    7035:	4c 8d 25 84 70 00 00 	lea    0x7084(%rip),%r12        # e0c0 <g_global_data>
    703c:	41 8b 84 24 30 01 00 	mov    0x130(%r12),%eax
    7043:	00 
    7044:	85 c0                	test   %eax,%eax
    7046:	74 3e                	je     7086 <do_add_thread+0x96>
    7048:	41 0f b7 84 24 38 01 	movzwl 0x138(%r12),%eax
    704f:	00 00 
    7051:	66 83 f8 0e          	cmp    $0xe,%ax
    7055:	0f 84 ae 01 00 00    	je     7209 <do_add_thread+0x219>
    705b:	31 c0                	xor    %eax,%eax
    705d:	eb 18                	jmp    7077 <do_add_thread+0x87>
    705f:	90                   	nop
    7060:	89 c2                	mov    %eax,%edx
    7062:	48 c1 e2 05          	shl    $0x5,%rdx
    7066:	49 8d 0c 14          	lea    (%r12,%rdx,1),%rcx
    706a:	0f b7 89 38 01 00 00 	movzwl 0x138(%rcx),%ecx
    7071:	66 83 f9 0e          	cmp    $0xe,%cx
    7075:	74 39                	je     70b0 <do_add_thread+0xc0>
    7077:	41 8b 94 24 30 01 00 	mov    0x130(%r12),%edx
    707e:	00 
    707f:	83 c0 01             	add    $0x1,%eax
    7082:	39 c2                	cmp    %eax,%edx
    7084:	77 da                	ja     7060 <do_add_thread+0x70>
    7086:	b8 01 00 00 00       	mov    $0x1,%eax
    708b:	48 8b 74 24 08       	mov    0x8(%rsp),%rsi
    7090:	64 48 33 34 25 28 00 	xor    %fs:0x28,%rsi
    7097:	00 00 
    7099:	0f 85 76 01 00 00    	jne    7215 <do_add_thread+0x225>
    709f:	48 83 c4 10          	add    $0x10,%rsp
    70a3:	5b                   	pop    %rbx
    70a4:	5d                   	pop    %rbp
    70a5:	41 5c                	pop    %r12
    70a7:	41 5d                	pop    %r13
    70a9:	41 5e                	pop    %r14
    70ab:	c3                   	retq   
    70ac:	0f 1f 40 00          	nopl   0x0(%rax)
    70b0:	48 81 c2 38 01 00 00 	add    $0x138,%rdx
    70b7:	4c 01 e2             	add    %r12,%rdx
    70ba:	74 ca                	je     7086 <do_add_thread+0x96>
    70bc:	48 c1 e0 05          	shl    $0x5,%rax
    70c0:	4c 8b 2c 24          	mov    (%rsp),%r13
    70c4:	4c 01 e0             	add    %r12,%rax
    70c7:	48 8b 80 40 01 00 00 	mov    0x140(%rax),%rax
    70ce:	49 01 ed             	add    %rbp,%r13
    70d1:	49 01 c5             	add    %rax,%r13
    70d4:	4c 39 eb             	cmp    %r13,%rbx
    70d7:	75 ad                	jne    7086 <do_add_thread+0x96>
    70d9:	41 be 0e 00 00 00    	mov    $0xe,%r14d
    70df:	90                   	nop
    70e0:	41 8b 84 24 30 01 00 	mov    0x130(%r12),%eax
    70e7:	00 
    70e8:	85 c0                	test   %eax,%eax
    70ea:	74 46                	je     7132 <do_add_thread+0x142>
    70ec:	41 0f b7 84 24 38 01 	movzwl 0x138(%r12),%eax
    70f3:	00 00 
    70f5:	66 44 39 f0          	cmp    %r14w,%ax
    70f9:	0f 84 01 01 00 00    	je     7200 <do_add_thread+0x210>
    70ff:	31 c0                	xor    %eax,%eax
    7101:	eb 20                	jmp    7123 <do_add_thread+0x133>
    7103:	0f 1f 44 00 00       	nopl   0x0(%rax,%rax,1)
    7108:	89 c2                	mov    %eax,%edx
    710a:	48 c1 e2 05          	shl    $0x5,%rdx
    710e:	49 8d 0c 14          	lea    (%r12,%rdx,1),%rcx
    7112:	0f b7 89 38 01 00 00 	movzwl 0x138(%rcx),%ecx
    7119:	66 44 39 f1          	cmp    %r14w,%cx
    711d:	0f 84 85 00 00 00    	je     71a8 <do_add_thread+0x1b8>
    7123:	41 8b 94 24 30 01 00 	mov    0x130(%r12),%edx
    712a:	00 
    712b:	83 c0 01             	add    $0x1,%eax
    712e:	39 c2                	cmp    %eax,%edx
    7130:	77 d6                	ja     7108 <do_add_thread+0x118>
    7132:	41 83 c6 01          	add    $0x1,%r14d
    7136:	66 41 83 fe 13       	cmp    $0x13,%r14w
    713b:	75 a3                	jne    70e0 <do_add_thread+0xf0>
    713d:	49 8d b4 24 e8 00 00 	lea    0xe8(%r12),%rsi
    7144:	00 
    7145:	ba 48 00 00 00       	mov    $0x48,%edx
    714a:	48 89 df             	mov    %rbx,%rdi
    714d:	e8 2e 5a 00 00       	callq  cb80 <memcpy>
    7152:	4c 89 e8             	mov    %r13,%rax
    7155:	31 ff                	xor    %edi,%edi
    7157:	48 89 de             	mov    %rbx,%rsi
    715a:	48 29 e8             	sub    %rbp,%rax
    715d:	48 01 43 10          	add    %rax,0x10(%rbx)
    7161:	4c 89 e8             	mov    %r13,%rax
    7164:	48 29 e8             	sub    %rbp,%rax
    7167:	48 01 43 30          	add    %rax,0x30(%rbx)
    716b:	4c 89 e8             	mov    %r13,%rax
    716e:	48 29 e8             	sub    %rbp,%rax
    7171:	48 01 43 38          	add    %rax,0x38(%rbx)
    7175:	e8 56 0b 00 00       	callq  7cd0 <sgx_ocall>
    717a:	85 c0                	test   %eax,%eax
    717c:	0f 85 04 ff ff ff    	jne    7086 <do_add_thread+0x96>
    7182:	49 8d 95 00 10 00 00 	lea    0x1000(%r13),%rdx
    7189:	4c 89 ee             	mov    %r13,%rsi
    718c:	bf 10 01 00 00       	mov    $0x110,%edi
    7191:	e8 5a f4 ff ff       	callq  65f0 <_ZL19sgx_accept_backwardmmm>
    7196:	85 c0                	test   %eax,%eax
    7198:	0f 95 c0             	setne  %al
    719b:	0f b6 c0             	movzbl %al,%eax
    719e:	e9 e8 fe ff ff       	jmpq   708b <do_add_thread+0x9b>
    71a3:	0f 1f 44 00 00       	nopl   0x0(%rax,%rax,1)
    71a8:	48 81 c2 38 01 00 00 	add    $0x138,%rdx
    71af:	4c 01 e2             	add    %r12,%rdx
    71b2:	0f 84 7a ff ff ff    	je     7132 <do_add_thread+0x142>
    71b8:	48 c1 e0 05          	shl    $0x5,%rax
    71bc:	4c 01 e0             	add    %r12,%rax
    71bf:	0f b7 90 3a 01 00 00 	movzwl 0x13a(%rax),%edx
    71c6:	83 e2 20             	and    $0x20,%edx
    71c9:	0f 84 63 ff ff ff    	je     7132 <do_add_thread+0x142>
    71cf:	48 8b 3c 24          	mov    (%rsp),%rdi
    71d3:	8b b0 3c 01 00 00    	mov    0x13c(%rax),%esi
    71d9:	48 8b 80 40 01 00 00 	mov    0x140(%rax),%rax
    71e0:	48 01 ef             	add    %rbp,%rdi
    71e3:	48 01 c7             	add    %rax,%rdi
    71e6:	e8 15 fd ff ff       	callq  6f00 <apply_EPC_pages>
    71eb:	85 c0                	test   %eax,%eax
    71ed:	0f 84 3f ff ff ff    	je     7132 <do_add_thread+0x142>
    71f3:	e9 8e fe ff ff       	jmpq   7086 <do_add_thread+0x96>
    71f8:	0f 1f 84 00 00 00 00 	nopl   0x0(%rax,%rax,1)
    71ff:	00 
    7200:	ba 38 01 00 00       	mov    $0x138,%edx
    7205:	31 c0                	xor    %eax,%eax
    7207:	eb a6                	jmp    71af <do_add_thread+0x1bf>
    7209:	ba 38 01 00 00       	mov    $0x138,%edx
    720e:	31 c0                	xor    %eax,%eax
    7210:	e9 a2 fe ff ff       	jmpq   70b7 <do_add_thread+0xc7>
    7215:	e8 f6 21 00 00       	callq  9410 <__stack_chk_fail>
    721a:	66 0f 1f 44 00 00    	nopw   0x0(%rax,%rax,1)

0000000000007220 <_pthread_thread_run>:
    7220:	31 c0                	xor    %eax,%eax
    7222:	c3                   	retq   
    7223:	66 2e 0f 1f 84 00 00 	nopw   %cs:0x0(%rax,%rax,1)
    722a:	00 00 00 
    722d:	0f 1f 00             	nopl   (%rax)

0000000000007230 <_ZL11do_save_tcsPv>:
    7230:	55                   	push   %rbp
    7231:	53                   	push   %rbx
    7232:	48 89 fb             	mov    %rdi,%rbx
    7235:	48 83 ec 18          	sub    $0x18,%rsp
    7239:	64 48 8b 04 25 28 00 	mov    %fs:0x28,%rax
    7240:	00 00 
    7242:	48 89 44 24 08       	mov    %rax,0x8(%rsp)
    7247:	31 c0                	xor    %eax,%eax
    7249:	48 83 3d 77 ae 00 00 	cmpq   $0x0,0xae77(%rip)        # 120c8 <_ZL12g_tcs_cookie>
    7250:	00 
    7251:	74 4d                	je     72a0 <_ZL11do_save_tcsPv+0x70>
    7253:	bf 10 00 00 00       	mov    $0x10,%edi
    7258:	e8 33 2a 00 00       	callq  9c90 <dlmalloc>
    725d:	48 89 c2             	mov    %rax,%rdx
    7260:	b8 01 00 00 00       	mov    $0x1,%eax
    7265:	48 85 d2             	test   %rdx,%rdx
    7268:	74 1e                	je     7288 <_ZL11do_save_tcsPv+0x58>
    726a:	48 33 1d 57 ae 00 00 	xor    0xae57(%rip),%rbx        # 120c8 <_ZL12g_tcs_cookie>
    7271:	48 8b 05 58 ae 00 00 	mov    0xae58(%rip),%rax        # 120d0 <_ZL10g_tcs_node>
    7278:	48 89 15 51 ae 00 00 	mov    %rdx,0xae51(%rip)        # 120d0 <_ZL10g_tcs_node>
    727f:	48 89 42 08          	mov    %rax,0x8(%rdx)
    7283:	31 c0                	xor    %eax,%eax
    7285:	48 89 1a             	mov    %rbx,(%rdx)
    7288:	48 8b 4c 24 08       	mov    0x8(%rsp),%rcx
    728d:	64 48 33 0c 25 28 00 	xor    %fs:0x28,%rcx
    7294:	00 00 
    7296:	75 5a                	jne    72f2 <_ZL11do_save_tcsPv+0xc2>
    7298:	48 83 c4 18          	add    $0x18,%rsp
    729c:	5b                   	pop    %rbx
    729d:	5d                   	pop    %rbp
    729e:	c3                   	retq   
    729f:	90                   	nop
    72a0:	48 c7 04 24 00 00 00 	movq   $0x0,(%rsp)
    72a7:	00 
    72a8:	48 89 e5             	mov    %rsp,%rbp
    72ab:	eb 0c                	jmp    72b9 <_ZL11do_save_tcsPv+0x89>
    72ad:	0f 1f 00             	nopl   (%rax)
    72b0:	48 8b 04 24          	mov    (%rsp),%rax
    72b4:	48 85 c0             	test   %rax,%rax
    72b7:	75 1f                	jne    72d8 <_ZL11do_save_tcsPv+0xa8>
    72b9:	be 08 00 00 00       	mov    $0x8,%esi
    72be:	48 89 ef             	mov    %rbp,%rdi
    72c1:	e8 aa f1 ff ff       	callq  6470 <sgx_read_rand>
    72c6:	85 c0                	test   %eax,%eax
    72c8:	74 e6                	je     72b0 <_ZL11do_save_tcsPv+0x80>
    72ca:	b8 01 00 00 00       	mov    $0x1,%eax
    72cf:	eb b7                	jmp    7288 <_ZL11do_save_tcsPv+0x58>
    72d1:	0f 1f 80 00 00 00 00 	nopl   0x0(%rax)
    72d8:	48 83 3d e8 ad 00 00 	cmpq   $0x0,0xade8(%rip)        # 120c8 <_ZL12g_tcs_cookie>
    72df:	00 
    72e0:	0f 85 6d ff ff ff    	jne    7253 <_ZL11do_save_tcsPv+0x23>
    72e6:	48 89 05 db ad 00 00 	mov    %rax,0xaddb(%rip)        # 120c8 <_ZL12g_tcs_cookie>
    72ed:	e9 61 ff ff ff       	jmpq   7253 <_ZL11do_save_tcsPv+0x23>
    72f2:	e8 19 21 00 00       	callq  9410 <__stack_chk_fail>
    72f7:	66 0f 1f 84 00 00 00 	nopw   0x0(%rax,%rax,1)
    72fe:	00 00 

0000000000007300 <_ZL18add_static_threadsPVK9_layout_tS1_m>:
    7300:	48 39 f7             	cmp    %rsi,%rdi
    7303:	0f 83 cf 00 00 00    	jae    73d8 <_ZL18add_static_threadsPVK9_layout_tS1_m+0xd8>
    7309:	41 56                	push   %r14
    730b:	41 55                	push   %r13
    730d:	41 54                	push   %r12
    730f:	49 89 d4             	mov    %rdx,%r12
    7312:	55                   	push   %rbp
    7313:	48 89 f5             	mov    %rsi,%rbp
    7316:	53                   	push   %rbx
    7317:	48 89 fb             	mov    %rdi,%rbx
    731a:	eb 11                	jmp    732d <_ZL18add_static_threadsPVK9_layout_tS1_m+0x2d>
    731c:	0f 1f 40 00          	nopl   0x0(%rax)
    7320:	48 83 c3 20          	add    $0x20,%rbx
    7324:	48 39 dd             	cmp    %rbx,%rbp
    7327:	0f 86 9b 00 00 00    	jbe    73c8 <_ZL18add_static_threadsPVK9_layout_tS1_m+0xc8>
    732d:	0f b7 03             	movzwl (%rbx),%eax
    7330:	f6 c4 10             	test   $0x10,%ah
    7333:	75 13                	jne    7348 <_ZL18add_static_threadsPVK9_layout_tS1_m+0x48>
    7335:	48 8b 43 18          	mov    0x18(%rbx),%rax
    7339:	f6 c4 01             	test   $0x1,%ah
    733c:	74 0a                	je     7348 <_ZL18add_static_threadsPVK9_layout_tS1_m+0x48>
    733e:	0f b7 43 02          	movzwl 0x2(%rbx),%eax
    7342:	66 83 f8 03          	cmp    $0x3,%ax
    7346:	74 50                	je     7398 <_ZL18add_static_threadsPVK9_layout_tS1_m+0x98>
    7348:	0f b7 03             	movzwl (%rbx),%eax
    734b:	f6 c4 10             	test   $0x10,%ah
    734e:	74 d0                	je     7320 <_ZL18add_static_threadsPVK9_layout_tS1_m+0x20>
    7350:	8b 43 04             	mov    0x4(%rbx),%eax
    7353:	85 c0                	test   %eax,%eax
    7355:	74 c9                	je     7320 <_ZL18add_static_threadsPVK9_layout_tS1_m+0x20>
    7357:	45 31 f6             	xor    %r14d,%r14d
    735a:	45 31 ed             	xor    %r13d,%r13d
    735d:	48 8b 43 08          	mov    0x8(%rbx),%rax
    7361:	0f b7 7b 02          	movzwl 0x2(%rbx),%edi
    7365:	48 89 de             	mov    %rbx,%rsi
    7368:	49 01 c5             	add    %rax,%r13
    736b:	f7 df                	neg    %edi
    736d:	4c 89 ea             	mov    %r13,%rdx
    7370:	48 63 ff             	movslq %edi,%rdi
    7373:	48 c1 e7 05          	shl    $0x5,%rdi
    7377:	48 01 df             	add    %rbx,%rdi
    737a:	e8 81 ff ff ff       	callq  7300 <_ZL18add_static_threadsPVK9_layout_tS1_m>
    737f:	85 c0                	test   %eax,%eax
    7381:	75 38                	jne    73bb <_ZL18add_static_threadsPVK9_layout_tS1_m+0xbb>
    7383:	8b 43 04             	mov    0x4(%rbx),%eax
    7386:	41 83 c6 01          	add    $0x1,%r14d
    738a:	44 39 f0             	cmp    %r14d,%eax
    738d:	77 ce                	ja     735d <_ZL18add_static_threadsPVK9_layout_tS1_m+0x5d>
    738f:	eb 8f                	jmp    7320 <_ZL18add_static_threadsPVK9_layout_tS1_m+0x20>
    7391:	0f 1f 80 00 00 00 00 	nopl   0x0(%rax)
    7398:	48 8b 7b 08          	mov    0x8(%rbx),%rdi
    739c:	4e 8d 2c 27          	lea    (%rdi,%r12,1),%r13
    73a0:	e8 21 66 00 00       	callq  d9c6 <get_enclave_base>
    73a5:	4a 8d 3c 28          	lea    (%rax,%r13,1),%rdi
    73a9:	e8 82 fe ff ff       	callq  7230 <_ZL11do_save_tcsPv>
    73ae:	85 c0                	test   %eax,%eax
    73b0:	0f 84 6a ff ff ff    	je     7320 <_ZL18add_static_threadsPVK9_layout_tS1_m+0x20>
    73b6:	b8 ff ff ff ff       	mov    $0xffffffff,%eax
    73bb:	5b                   	pop    %rbx
    73bc:	5d                   	pop    %rbp
    73bd:	41 5c                	pop    %r12
    73bf:	41 5d                	pop    %r13
    73c1:	41 5e                	pop    %r14
    73c3:	c3                   	retq   
    73c4:	0f 1f 40 00          	nopl   0x0(%rax)
    73c8:	5b                   	pop    %rbx
    73c9:	31 c0                	xor    %eax,%eax
    73cb:	5d                   	pop    %rbp
    73cc:	41 5c                	pop    %r12
    73ce:	41 5d                	pop    %r13
    73d0:	41 5e                	pop    %r14
    73d2:	c3                   	retq   
    73d3:	0f 1f 44 00 00       	nopl   0x0(%rax,%rax,1)
    73d8:	31 c0                	xor    %eax,%eax
    73da:	c3                   	retq   
    73db:	0f 1f 44 00 00       	nopl   0x0(%rax,%rax,1)

00000000000073e0 <_ZL10trts_ecalljPv>:
    73e0:	0f b6 05 25 ac 00 00 	movzbl 0xac25(%rip),%eax        # 1200c <_ZL16g_is_first_ecall>
    73e7:	41 54                	push   %r12
    73e9:	55                   	push   %rbp
    73ea:	48 89 f5             	mov    %rsi,%rbp
    73ed:	53                   	push   %rbx
    73ee:	89 fb                	mov    %edi,%ebx
    73f0:	84 c0                	test   %al,%al
    73f2:	0f 85 c8 00 00 00    	jne    74c0 <_ZL10trts_ecalljPv+0xe0>
    73f8:	83 fb fa             	cmp    $0xfffffffa,%ebx
    73fb:	74 73                	je     7470 <_ZL10trts_ecalljPv+0x90>
    73fd:	4c 8d 25 bc a9 00 00 	lea    0xa9bc(%rip),%r12        # 11dc0 <g_ecall_table>
    7404:	49 3b 1c 24          	cmp    (%r12),%rbx
    7408:	73 7e                	jae    7488 <_ZL10trts_ecalljPv+0xa8>
    740a:	e8 f2 65 00 00       	callq  da01 <get_thread_data>
    740f:	0f ae e8             	lfence 
    7412:	48 8b 50 08          	mov    0x8(%rax),%rdx
    7416:	48 3b 50 10          	cmp    0x10(%rax),%rdx
    741a:	0f 84 80 00 00 00    	je     74a0 <_ZL10trts_ecalljPv+0xc0>
    7420:	48 81 7a 20 44 49 43 	cmpq   $0x4f434944,0x20(%rdx)
    7427:	4f 
    7428:	0f 85 3e 01 00 00    	jne    756c <_ZL10trts_ecalljPv+0x18c>
    742e:	48 8d 05 cb 6b 00 00 	lea    0x6bcb(%rip),%rax        # e000 <g_dyn_entry_table>
    7435:	48 8b 52 28          	mov    0x28(%rdx),%rdx
    7439:	48 3b 10             	cmp    (%rax),%rdx
    743c:	73 4a                	jae    7488 <_ZL10trts_ecalljPv+0xa8>
    743e:	49 0f af 14 24       	imul   (%r12),%rdx
    7443:	48 01 d8             	add    %rbx,%rax
    7446:	80 7c 02 08 00       	cmpb   $0x0,0x8(%rdx,%rax,1)
    744b:	74 62                	je     74af <_ZL10trts_ecalljPv+0xcf>
    744d:	48 c1 e3 04          	shl    $0x4,%rbx
    7451:	31 f6                	xor    %esi,%esi
    7453:	49 8b 5c 1c 08       	mov    0x8(%r12,%rbx,1),%rbx
    7458:	48 89 df             	mov    %rbx,%rdi
    745b:	e8 30 ee ff ff       	callq  6290 <sgx_is_within_enclave>
    7460:	85 c0                	test   %eax,%eax
    7462:	0f 84 e8 00 00 00    	je     7550 <_ZL10trts_ecalljPv+0x170>
    7468:	48 89 d8             	mov    %rbx,%rax
    746b:	eb 0a                	jmp    7477 <_ZL10trts_ecalljPv+0x97>
    746d:	0f 1f 00             	nopl   (%rax)
    7470:	48 8d 05 a9 fd ff ff 	lea    -0x257(%rip),%rax        # 7220 <_pthread_thread_run>
    7477:	0f ae e8             	lfence 
    747a:	48 89 ef             	mov    %rbp,%rdi
    747d:	5b                   	pop    %rbx
    747e:	5d                   	pop    %rbp
    747f:	41 5c                	pop    %r12
    7481:	ff e0                	jmpq   *%rax
    7483:	0f 1f 44 00 00       	nopl   0x0(%rax,%rax,1)
    7488:	41 bc 01 10 00 00    	mov    $0x1001,%r12d
    748e:	44 89 e0             	mov    %r12d,%eax
    7491:	5b                   	pop    %rbx
    7492:	5d                   	pop    %rbp
    7493:	41 5c                	pop    %r12
    7495:	c3                   	retq   
    7496:	66 2e 0f 1f 84 00 00 	nopw   %cs:0x0(%rax,%rax,1)
    749d:	00 00 00 
    74a0:	48 89 d8             	mov    %rbx,%rax
    74a3:	48 c1 e0 04          	shl    $0x4,%rax
    74a7:	41 80 7c 04 10 00    	cmpb   $0x0,0x10(%r12,%rax,1)
    74ad:	74 9e                	je     744d <_ZL10trts_ecalljPv+0x6d>
    74af:	41 bc 07 10 00 00    	mov    $0x1007,%r12d
    74b5:	44 89 e0             	mov    %r12d,%eax
    74b8:	5b                   	pop    %rbx
    74b9:	5d                   	pop    %rbp
    74ba:	41 5c                	pop    %r12
    74bc:	c3                   	retq   
    74bd:	0f 1f 00             	nopl   (%rax)
    74c0:	e8 3c 65 00 00       	callq  da01 <get_thread_data>
    74c5:	48 8b 48 10          	mov    0x10(%rax),%rcx
    74c9:	48 39 48 08          	cmp    %rcx,0x8(%rax)
    74cd:	75 e0                	jne    74af <_ZL10trts_ecalljPv+0xcf>
    74cf:	48 8d 3d ee ab 00 00 	lea    0xabee(%rip),%rdi        # 120c4 <_ZL10g_ife_lock>
    74d6:	e8 d5 58 00 00       	callq  cdb0 <sgx_spin_lock>
    74db:	0f b6 05 2a ab 00 00 	movzbl 0xab2a(%rip),%eax        # 1200c <_ZL16g_is_first_ecall>
    74e2:	84 c0                	test   %al,%al
    74e4:	74 52                	je     7538 <_ZL10trts_ecalljPv+0x158>
    74e6:	48 8d 05 3b a9 00 00 	lea    0xa93b(%rip),%rax        # 11e28 <EDMM_supported>
    74ed:	8b 00                	mov    (%rax),%eax
    74ef:	85 c0                	test   %eax,%eax
    74f1:	74 39                	je     752c <_ZL10trts_ecalljPv+0x14c>
    74f3:	48 8d 05 c6 6b 00 00 	lea    0x6bc6(%rip),%rax        # e0c0 <g_global_data>
    74fa:	31 d2                	xor    %edx,%edx
    74fc:	8b b0 30 01 00 00    	mov    0x130(%rax),%esi
    7502:	48 8d b8 38 01 00 00 	lea    0x138(%rax),%rdi
    7509:	48 c1 e6 05          	shl    $0x5,%rsi
    750d:	48 01 fe             	add    %rdi,%rsi
    7510:	e8 eb fd ff ff       	callq  7300 <_ZL18add_static_threadsPVK9_layout_tS1_m>
    7515:	85 c0                	test   %eax,%eax
    7517:	75 37                	jne    7550 <_ZL10trts_ecalljPv+0x170>
    7519:	48 8d 3d e0 8a ff ff 	lea    -0x7520(%rip),%rdi        # 0 <__ImageBase>
    7520:	e8 8b 19 00 00       	callq  8eb0 <change_protection>
    7525:	85 c0                	test   %eax,%eax
    7527:	41 89 c4             	mov    %eax,%r12d
    752a:	75 2f                	jne    755b <_ZL10trts_ecalljPv+0x17b>
    752c:	e8 2f 1d 00 00       	callq  9260 <init_global_object>
    7531:	c6 05 d4 aa 00 00 00 	movb   $0x0,0xaad4(%rip)        # 1200c <_ZL16g_is_first_ecall>
    7538:	48 8d 3d 85 ab 00 00 	lea    0xab85(%rip),%rdi        # 120c4 <_ZL10g_ife_lock>
    753f:	e8 cc 58 00 00       	callq  ce10 <sgx_spin_unlock>
    7544:	e9 af fe ff ff       	jmpq   73f8 <_ZL10trts_ecalljPv+0x18>
    7549:	0f 1f 80 00 00 00 00 	nopl   0x0(%rax)
    7550:	41 bc 01 00 00 00    	mov    $0x1,%r12d
    7556:	e9 33 ff ff ff       	jmpq   748e <_ZL10trts_ecalljPv+0xae>
    755b:	48 8d 3d 62 ab 00 00 	lea    0xab62(%rip),%rdi        # 120c4 <_ZL10g_ife_lock>
    7562:	e8 a9 58 00 00       	callq  ce10 <sgx_spin_unlock>
    7567:	e9 22 ff ff ff       	jmpq   748e <_ZL10trts_ecalljPv+0xae>
    756c:	e8 bf 67 00 00       	callq  dd30 <abort>
    7571:	66 2e 0f 1f 84 00 00 	nopw   %cs:0x0(%rax,%rax,1)
    7578:	00 00 00 
    757b:	0f 1f 44 00 00       	nopl   0x0(%rax,%rax,1)

0000000000007580 <_Z30_random_stack_noinline_wrapperI9_status_tJjPvEJRiRS1_EET_PFS4_DpT0_EDpOT1_.isra.0.constprop.3>:
    7580:	e9 5b fe ff ff       	jmpq   73e0 <_ZL10trts_ecalljPv>
    7585:	66 2e 0f 1f 84 00 00 	nopw   %cs:0x0(%rax,%rax,1)
    758c:	00 00 00 
    758f:	90                   	nop

0000000000007590 <_Z16_pthread_enabledv>:
    7590:	31 c0                	xor    %eax,%eax
    7592:	c3                   	retq   
    7593:	66 2e 0f 1f 84 00 00 	nopw   %cs:0x0(%rax,%rax,1)
    759a:	00 00 00 
    759d:	0f 1f 00             	nopl   (%rax)

00000000000075a0 <_Z24_pthread_tls_store_state9_status_t>:
    75a0:	f3 c3                	repz retq 
    75a2:	66 2e 0f 1f 84 00 00 	nopw   %cs:0x0(%rax,%rax,1)
    75a9:	00 00 00 
    75ac:	0f 1f 40 00          	nopl   0x0(%rax)

00000000000075b0 <_Z22_pthread_tls_get_statev>:
    75b0:	31 c0                	xor    %eax,%eax
    75b2:	c3                   	retq   
    75b3:	66 2e 0f 1f 84 00 00 	nopw   %cs:0x0(%rax,%rax,1)
    75ba:	00 00 00 
    75bd:	0f 1f 00             	nopl   (%rax)

00000000000075c0 <_Z26_pthread_tls_store_contextPv>:
    75c0:	f3 c3                	repz retq 
    75c2:	66 2e 0f 1f 84 00 00 	nopw   %cs:0x0(%rax,%rax,1)
    75c9:	00 00 00 
    75cc:	0f 1f 40 00          	nopl   0x0(%rax)

00000000000075d0 <_Z20_pthread_wakeup_joinPv>:
    75d0:	f3 c3                	repz retq 
    75d2:	66 2e 0f 1f 84 00 00 	nopw   %cs:0x0(%rax,%rax,1)
    75d9:	00 00 00 
    75dc:	0f 1f 40 00          	nopl   0x0(%rax)

00000000000075e0 <_Z24_pthread_tls_destructorsv>:
    75e0:	f3 c3                	repz retq 
    75e2:	66 2e 0f 1f 84 00 00 	nopw   %cs:0x0(%rax,%rax,1)
    75e9:	00 00 00 
    75ec:	0f 1f 40 00          	nopl   0x0(%rax)

00000000000075f0 <do_init_thread>:
    75f0:	41 57                	push   %r15
    75f2:	41 56                	push   %r14
    75f4:	ba a0 00 00 00       	mov    $0xa0,%edx
    75f9:	41 55                	push   %r13
    75fb:	41 54                	push   %r12
    75fd:	41 89 f4             	mov    %esi,%r12d
    7600:	55                   	push   %rbp
    7601:	53                   	push   %rbx
    7602:	48 89 fd             	mov    %rdi,%rbp
    7605:	48 83 ec 28          	sub    $0x28,%rsp
    7609:	64 48 8b 04 25 28 00 	mov    %fs:0x28,%rax
    7610:	00 00 
    7612:	48 89 44 24 18       	mov    %rax,0x18(%rsp)
    7617:	31 c0                	xor    %eax,%eax
    7619:	48 8d 05 a0 6a 00 00 	lea    0x6aa0(%rip),%rax        # e0c0 <g_global_data>
    7620:	48 8b 58 48          	mov    0x48(%rax),%rbx
    7624:	48 8d 70 48          	lea    0x48(%rax),%rsi
    7628:	48 01 fb             	add    %rdi,%rbx
    762b:	48 89 df             	mov    %rbx,%rdi
    762e:	4c 8b 7b 28          	mov    0x28(%rbx),%r15
    7632:	4c 8b 73 30          	mov    0x30(%rbx),%r14
    7636:	4c 8b ab 98 00 00 00 	mov    0x98(%rbx),%r13
    763d:	e8 3e 55 00 00       	callq  cb80 <memcpy>
    7642:	48 8b 53 18          	mov    0x18(%rbx),%rdx
    7646:	48 8d 85 50 fd ff ff 	lea    -0x2b0(%rbp),%rax
    764d:	48 01 2b             	add    %rbp,(%rbx)
    7650:	48 01 6b 20          	add    %rbp,0x20(%rbx)
    7654:	4c 89 7b 28          	mov    %r15,0x28(%rbx)
    7658:	48 01 6b 58          	add    %rbp,0x58(%rbx)
    765c:	4c 89 73 30          	mov    %r14,0x30(%rbx)
    7660:	48 01 ea             	add    %rbp,%rdx
    7663:	48 01 6b 50          	add    %rbp,0x50(%rbx)
    7667:	48 89 53 18          	mov    %rdx,0x18(%rbx)
    766b:	48 89 93 98 00 00 00 	mov    %rdx,0x98(%rbx)
    7672:	48 8b 53 08          	mov    0x8(%rbx),%rdx
    7676:	48 01 c2             	add    %rax,%rdx
    7679:	48 03 43 10          	add    0x10(%rbx),%rax
    767d:	48 89 53 08          	mov    %rdx,0x8(%rbx)
    7681:	48 89 43 10          	mov    %rax,0x10(%rbx)
    7685:	48 8d 05 8c a7 00 00 	lea    0xa78c(%rip),%rax        # 11e18 <__intel_security_cookie>
    768c:	48 8b 00             	mov    (%rax),%rax
    768f:	48 89 85 58 fd fe ff 	mov    %rax,-0x102a8(%rbp)
    7696:	48 8d 05 8b a7 00 00 	lea    0xa78b(%rip),%rax        # 11e28 <EDMM_supported>
    769d:	8b 00                	mov    (%rax),%eax
    769f:	85 c0                	test   %eax,%eax
    76a1:	0f 84 89 00 00 00    	je     7730 <do_init_thread+0x140>
    76a7:	45 84 e4             	test   %r12b,%r12b
    76aa:	0f 84 90 00 00 00    	je     7740 <do_init_thread+0x150>
    76b0:	4d 85 ed             	test   %r13,%r13
    76b3:	48 c7 43 30 01 00 00 	movq   $0x1,0x30(%rbx)
    76ba:	00 
    76bb:	75 78                	jne    7735 <do_init_thread+0x145>
    76bd:	e8 ce f4 ff ff       	callq  6b90 <get_dynamic_stack_max_page>
    76c2:	89 c0                	mov    %eax,%eax
    76c4:	48 c1 e0 0c          	shl    $0xc,%rax
    76c8:	48 01 83 98 00 00 00 	add    %rax,0x98(%rbx)
    76cf:	90                   	nop
    76d0:	48 8d 3d 29 89 ff ff 	lea    -0x76d7(%rip),%rdi        # 0 <__ImageBase>
    76d7:	48 8d 54 24 10       	lea    0x10(%rsp),%rdx
    76dc:	48 8d 74 24 08       	lea    0x8(%rsp),%rsi
    76e1:	48 c7 44 24 08 00 00 	movq   $0x0,0x8(%rsp)
    76e8:	00 00 
    76ea:	48 c7 44 24 10 00 00 	movq   $0x0,0x10(%rsp)
    76f1:	00 00 
    76f3:	e8 58 15 00 00       	callq  8c50 <elf_tls_info>
    76f8:	85 c0                	test   %eax,%eax
    76fa:	ba 01 00 00 00       	mov    $0x1,%edx
    76ff:	75 0a                	jne    770b <do_init_thread+0x11b>
    7701:	48 83 7c 24 08 00    	cmpq   $0x0,0x8(%rsp)
    7707:	75 57                	jne    7760 <do_init_thread+0x170>
    7709:	31 d2                	xor    %edx,%edx
    770b:	48 8b 4c 24 18       	mov    0x18(%rsp),%rcx
    7710:	64 48 33 0c 25 28 00 	xor    %fs:0x28,%rcx
    7717:	00 00 
    7719:	89 d0                	mov    %edx,%eax
    771b:	0f 85 8c 00 00 00    	jne    77ad <do_init_thread+0x1bd>
    7721:	48 83 c4 28          	add    $0x28,%rsp
    7725:	5b                   	pop    %rbx
    7726:	5d                   	pop    %rbp
    7727:	41 5c                	pop    %r12
    7729:	41 5d                	pop    %r13
    772b:	41 5e                	pop    %r14
    772d:	41 5f                	pop    %r15
    772f:	c3                   	retq   
    7730:	4d 85 ed             	test   %r13,%r13
    7733:	74 9b                	je     76d0 <do_init_thread+0xe0>
    7735:	4c 89 ab 98 00 00 00 	mov    %r13,0x98(%rbx)
    773c:	eb 92                	jmp    76d0 <do_init_thread+0xe0>
    773e:	66 90                	xchg   %ax,%ax
    7740:	4d 85 ed             	test   %r13,%r13
    7743:	75 f0                	jne    7735 <do_init_thread+0x145>
    7745:	48 89 ef             	mov    %rbp,%rdi
    7748:	e8 63 f3 ff ff       	callq  6ab0 <is_dynamic_thread>
    774d:	85 c0                	test   %eax,%eax
    774f:	0f 85 68 ff ff ff    	jne    76bd <do_init_thread+0xcd>
    7755:	e9 76 ff ff ff       	jmpq   76d0 <do_init_thread+0xe0>
    775a:	66 0f 1f 44 00 00    	nopw   0x0(%rax,%rax,1)
    7760:	48 8b 03             	mov    (%rbx),%rax
    7763:	48 8b 7b 50          	mov    0x50(%rbx),%rdi
    7767:	31 f6                	xor    %esi,%esi
    7769:	48 8d 90 ff 0f 00 00 	lea    0xfff(%rax),%rdx
    7770:	48 29 fa             	sub    %rdi,%rdx
    7773:	48 81 e7 00 f0 ff ff 	and    $0xfffffffffffff000,%rdi
    777a:	48 81 e2 00 f0 ff ff 	and    $0xfffffffffffff000,%rdx
    7781:	e8 47 54 00 00       	callq  cbcd <memset>
    7786:	48 8b 7b 50          	mov    0x50(%rbx),%rdi
    778a:	48 8b 03             	mov    (%rbx),%rax
    778d:	48 8b 54 24 10       	mov    0x10(%rsp),%rdx
    7792:	48 29 f8             	sub    %rdi,%rax
    7795:	48 39 c2             	cmp    %rax,%rdx
    7798:	0f 87 6b ff ff ff    	ja     7709 <do_init_thread+0x119>
    779e:	48 8b 74 24 08       	mov    0x8(%rsp),%rsi
    77a3:	e8 d8 53 00 00       	callq  cb80 <memcpy>
    77a8:	e9 5c ff ff ff       	jmpq   7709 <do_init_thread+0x119>
    77ad:	e8 5e 1c 00 00       	callq  9410 <__stack_chk_fail>
    77b2:	66 2e 0f 1f 84 00 00 	nopw   %cs:0x0(%rax,%rax,1)
    77b9:	00 00 00 
    77bc:	0f 1f 40 00          	nopl   0x0(%rax)

00000000000077c0 <do_ecall>:
    77c0:	55                   	push   %rbp
    77c1:	53                   	push   %rbx
    77c2:	48 89 d5             	mov    %rdx,%rbp
    77c5:	bb 01 00 00 00       	mov    $0x1,%ebx
    77ca:	48 83 ec 78          	sub    $0x78,%rsp
    77ce:	64 48 8b 04 25 28 00 	mov    %fs:0x28,%rax
    77d5:	00 00 
    77d7:	48 89 44 24 68       	mov    %rax,0x68(%rsp)
    77dc:	31 c0                	xor    %eax,%eax
    77de:	89 7c 24 14          	mov    %edi,0x14(%rsp)
    77e2:	48 89 74 24 08       	mov    %rsi,0x8(%rsp)
    77e7:	e8 e2 61 00 00       	callq  d9ce <get_enclave_state>
    77ec:	83 f8 02             	cmp    $0x2,%eax
    77ef:	74 1f                	je     7810 <do_ecall+0x50>
    77f1:	48 8b 4c 24 68       	mov    0x68(%rsp),%rcx
    77f6:	64 48 33 0c 25 28 00 	xor    %fs:0x28,%rcx
    77fd:	00 00 
    77ff:	89 d8                	mov    %ebx,%eax
    7801:	0f 85 51 01 00 00    	jne    7958 <do_ecall+0x198>
    7807:	48 83 c4 78          	add    $0x78,%rsp
    780b:	5b                   	pop    %rbx
    780c:	5d                   	pop    %rbp
    780d:	c3                   	retq   
    780e:	66 90                	xchg   %ax,%ax
    7810:	e8 ec 61 00 00       	callq  da01 <get_thread_data>
    7815:	48 85 c0             	test   %rax,%rax
    7818:	74 4a                	je     7864 <do_ecall+0xa4>
    781a:	48 8b 48 08          	mov    0x8(%rax),%rcx
    781e:	48 39 48 10          	cmp    %rcx,0x10(%rax)
    7822:	74 2c                	je     7850 <do_ecall+0x90>
    7824:	e8 d8 61 00 00       	callq  da01 <get_thread_data>
    7829:	48 8b 50 08          	mov    0x8(%rax),%rdx
    782d:	48 39 50 10          	cmp    %rdx,0x10(%rax)
    7831:	48 89 44 24 18       	mov    %rax,0x18(%rsp)
    7836:	74 48                	je     7880 <do_ecall+0xc0>
    7838:	48 8b 74 24 08       	mov    0x8(%rsp),%rsi
    783d:	8b 7c 24 14          	mov    0x14(%rsp),%edi
    7841:	e8 9a fb ff ff       	callq  73e0 <_ZL10trts_ecalljPv>
    7846:	89 c3                	mov    %eax,%ebx
    7848:	eb a7                	jmp    77f1 <do_ecall+0x31>
    784a:	66 0f 1f 44 00 00    	nopw   0x0(%rax,%rax,1)
    7850:	48 8d 05 69 68 00 00 	lea    0x6869(%rip),%rax        # e0c0 <g_global_data>
    7857:	48 8b 40 38          	mov    0x38(%rax),%rax
    785b:	48 85 c0             	test   %rax,%rax
    785e:	0f 84 7c 00 00 00    	je     78e0 <do_ecall+0x120>
    7864:	31 f6                	xor    %esi,%esi
    7866:	48 89 ef             	mov    %rbp,%rdi
    7869:	e8 82 fd ff ff       	callq  75f0 <do_init_thread>
    786e:	85 c0                	test   %eax,%eax
    7870:	89 c3                	mov    %eax,%ebx
    7872:	74 b0                	je     7824 <do_ecall+0x64>
    7874:	e9 78 ff ff ff       	jmpq   77f1 <do_ecall+0x31>
    7879:	0f 1f 80 00 00 00 00 	nopl   0x0(%rax)
    7880:	e8 0b fd ff ff       	callq  7590 <_Z16_pthread_enabledv>
    7885:	84 c0                	test   %al,%al
    7887:	74 77                	je     7900 <do_ecall+0x140>
    7889:	66 0f ef c0          	pxor   %xmm0,%xmm0
    788d:	48 8d 7c 24 20       	lea    0x20(%rsp),%rdi
    7892:	0f 29 44 24 20       	movaps %xmm0,0x20(%rsp)
    7897:	0f 29 44 24 30       	movaps %xmm0,0x30(%rsp)
    789c:	0f 29 44 24 40       	movaps %xmm0,0x40(%rsp)
    78a1:	0f 29 44 24 50       	movaps %xmm0,0x50(%rsp)
    78a6:	e8 6e 55 00 00       	callq  ce19 <setjmp>
    78ab:	85 c0                	test   %eax,%eax
    78ad:	74 71                	je     7920 <do_ecall+0x160>
    78af:	48 8b 74 24 18       	mov    0x18(%rsp),%rsi
    78b4:	bb 09 00 00 00       	mov    $0x9,%ebx
    78b9:	48 8b 46 10          	mov    0x10(%rsi),%rax
    78bd:	48 89 46 08          	mov    %rax,0x8(%rsi)
    78c1:	bf 09 00 00 00       	mov    $0x9,%edi
    78c6:	e8 d5 fc ff ff       	callq  75a0 <_Z24_pthread_tls_store_state9_status_t>
    78cb:	e8 10 fd ff ff       	callq  75e0 <_Z24_pthread_tls_destructorsv>
    78d0:	48 8b 7c 24 08       	mov    0x8(%rsp),%rdi
    78d5:	e8 f6 fc ff ff       	callq  75d0 <_Z20_pthread_wakeup_joinPv>
    78da:	e9 12 ff ff ff       	jmpq   77f1 <do_ecall+0x31>
    78df:	90                   	nop
    78e0:	e8 cb fc ff ff       	callq  75b0 <_Z22_pthread_tls_get_statev>
    78e5:	83 f8 09             	cmp    $0x9,%eax
    78e8:	0f 84 76 ff ff ff    	je     7864 <do_ecall+0xa4>
    78ee:	83 7c 24 14 fa       	cmpl   $0xfffffffa,0x14(%rsp)
    78f3:	0f 85 2b ff ff ff    	jne    7824 <do_ecall+0x64>
    78f9:	e9 66 ff ff ff       	jmpq   7864 <do_ecall+0xa4>
    78fe:	66 90                	xchg   %ax,%ax
    7900:	0f c7 f0             	rdrand %eax
    7903:	73 fb                	jae    7900 <do_ecall+0x140>
    7905:	48 8b 74 24 08       	mov    0x8(%rsp),%rsi
    790a:	8b 7c 24 14          	mov    0x14(%rsp),%edi
    790e:	e8 6d fc ff ff       	callq  7580 <_Z30_random_stack_noinline_wrapperI9_status_tJjPvEJRiRS1_EET_PFS4_DpT0_EDpOT1_.isra.0.constprop.3>
    7913:	89 c3                	mov    %eax,%ebx
    7915:	e9 d7 fe ff ff       	jmpq   77f1 <do_ecall+0x31>
    791a:	66 0f 1f 44 00 00    	nopw   0x0(%rax,%rax,1)
    7920:	48 8d 7c 24 20       	lea    0x20(%rsp),%rdi
    7925:	e8 96 fc ff ff       	callq  75c0 <_Z26_pthread_tls_store_contextPv>
    792a:	0f c7 f0             	rdrand %eax
    792d:	73 fb                	jae    792a <do_ecall+0x16a>
    792f:	8b 6c 24 14          	mov    0x14(%rsp),%ebp
    7933:	48 8b 74 24 08       	mov    0x8(%rsp),%rsi
    7938:	89 ef                	mov    %ebp,%edi
    793a:	e8 41 fc ff ff       	callq  7580 <_Z30_random_stack_noinline_wrapperI9_status_tJjPvEJRiRS1_EET_PFS4_DpT0_EDpOT1_.isra.0.constprop.3>
    793f:	83 fd fa             	cmp    $0xfffffffa,%ebp
    7942:	89 c3                	mov    %eax,%ebx
    7944:	0f 84 77 ff ff ff    	je     78c1 <do_ecall+0x101>
    794a:	83 fb 09             	cmp    $0x9,%ebx
    794d:	0f 85 78 ff ff ff    	jne    78cb <do_ecall+0x10b>
    7953:	e9 69 ff ff ff       	jmpq   78c1 <do_ecall+0x101>
    7958:	e8 b3 1a 00 00       	callq  9410 <__stack_chk_fail>
    795d:	0f 1f 00             	nopl   (%rax)

0000000000007960 <do_ecall_add_thread>:
    7960:	55                   	push   %rbp
    7961:	53                   	push   %rbx
    7962:	48 89 fb             	mov    %rdi,%rbx
    7965:	48 83 ec 08          	sub    $0x8,%rsp
    7969:	e8 72 08 00 00       	callq  81e0 <is_utility_thread>
    796e:	48 85 db             	test   %rbx,%rbx
    7971:	74 04                	je     7977 <do_ecall_add_thread+0x17>
    7973:	3c 01                	cmp    $0x1,%al
    7975:	74 11                	je     7988 <do_ecall_add_thread+0x28>
    7977:	bb 01 00 00 00       	mov    $0x1,%ebx
    797c:	48 83 c4 08          	add    $0x8,%rsp
    7980:	89 d8                	mov    %ebx,%eax
    7982:	5b                   	pop    %rbx
    7983:	5d                   	pop    %rbp
    7984:	c3                   	retq   
    7985:	0f 1f 00             	nopl   (%rax)
    7988:	be 08 00 00 00       	mov    $0x8,%esi
    798d:	48 89 df             	mov    %rbx,%rdi
    7990:	e8 4b e9 ff ff       	callq  62e0 <sgx_is_outside_enclave>
    7995:	85 c0                	test   %eax,%eax
    7997:	74 de                	je     7977 <do_ecall_add_thread+0x17>
    7999:	48 8b 2b             	mov    (%rbx),%rbp
    799c:	48 85 ed             	test   %rbp,%rbp
    799f:	74 d6                	je     7977 <do_ecall_add_thread+0x17>
    79a1:	48 89 ef             	mov    %rbp,%rdi
    79a4:	0f ae e8             	lfence 
    79a7:	e8 84 f8 ff ff       	callq  7230 <_ZL11do_save_tcsPv>
    79ac:	85 c0                	test   %eax,%eax
    79ae:	89 c3                	mov    %eax,%ebx
    79b0:	75 ca                	jne    797c <do_ecall_add_thread+0x1c>
    79b2:	48 89 ef             	mov    %rbp,%rdi
    79b5:	e8 36 f6 ff ff       	callq  6ff0 <do_add_thread>
    79ba:	85 c0                	test   %eax,%eax
    79bc:	89 c3                	mov    %eax,%ebx
    79be:	74 bc                	je     797c <do_ecall_add_thread+0x1c>
    79c0:	e8 1b 08 00 00       	callq  81e0 <is_utility_thread>
    79c5:	84 c0                	test   %al,%al
    79c7:	74 b3                	je     797c <do_ecall_add_thread+0x1c>
    79c9:	48 8b 15 00 a7 00 00 	mov    0xa700(%rip),%rdx        # 120d0 <_ZL10g_tcs_node>
    79d0:	48 85 d2             	test   %rdx,%rdx
    79d3:	74 a7                	je     797c <do_ecall_add_thread+0x1c>
    79d5:	48 8b 0d ec a6 00 00 	mov    0xa6ec(%rip),%rcx        # 120c8 <_ZL12g_tcs_cookie>
    79dc:	48 8b 32             	mov    (%rdx),%rsi
    79df:	48 8b 42 08          	mov    0x8(%rdx),%rax
    79e3:	48 31 ce             	xor    %rcx,%rsi
    79e6:	48 39 f5             	cmp    %rsi,%rbp
    79e9:	74 42                	je     7a2d <do_ecall_add_thread+0xcd>
    79eb:	48 85 c0             	test   %rax,%rax
    79ee:	74 8c                	je     797c <do_ecall_add_thread+0x1c>
    79f0:	48 8b 30             	mov    (%rax),%rsi
    79f3:	48 31 ce             	xor    %rcx,%rsi
    79f6:	48 39 f5             	cmp    %rsi,%rbp
    79f9:	75 08                	jne    7a03 <do_ecall_add_thread+0xa3>
    79fb:	eb 44                	jmp    7a41 <do_ecall_add_thread+0xe1>
    79fd:	0f 1f 00             	nopl   (%rax)
    7a00:	48 89 f8             	mov    %rdi,%rax
    7a03:	48 8b 78 08          	mov    0x8(%rax),%rdi
    7a07:	48 85 ff             	test   %rdi,%rdi
    7a0a:	0f 84 6c ff ff ff    	je     797c <do_ecall_add_thread+0x1c>
    7a10:	48 8b 17             	mov    (%rdi),%rdx
    7a13:	48 31 ca             	xor    %rcx,%rdx
    7a16:	48 39 d5             	cmp    %rdx,%rbp
    7a19:	75 e5                	jne    7a00 <do_ecall_add_thread+0xa0>
    7a1b:	48 8b 57 08          	mov    0x8(%rdi),%rdx
    7a1f:	48 89 50 08          	mov    %rdx,0x8(%rax)
    7a23:	e8 88 3c 00 00       	callq  b6b0 <dlfree>
    7a28:	e9 4f ff ff ff       	jmpq   797c <do_ecall_add_thread+0x1c>
    7a2d:	48 89 d7             	mov    %rdx,%rdi
    7a30:	48 89 05 99 a6 00 00 	mov    %rax,0xa699(%rip)        # 120d0 <_ZL10g_tcs_node>
    7a37:	e8 74 3c 00 00       	callq  b6b0 <dlfree>
    7a3c:	e9 3b ff ff ff       	jmpq   797c <do_ecall_add_thread+0x1c>
    7a41:	48 89 c7             	mov    %rax,%rdi
    7a44:	48 89 d0             	mov    %rdx,%rax
    7a47:	eb d2                	jmp    7a1b <do_ecall_add_thread+0xbb>
    7a49:	0f 1f 80 00 00 00 00 	nopl   0x0(%rax)

0000000000007a50 <do_uninit_enclave>:
    7a50:	48 8d 05 d1 a3 00 00 	lea    0xa3d1(%rip),%rax        # 11e28 <EDMM_supported>
    7a57:	41 54                	push   %r12
    7a59:	55                   	push   %rbp
    7a5a:	53                   	push   %rbx
    7a5b:	8b 00                	mov    (%rax),%eax
    7a5d:	85 c0                	test   %eax,%eax
    7a5f:	0f 84 b0 00 00 00    	je     7b15 <do_uninit_enclave+0xc5>
    7a65:	48 89 fd             	mov    %rdi,%rbp
    7a68:	e8 73 07 00 00       	callq  81e0 <is_utility_thread>
    7a6d:	84 c0                	test   %al,%al
    7a6f:	0f 84 93 00 00 00    	je     7b08 <do_uninit_enclave+0xb8>
    7a75:	f0 83 0d 43 a6 00 00 	lock orl $0x1,0xa643(%rip)        # 120c0 <g_uninit_flag>
    7a7c:	01 
    7a7d:	48 8b 1d 4c a6 00 00 	mov    0xa64c(%rip),%rbx        # 120d0 <_ZL10g_tcs_node>
    7a84:	48 c7 05 41 a6 00 00 	movq   $0x0,0xa641(%rip)        # 120d0 <_ZL10g_tcs_node>
    7a8b:	00 00 00 00 
    7a8f:	48 85 db             	test   %rbx,%rbx
    7a92:	74 3c                	je     7ad0 <do_uninit_enclave+0x80>
    7a94:	0f 1f 40 00          	nopl   0x0(%rax)
    7a98:	48 8b 33             	mov    (%rbx),%rsi
    7a9b:	48 33 35 26 a6 00 00 	xor    0xa626(%rip),%rsi        # 120c8 <_ZL12g_tcs_cookie>
    7aa2:	48 39 f5             	cmp    %rsi,%rbp
    7aa5:	74 15                	je     7abc <do_uninit_enclave+0x6c>
    7aa7:	48 8d 96 00 10 00 00 	lea    0x1000(%rsi),%rdx
    7aae:	bf 10 04 00 00       	mov    $0x410,%edi
    7ab3:	e8 58 f1 ff ff       	callq  6c10 <sgx_accept_forward>
    7ab8:	85 c0                	test   %eax,%eax
    7aba:	75 59                	jne    7b15 <do_uninit_enclave+0xc5>
    7abc:	4c 8b 63 08          	mov    0x8(%rbx),%r12
    7ac0:	48 89 df             	mov    %rbx,%rdi
    7ac3:	e8 e8 3b 00 00       	callq  b6b0 <dlfree>
    7ac8:	4c 89 e3             	mov    %r12,%rbx
    7acb:	48 85 db             	test   %rbx,%rbx
    7ace:	75 c8                	jne    7a98 <do_uninit_enclave+0x48>
    7ad0:	48 8d 3d ed a5 00 00 	lea    0xa5ed(%rip),%rdi        # 120c4 <_ZL10g_ife_lock>
    7ad7:	e8 d4 52 00 00       	callq  cdb0 <sgx_spin_lock>
    7adc:	0f b6 05 29 a5 00 00 	movzbl 0xa529(%rip),%eax        # 1200c <_ZL16g_is_first_ecall>
    7ae3:	84 c0                	test   %al,%al
    7ae5:	74 49                	je     7b30 <do_uninit_enclave+0xe0>
    7ae7:	48 8d 3d d6 a5 00 00 	lea    0xa5d6(%rip),%rdi        # 120c4 <_ZL10g_ife_lock>
    7aee:	e8 1d 53 00 00       	callq  ce10 <sgx_spin_unlock>
    7af3:	bf 03 00 00 00       	mov    $0x3,%edi
    7af8:	e8 de 5e 00 00       	callq  d9db <set_enclave_state>
    7afd:	5b                   	pop    %rbx
    7afe:	31 c0                	xor    %eax,%eax
    7b00:	5d                   	pop    %rbp
    7b01:	41 5c                	pop    %r12
    7b03:	c3                   	retq   
    7b04:	0f 1f 40 00          	nopl   0x0(%rax)
    7b08:	e8 03 f0 ff ff       	callq  6b10 <is_dynamic_thread_exist>
    7b0d:	85 c0                	test   %eax,%eax
    7b0f:	0f 84 60 ff ff ff    	je     7a75 <do_uninit_enclave+0x25>
    7b15:	bf 03 00 00 00       	mov    $0x3,%edi
    7b1a:	e8 bc 5e 00 00       	callq  d9db <set_enclave_state>
    7b1f:	5b                   	pop    %rbx
    7b20:	b8 01 00 00 00       	mov    $0x1,%eax
    7b25:	5d                   	pop    %rbp
    7b26:	41 5c                	pop    %r12
    7b28:	c3                   	retq   
    7b29:	0f 1f 80 00 00 00 00 	nopl   0x0(%rax)
    7b30:	e8 db 17 00 00       	callq  9310 <uninit_global_object>
    7b35:	eb b0                	jmp    7ae7 <do_uninit_enclave+0x97>
    7b37:	66 0f 1f 84 00 00 00 	nopw   0x0(%rax,%rax,1)
    7b3e:	00 00 

0000000000007b40 <trts_mprotect>:
    7b40:	4c 8d 54 24 08       	lea    0x8(%rsp),%r10
    7b45:	48 83 e4 c0          	and    $0xffffffffffffffc0,%rsp
    7b49:	41 ff 72 f8          	pushq  -0x8(%r10)
    7b4d:	55                   	push   %rbp
    7b4e:	48 89 e5             	mov    %rsp,%rbp
    7b51:	41 56                	push   %r14
    7b53:	41 55                	push   %r13
    7b55:	41 54                	push   %r12
    7b57:	41 52                	push   %r10
    7b59:	53                   	push   %rbx
    7b5a:	48 81 ec 88 00 00 00 	sub    $0x88,%rsp
    7b61:	64 48 8b 04 25 28 00 	mov    %fs:0x28,%rax
    7b68:	00 00 
    7b6a:	48 89 45 c8          	mov    %rax,-0x38(%rbp)
    7b6e:	31 c0                	xor    %eax,%eax
    7b70:	f7 c7 ff 0f 00 00    	test   $0xfff,%edi
    7b76:	b8 02 00 00 00       	mov    $0x2,%eax
    7b7b:	0f 85 8f 00 00 00    	jne    7c10 <trts_mprotect+0xd0>
    7b81:	48 85 f6             	test   %rsi,%rsi
    7b84:	49 89 f4             	mov    %rsi,%r12
    7b87:	0f 84 83 00 00 00    	je     7c10 <trts_mprotect+0xd0>
    7b8d:	f7 c6 ff 0f 00 00    	test   $0xfff,%esi
    7b93:	75 7b                	jne    7c10 <trts_mprotect+0xd0>
    7b95:	48 8d 05 88 a2 00 00 	lea    0xa288(%rip),%rax        # 11e24 <g_sdk_version>
    7b9c:	48 89 fb             	mov    %rdi,%rbx
    7b9f:	49 89 d5             	mov    %rdx,%r13
    7ba2:	83 38 01             	cmpl   $0x1,(%rax)
    7ba5:	0f 84 8d 00 00 00    	je     7c38 <trts_mprotect+0xf8>
    7bab:	4c 8d b5 50 ff ff ff 	lea    -0xb0(%rbp),%r14
    7bb2:	4c 89 e8             	mov    %r13,%rax
    7bb5:	31 f6                	xor    %esi,%esi
    7bb7:	48 0d 20 02 00 00    	or     $0x220,%rax
    7bbd:	ba 38 00 00 00       	mov    $0x38,%edx
    7bc2:	49 01 dc             	add    %rbx,%r12
    7bc5:	49 8d 7e 08          	lea    0x8(%r14),%rdi
    7bc9:	48 89 85 50 ff ff ff 	mov    %rax,-0xb0(%rbp)
    7bd0:	41 83 e5 06          	and    $0x6,%r13d
    7bd4:	e8 f4 4f 00 00       	callq  cbcd <memset>
    7bd9:	4c 39 e3             	cmp    %r12,%rbx
    7bdc:	73 2e                	jae    7c0c <trts_mprotect+0xcc>
    7bde:	66 90                	xchg   %ax,%ax
    7be0:	48 89 de             	mov    %rbx,%rsi
    7be3:	4c 89 f7             	mov    %r14,%rdi
    7be6:	e8 11 61 00 00       	callq  dcfc <do_emodpe>
    7beb:	49 83 fd 06          	cmp    $0x6,%r13
    7bef:	74 0f                	je     7c00 <trts_mprotect+0xc0>
    7bf1:	48 89 de             	mov    %rbx,%rsi
    7bf4:	4c 89 f7             	mov    %r14,%rdi
    7bf7:	e8 e6 60 00 00       	callq  dce2 <do_eaccept>
    7bfc:	85 c0                	test   %eax,%eax
    7bfe:	75 10                	jne    7c10 <trts_mprotect+0xd0>
    7c00:	48 81 c3 00 10 00 00 	add    $0x1000,%rbx
    7c07:	4c 39 e3             	cmp    %r12,%rbx
    7c0a:	72 d4                	jb     7be0 <trts_mprotect+0xa0>
    7c0c:	31 c0                	xor    %eax,%eax
    7c0e:	66 90                	xchg   %ax,%ax
    7c10:	48 8b 4d c8          	mov    -0x38(%rbp),%rcx
    7c14:	64 48 33 0c 25 28 00 	xor    %fs:0x28,%rcx
    7c1b:	00 00 
    7c1d:	75 2d                	jne    7c4c <trts_mprotect+0x10c>
    7c1f:	48 81 c4 88 00 00 00 	add    $0x88,%rsp
    7c26:	5b                   	pop    %rbx
    7c27:	41 5a                	pop    %r10
    7c29:	41 5c                	pop    %r12
    7c2b:	41 5d                	pop    %r13
    7c2d:	41 5e                	pop    %r14
    7c2f:	5d                   	pop    %rbp
    7c30:	49 8d 62 f8          	lea    -0x8(%r10),%rsp
    7c34:	c3                   	retq   
    7c35:	0f 1f 00             	nopl   (%rax)
    7c38:	b9 fc ff ff ff       	mov    $0xfffffffc,%ecx
    7c3d:	e8 1e 00 00 00       	callq  7c60 <change_permissions_ocall>
    7c42:	85 c0                	test   %eax,%eax
    7c44:	0f 84 61 ff ff ff    	je     7bab <trts_mprotect+0x6b>
    7c4a:	eb c4                	jmp    7c10 <trts_mprotect+0xd0>
    7c4c:	e8 bf 17 00 00       	callq  9410 <__stack_chk_fail>
    7c51:	66 2e 0f 1f 84 00 00 	nopw   %cs:0x0(%rax,%rax,1)
    7c58:	00 00 00 
    7c5b:	0f 1f 44 00 00       	nopl   0x0(%rax,%rax,1)

0000000000007c60 <change_permissions_ocall>:
    7c60:	41 55                	push   %r13
    7c62:	41 54                	push   %r12
    7c64:	49 89 fd             	mov    %rdi,%r13
    7c67:	55                   	push   %rbp
    7c68:	53                   	push   %rbx
    7c69:	bf 18 00 00 00       	mov    $0x18,%edi
    7c6e:	49 89 f4             	mov    %rsi,%r12
    7c71:	48 89 d5             	mov    %rdx,%rbp
    7c74:	89 cb                	mov    %ecx,%ebx
    7c76:	48 83 ec 08          	sub    $0x8,%rsp
    7c7a:	e8 b1 e6 ff ff       	callq  6330 <sgx_ocalloc>
    7c7f:	48 85 c0             	test   %rax,%rax
    7c82:	74 2c                	je     7cb0 <change_permissions_ocall+0x50>
    7c84:	89 df                	mov    %ebx,%edi
    7c86:	4c 89 28             	mov    %r13,(%rax)
    7c89:	4c 89 60 08          	mov    %r12,0x8(%rax)
    7c8d:	48 89 68 10          	mov    %rbp,0x10(%rax)
    7c91:	48 89 c6             	mov    %rax,%rsi
    7c94:	e8 37 00 00 00       	callq  7cd0 <sgx_ocall>
    7c99:	89 c3                	mov    %eax,%ebx
    7c9b:	e8 80 e7 ff ff       	callq  6420 <sgx_ocfree>
    7ca0:	48 83 c4 08          	add    $0x8,%rsp
    7ca4:	89 d8                	mov    %ebx,%eax
    7ca6:	5b                   	pop    %rbx
    7ca7:	5d                   	pop    %rbp
    7ca8:	41 5c                	pop    %r12
    7caa:	41 5d                	pop    %r13
    7cac:	c3                   	retq   
    7cad:	0f 1f 00             	nopl   (%rax)
    7cb0:	e8 6b e7 ff ff       	callq  6420 <sgx_ocfree>
    7cb5:	bb 01 00 00 00       	mov    $0x1,%ebx
    7cba:	48 83 c4 08          	add    $0x8,%rsp
    7cbe:	89 d8                	mov    %ebx,%eax
    7cc0:	5b                   	pop    %rbx
    7cc1:	5d                   	pop    %rbp
    7cc2:	41 5c                	pop    %r12
    7cc4:	41 5d                	pop    %r13
    7cc6:	c3                   	retq   
    7cc7:	66 0f 1f 84 00 00 00 	nopw   0x0(%rax,%rax,1)
    7cce:	00 00 

0000000000007cd0 <sgx_ocall>:
    7cd0:	8d 47 05             	lea    0x5(%rdi),%eax
    7cd3:	83 f8 03             	cmp    $0x3,%eax
    7cd6:	76 12                	jbe    7cea <sgx_ocall+0x1a>
    7cd8:	85 ff                	test   %edi,%edi
    7cda:	74 0e                	je     7cea <sgx_ocall+0x1a>
    7cdc:	48 8d 15 1d 63 00 00 	lea    0x631d(%rip),%rdx        # e000 <g_dyn_entry_table>
    7ce3:	89 f8                	mov    %edi,%eax
    7ce5:	48 3b 02             	cmp    (%rdx),%rax
    7ce8:	73 06                	jae    7cf0 <sgx_ocall+0x20>
    7cea:	e9 46 5f 00 00       	jmpq   dc35 <__morestack>
    7cef:	90                   	nop
    7cf0:	b8 01 10 00 00       	mov    $0x1001,%eax
    7cf5:	c3                   	retq   
    7cf6:	66 2e 0f 1f 84 00 00 	nopw   %cs:0x0(%rax,%rax,1)
    7cfd:	00 00 00 

0000000000007d00 <update_ocall_lastsp>:
    7d00:	53                   	push   %rbx
    7d01:	48 89 fb             	mov    %rdi,%rbx
    7d04:	e8 f8 5c 00 00       	callq  da01 <get_thread_data>
    7d09:	48 8b 50 08          	mov    0x8(%rax),%rdx
    7d0d:	48 39 50 10          	cmp    %rdx,0x10(%rax)
    7d11:	48 89 53 30          	mov    %rdx,0x30(%rbx)
    7d15:	74 21                	je     7d38 <update_ocall_lastsp+0x38>
    7d17:	48 8b b2 90 00 00 00 	mov    0x90(%rdx),%rsi
    7d1e:	48 8d 4e 01          	lea    0x1(%rsi),%rcx
    7d22:	48 89 8b 90 00 00 00 	mov    %rcx,0x90(%rbx)
    7d29:	48 89 58 08          	mov    %rbx,0x8(%rax)
    7d2d:	48 89 d0             	mov    %rdx,%rax
    7d30:	5b                   	pop    %rbx
    7d31:	c3                   	retq   
    7d32:	66 0f 1f 44 00 00    	nopw   0x0(%rax,%rax,1)
    7d38:	48 c7 83 90 00 00 00 	movq   $0x1,0x90(%rbx)
    7d3f:	01 00 00 00 
    7d43:	48 89 58 08          	mov    %rbx,0x8(%rax)
    7d47:	48 89 d0             	mov    %rdx,%rax
    7d4a:	5b                   	pop    %rbx
    7d4b:	c3                   	retq   
    7d4c:	0f 1f 40 00          	nopl   0x0(%rax)

0000000000007d50 <do_oret>:
    7d50:	53                   	push   %rbx
    7d51:	48 89 fb             	mov    %rdi,%rbx
    7d54:	48 83 ec 10          	sub    $0x10,%rsp
    7d58:	64 48 8b 04 25 28 00 	mov    %fs:0x28,%rax
    7d5f:	00 00 
    7d61:	48 89 44 24 08       	mov    %rax,0x8(%rsp)
    7d66:	31 c0                	xor    %eax,%eax
    7d68:	e8 94 5c 00 00       	callq  da01 <get_thread_data>
    7d6d:	48 8b 78 08          	mov    0x8(%rax),%rdi
    7d71:	48 85 ff             	test   %rdi,%rdi
    7d74:	48 89 3c 24          	mov    %rdi,(%rsp)
    7d78:	74 46                	je     7dc0 <do_oret+0x70>
    7d7a:	48 89 e2             	mov    %rsp,%rdx
    7d7d:	48 39 fa             	cmp    %rdi,%rdx
    7d80:	73 3e                	jae    7dc0 <do_oret+0x70>
    7d82:	48 8b 50 10          	mov    0x10(%rax),%rdx
    7d86:	48 8d 8a 10 ff ff ff 	lea    -0xf0(%rdx),%rcx
    7d8d:	48 39 f9             	cmp    %rdi,%rcx
    7d90:	72 2e                	jb     7dc0 <do_oret+0x70>
    7d92:	48 81 7f 20 44 49 43 	cmpq   $0x4f434944,0x20(%rdi)
    7d99:	4f 
    7d9a:	75 24                	jne    7dc0 <do_oret+0x70>
    7d9c:	48 8b 4f 30          	mov    0x30(%rdi),%rcx
    7da0:	48 39 ca             	cmp    %rcx,%rdx
    7da3:	72 1b                	jb     7dc0 <do_oret+0x70>
    7da5:	48 39 f9             	cmp    %rdi,%rcx
    7da8:	76 16                	jbe    7dc0 <do_oret+0x70>
    7daa:	48 89 48 08          	mov    %rcx,0x8(%rax)
    7dae:	48 89 de             	mov    %rbx,%rsi
    7db1:	e8 8e 5e 00 00       	callq  dc44 <asm_oret>
    7db6:	66 2e 0f 1f 84 00 00 	nopw   %cs:0x0(%rax,%rax,1)
    7dbd:	00 00 00 
    7dc0:	48 8b 74 24 08       	mov    0x8(%rsp),%rsi
    7dc5:	64 48 33 34 25 28 00 	xor    %fs:0x28,%rsi
    7dcc:	00 00 
    7dce:	b8 01 00 00 00       	mov    $0x1,%eax
    7dd3:	75 06                	jne    7ddb <do_oret+0x8b>
    7dd5:	48 83 c4 10          	add    $0x10,%rsp
    7dd9:	5b                   	pop    %rbx
    7dda:	c3                   	retq   
    7ddb:	e8 30 16 00 00       	callq  9410 <__stack_chk_fail>

0000000000007de0 <trim_range_ocall>:
    7de0:	55                   	push   %rbp
    7de1:	53                   	push   %rbx
    7de2:	48 89 fd             	mov    %rdi,%rbp
    7de5:	bf 10 00 00 00       	mov    $0x10,%edi
    7dea:	48 89 f3             	mov    %rsi,%rbx
    7ded:	48 83 ec 08          	sub    $0x8,%rsp
    7df1:	e8 3a e5 ff ff       	callq  6330 <sgx_ocalloc>
    7df6:	48 85 c0             	test   %rax,%rax
    7df9:	74 25                	je     7e20 <trim_range_ocall+0x40>
    7dfb:	48 89 28             	mov    %rbp,(%rax)
    7dfe:	48 89 58 08          	mov    %rbx,0x8(%rax)
    7e02:	48 89 c6             	mov    %rax,%rsi
    7e05:	bf fe ff ff ff       	mov    $0xfffffffe,%edi
    7e0a:	e8 c1 fe ff ff       	callq  7cd0 <sgx_ocall>
    7e0f:	89 c3                	mov    %eax,%ebx
    7e11:	e8 0a e6 ff ff       	callq  6420 <sgx_ocfree>
    7e16:	48 83 c4 08          	add    $0x8,%rsp
    7e1a:	89 d8                	mov    %ebx,%eax
    7e1c:	5b                   	pop    %rbx
    7e1d:	5d                   	pop    %rbp
    7e1e:	c3                   	retq   
    7e1f:	90                   	nop
    7e20:	e8 fb e5 ff ff       	callq  6420 <sgx_ocfree>
    7e25:	bb 01 00 00 00       	mov    $0x1,%ebx
    7e2a:	48 83 c4 08          	add    $0x8,%rsp
    7e2e:	89 d8                	mov    %ebx,%eax
    7e30:	5b                   	pop    %rbx
    7e31:	5d                   	pop    %rbp
    7e32:	c3                   	retq   
    7e33:	66 2e 0f 1f 84 00 00 	nopw   %cs:0x0(%rax,%rax,1)
    7e3a:	00 00 00 
    7e3d:	0f 1f 00             	nopl   (%rax)

0000000000007e40 <trim_range_commit_ocall>:
    7e40:	53                   	push   %rbx
    7e41:	48 89 fb             	mov    %rdi,%rbx
    7e44:	bf 08 00 00 00       	mov    $0x8,%edi
    7e49:	e8 e2 e4 ff ff       	callq  6330 <sgx_ocalloc>
    7e4e:	48 85 c0             	test   %rax,%rax
    7e51:	74 1d                	je     7e70 <trim_range_commit_ocall+0x30>
    7e53:	48 89 18             	mov    %rbx,(%rax)
    7e56:	48 89 c6             	mov    %rax,%rsi
    7e59:	bf fd ff ff ff       	mov    $0xfffffffd,%edi
    7e5e:	e8 6d fe ff ff       	callq  7cd0 <sgx_ocall>
    7e63:	89 c3                	mov    %eax,%ebx
    7e65:	e8 b6 e5 ff ff       	callq  6420 <sgx_ocfree>
    7e6a:	89 d8                	mov    %ebx,%eax
    7e6c:	5b                   	pop    %rbx
    7e6d:	c3                   	retq   
    7e6e:	66 90                	xchg   %ax,%ax
    7e70:	bb 01 00 00 00       	mov    $0x1,%ebx
    7e75:	e8 a6 e5 ff ff       	callq  6420 <sgx_ocfree>
    7e7a:	89 d8                	mov    %ebx,%eax
    7e7c:	5b                   	pop    %rbx
    7e7d:	c3                   	retq   
    7e7e:	66 90                	xchg   %ax,%ax

0000000000007e80 <get_enclave_size>:
    7e80:	48 8d 05 39 62 00 00 	lea    0x6239(%rip),%rax        # e0c0 <g_global_data>
    7e87:	48 8b 40 08          	mov    0x8(%rax),%rax
    7e8b:	c3                   	retq   
    7e8c:	0f 1f 40 00          	nopl   0x0(%rax)

0000000000007e90 <get_enclave_end>:
    7e90:	48 83 ec 08          	sub    $0x8,%rsp
    7e94:	e8 2d 5b 00 00       	callq  d9c6 <get_enclave_base>
    7e99:	48 8d 15 20 62 00 00 	lea    0x6220(%rip),%rdx        # e0c0 <g_global_data>
    7ea0:	48 8b 52 08          	mov    0x8(%rdx),%rdx
    7ea4:	48 83 c4 08          	add    $0x8,%rsp
    7ea8:	48 8d 44 10 ff       	lea    -0x1(%rax,%rdx,1),%rax
    7ead:	c3                   	retq   
    7eae:	66 90                	xchg   %ax,%ax

0000000000007eb0 <get_heap_base>:
    7eb0:	48 8d 05 09 62 00 00 	lea    0x6209(%rip),%rax        # e0c0 <g_global_data>
    7eb7:	48 8b 40 10          	mov    0x10(%rax),%rax
    7ebb:	48 03 05 06 a1 00 00 	add    0xa106(%rip),%rax        # 11fc8 <_GLOBAL_OFFSET_TABLE_+0x18>
    7ec2:	c3                   	retq   
    7ec3:	66 2e 0f 1f 84 00 00 	nopw   %cs:0x0(%rax,%rax,1)
    7eca:	00 00 00 
    7ecd:	0f 1f 00             	nopl   (%rax)

0000000000007ed0 <get_heap_size>:
    7ed0:	48 8d 15 51 9f 00 00 	lea    0x9f51(%rip),%rdx        # 11e28 <EDMM_supported>
    7ed7:	48 8d 35 e2 61 00 00 	lea    0x61e2(%rip),%rsi        # e0c0 <g_global_data>
    7ede:	8b 12                	mov    (%rdx),%edx
    7ee0:	48 8b 46 18          	mov    0x18(%rsi),%rax
    7ee4:	85 d2                	test   %edx,%edx
    7ee6:	74 40                	je     7f28 <get_heap_size+0x58>
    7ee8:	8b 96 30 01 00 00    	mov    0x130(%rsi),%edx
    7eee:	85 d2                	test   %edx,%edx
    7ef0:	74 36                	je     7f28 <get_heap_size+0x58>
    7ef2:	31 c9                	xor    %ecx,%ecx
    7ef4:	0f 1f 40 00          	nopl   0x0(%rax)
    7ef8:	89 ca                	mov    %ecx,%edx
    7efa:	48 c1 e2 05          	shl    $0x5,%rdx
    7efe:	48 01 f2             	add    %rsi,%rdx
    7f01:	0f b7 ba 38 01 00 00 	movzwl 0x138(%rdx),%edi
    7f08:	66 83 ff 03          	cmp    $0x3,%di
    7f0c:	75 0d                	jne    7f1b <get_heap_size+0x4b>
    7f0e:	8b 92 3c 01 00 00    	mov    0x13c(%rdx),%edx
    7f14:	48 c1 e2 0c          	shl    $0xc,%rdx
    7f18:	48 01 d0             	add    %rdx,%rax
    7f1b:	8b 96 30 01 00 00    	mov    0x130(%rsi),%edx
    7f21:	83 c1 01             	add    $0x1,%ecx
    7f24:	39 ca                	cmp    %ecx,%edx
    7f26:	77 d0                	ja     7ef8 <get_heap_size+0x28>
    7f28:	f3 c3                	repz retq 
    7f2a:	66 0f 1f 44 00 00    	nopw   0x0(%rax,%rax,1)

0000000000007f30 <get_heap_min_size>:
    7f30:	48 8d 0d 89 61 00 00 	lea    0x6189(%rip),%rcx        # e0c0 <g_global_data>
    7f37:	8b 81 30 01 00 00    	mov    0x130(%rcx),%eax
    7f3d:	85 c0                	test   %eax,%eax
    7f3f:	74 3d                	je     7f7e <get_heap_min_size+0x4e>
    7f41:	0f b7 81 38 01 00 00 	movzwl 0x138(%rcx),%eax
    7f48:	66 83 f8 01          	cmp    $0x1,%ax
    7f4c:	74 3a                	je     7f88 <get_heap_min_size+0x58>
    7f4e:	31 c0                	xor    %eax,%eax
    7f50:	eb 1f                	jmp    7f71 <get_heap_min_size+0x41>
    7f52:	66 0f 1f 44 00 00    	nopw   0x0(%rax,%rax,1)
    7f58:	89 c6                	mov    %eax,%esi
    7f5a:	48 89 f2             	mov    %rsi,%rdx
    7f5d:	48 c1 e2 05          	shl    $0x5,%rdx
    7f61:	48 01 ca             	add    %rcx,%rdx
    7f64:	0f b7 92 38 01 00 00 	movzwl 0x138(%rdx),%edx
    7f6b:	66 83 fa 01          	cmp    $0x1,%dx
    7f6f:	74 19                	je     7f8a <get_heap_min_size+0x5a>
    7f71:	8b 91 30 01 00 00    	mov    0x130(%rcx),%edx
    7f77:	83 c0 01             	add    $0x1,%eax
    7f7a:	39 c2                	cmp    %eax,%edx
    7f7c:	77 da                	ja     7f58 <get_heap_min_size+0x28>
    7f7e:	31 c0                	xor    %eax,%eax
    7f80:	c3                   	retq   
    7f81:	0f 1f 80 00 00 00 00 	nopl   0x0(%rax)
    7f88:	31 f6                	xor    %esi,%esi
    7f8a:	48 c1 e6 05          	shl    $0x5,%rsi
    7f8e:	48 01 f1             	add    %rsi,%rcx
    7f91:	8b 81 3c 01 00 00    	mov    0x13c(%rcx),%eax
    7f97:	48 c1 e0 0c          	shl    $0xc,%rax
    7f9b:	c3                   	retq   
    7f9c:	0f 1f 40 00          	nopl   0x0(%rax)

0000000000007fa0 <get_rsrv_base>:
    7fa0:	48 8d 05 19 61 00 00 	lea    0x6119(%rip),%rax        # e0c0 <g_global_data>
    7fa7:	48 8b 40 20          	mov    0x20(%rax),%rax
    7fab:	48 03 05 16 a0 00 00 	add    0xa016(%rip),%rax        # 11fc8 <_GLOBAL_OFFSET_TABLE_+0x18>
    7fb2:	c3                   	retq   
    7fb3:	66 2e 0f 1f 84 00 00 	nopw   %cs:0x0(%rax,%rax,1)
    7fba:	00 00 00 
    7fbd:	0f 1f 00             	nopl   (%rax)

0000000000007fc0 <get_rsrv_end>:
    7fc0:	48 8d 05 61 9e 00 00 	lea    0x9e61(%rip),%rax        # 11e28 <EDMM_supported>
    7fc7:	48 8d 0d f2 60 00 00 	lea    0x60f2(%rip),%rcx        # e0c0 <g_global_data>
    7fce:	8b 00                	mov    (%rax),%eax
    7fd0:	4c 8b 41 20          	mov    0x20(%rcx),%r8
    7fd4:	4c 03 05 ed 9f 00 00 	add    0x9fed(%rip),%r8        # 11fc8 <_GLOBAL_OFFSET_TABLE_+0x18>
    7fdb:	48 8b 79 28          	mov    0x28(%rcx),%rdi
    7fdf:	85 c0                	test   %eax,%eax
    7fe1:	74 3d                	je     8020 <get_rsrv_end+0x60>
    7fe3:	8b 81 30 01 00 00    	mov    0x130(%rcx),%eax
    7fe9:	85 c0                	test   %eax,%eax
    7feb:	74 33                	je     8020 <get_rsrv_end+0x60>
    7fed:	31 d2                	xor    %edx,%edx
    7fef:	90                   	nop
    7ff0:	89 d0                	mov    %edx,%eax
    7ff2:	48 c1 e0 05          	shl    $0x5,%rax
    7ff6:	48 01 c8             	add    %rcx,%rax
    7ff9:	0f b7 b0 38 01 00 00 	movzwl 0x138(%rax),%esi
    8000:	66 83 fe 16          	cmp    $0x16,%si
    8004:	75 0d                	jne    8013 <get_rsrv_end+0x53>
    8006:	8b 80 3c 01 00 00    	mov    0x13c(%rax),%eax
    800c:	48 c1 e0 0c          	shl    $0xc,%rax
    8010:	48 01 c7             	add    %rax,%rdi
    8013:	8b 81 30 01 00 00    	mov    0x130(%rcx),%eax
    8019:	83 c2 01             	add    $0x1,%edx
    801c:	39 d0                	cmp    %edx,%eax
    801e:	77 d0                	ja     7ff0 <get_rsrv_end+0x30>
    8020:	4a 8d 44 07 ff       	lea    -0x1(%rdi,%r8,1),%rax
    8025:	c3                   	retq   
    8026:	66 2e 0f 1f 84 00 00 	nopw   %cs:0x0(%rax,%rax,1)
    802d:	00 00 00 

0000000000008030 <get_rsrv_size>:
    8030:	48 8d 15 f1 9d 00 00 	lea    0x9df1(%rip),%rdx        # 11e28 <EDMM_supported>
    8037:	48 8d 35 82 60 00 00 	lea    0x6082(%rip),%rsi        # e0c0 <g_global_data>
    803e:	8b 12                	mov    (%rdx),%edx
    8040:	48 8b 46 28          	mov    0x28(%rsi),%rax
    8044:	85 d2                	test   %edx,%edx
    8046:	74 40                	je     8088 <get_rsrv_size+0x58>
    8048:	8b 96 30 01 00 00    	mov    0x130(%rsi),%edx
    804e:	85 d2                	test   %edx,%edx
    8050:	74 36                	je     8088 <get_rsrv_size+0x58>
    8052:	31 c9                	xor    %ecx,%ecx
    8054:	0f 1f 40 00          	nopl   0x0(%rax)
    8058:	89 ca                	mov    %ecx,%edx
    805a:	48 c1 e2 05          	shl    $0x5,%rdx
    805e:	48 01 f2             	add    %rsi,%rdx
    8061:	0f b7 ba 38 01 00 00 	movzwl 0x138(%rdx),%edi
    8068:	66 83 ff 16          	cmp    $0x16,%di
    806c:	75 0d                	jne    807b <get_rsrv_size+0x4b>
    806e:	8b 92 3c 01 00 00    	mov    0x13c(%rdx),%edx
    8074:	48 c1 e2 0c          	shl    $0xc,%rdx
    8078:	48 01 d0             	add    %rdx,%rax
    807b:	8b 96 30 01 00 00    	mov    0x130(%rsi),%edx
    8081:	83 c1 01             	add    $0x1,%ecx
    8084:	39 ca                	cmp    %ecx,%edx
    8086:	77 d0                	ja     8058 <get_rsrv_size+0x28>
    8088:	f3 c3                	repz retq 
    808a:	66 0f 1f 44 00 00    	nopw   0x0(%rax,%rax,1)

0000000000008090 <get_rsrv_min_size>:
    8090:	48 8d 0d 29 60 00 00 	lea    0x6029(%rip),%rcx        # e0c0 <g_global_data>
    8097:	8b 81 30 01 00 00    	mov    0x130(%rcx),%eax
    809d:	85 c0                	test   %eax,%eax
    809f:	74 3d                	je     80de <get_rsrv_min_size+0x4e>
    80a1:	0f b7 81 38 01 00 00 	movzwl 0x138(%rcx),%eax
    80a8:	66 83 f8 14          	cmp    $0x14,%ax
    80ac:	74 3a                	je     80e8 <get_rsrv_min_size+0x58>
    80ae:	31 c0                	xor    %eax,%eax
    80b0:	eb 1f                	jmp    80d1 <get_rsrv_min_size+0x41>
    80b2:	66 0f 1f 44 00 00    	nopw   0x0(%rax,%rax,1)
    80b8:	89 c6                	mov    %eax,%esi
    80ba:	48 89 f2             	mov    %rsi,%rdx
    80bd:	48 c1 e2 05          	shl    $0x5,%rdx
    80c1:	48 01 ca             	add    %rcx,%rdx
    80c4:	0f b7 92 38 01 00 00 	movzwl 0x138(%rdx),%edx
    80cb:	66 83 fa 14          	cmp    $0x14,%dx
    80cf:	74 19                	je     80ea <get_rsrv_min_size+0x5a>
    80d1:	8b 91 30 01 00 00    	mov    0x130(%rcx),%edx
    80d7:	83 c0 01             	add    $0x1,%eax
    80da:	39 c2                	cmp    %eax,%edx
    80dc:	77 da                	ja     80b8 <get_rsrv_min_size+0x28>
    80de:	31 c0                	xor    %eax,%eax
    80e0:	c3                   	retq   
    80e1:	0f 1f 80 00 00 00 00 	nopl   0x0(%rax)
    80e8:	31 f6                	xor    %esi,%esi
    80ea:	48 c1 e6 05          	shl    $0x5,%rsi
    80ee:	48 01 f1             	add    %rsi,%rcx
    80f1:	8b 81 3c 01 00 00    	mov    0x13c(%rcx),%eax
    80f7:	48 c1 e0 0c          	shl    $0xc,%rax
    80fb:	c3                   	retq   
    80fc:	0f 1f 40 00          	nopl   0x0(%rax)

0000000000008100 <get_errno_addr>:
    8100:	48 83 ec 08          	sub    $0x8,%rsp
    8104:	e8 f8 58 00 00       	callq  da01 <get_thread_data>
    8109:	48 83 c4 08          	add    $0x8,%rsp
    810d:	48 83 c0 40          	add    $0x40,%rax
    8111:	c3                   	retq   
    8112:	66 2e 0f 1f 84 00 00 	nopw   %cs:0x0(%rax,%rax,1)
    8119:	00 00 00 
    811c:	0f 1f 40 00          	nopl   0x0(%rax)

0000000000008120 <feature_supported>:
    8120:	31 c0                	xor    %eax,%eax
    8122:	48 85 ff             	test   %rdi,%rdi
    8125:	74 3b                	je     8162 <feature_supported+0x42>
    8127:	31 d2                	xor    %edx,%edx
    8129:	eb 0d                	jmp    8138 <feature_supported+0x18>
    812b:	0f 1f 44 00 00       	nopl   0x0(%rax,%rax,1)
    8130:	48 85 c0             	test   %rax,%rax
    8133:	44 89 c2             	mov    %r8d,%edx
    8136:	78 28                	js     8160 <feature_supported+0x40>
    8138:	44 8d 42 01          	lea    0x1(%rdx),%r8d
    813c:	89 d0                	mov    %edx,%eax
    813e:	48 8b 04 c7          	mov    (%rdi,%rax,8),%rax
    8142:	45 89 c1             	mov    %r8d,%r9d
    8145:	41 c1 e1 06          	shl    $0x6,%r9d
    8149:	44 39 ce             	cmp    %r9d,%esi
    814c:	73 e2                	jae    8130 <feature_supported+0x10>
    814e:	c1 e2 06             	shl    $0x6,%edx
    8151:	89 f1                	mov    %esi,%ecx
    8153:	29 d1                	sub    %edx,%ecx
    8155:	48 d3 e8             	shr    %cl,%rax
    8158:	83 e0 01             	and    $0x1,%eax
    815b:	c3                   	retq   
    815c:	0f 1f 40 00          	nopl   0x0(%rax)
    8160:	31 c0                	xor    %eax,%eax
    8162:	f3 c3                	repz retq 
    8164:	66 2e 0f 1f 84 00 00 	nopw   %cs:0x0(%rax,%rax,1)
    816b:	00 00 00 
    816e:	66 90                	xchg   %ax,%ax

0000000000008170 <is_stack_addr>:
    8170:	55                   	push   %rbp
    8171:	53                   	push   %rbx
    8172:	48 89 f5             	mov    %rsi,%rbp
    8175:	48 89 fb             	mov    %rdi,%rbx
    8178:	48 83 ec 08          	sub    $0x8,%rsp
    817c:	e8 80 58 00 00       	callq  da01 <get_thread_data>
    8181:	31 c9                	xor    %ecx,%ecx
    8183:	48 01 dd             	add    %rbx,%rbp
    8186:	0f 92 c1             	setb   %cl
    8189:	48 3b 68 10          	cmp    0x10(%rax),%rbp
    818d:	0f 96 c2             	setbe  %dl
    8190:	48 39 58 18          	cmp    %rbx,0x18(%rax)
    8194:	0f 96 c0             	setbe  %al
    8197:	21 d0                	and    %edx,%eax
    8199:	48 85 c9             	test   %rcx,%rcx
    819c:	0f 94 c2             	sete   %dl
    819f:	48 83 c4 08          	add    $0x8,%rsp
    81a3:	21 d0                	and    %edx,%eax
    81a5:	5b                   	pop    %rbx
    81a6:	5d                   	pop    %rbp
    81a7:	c3                   	retq   
    81a8:	0f 1f 84 00 00 00 00 	nopl   0x0(%rax,%rax,1)
    81af:	00 

00000000000081b0 <is_valid_sp>:
    81b0:	40 f6 c7 07          	test   $0x7,%dil
    81b4:	74 0a                	je     81c0 <is_valid_sp+0x10>
    81b6:	31 c0                	xor    %eax,%eax
    81b8:	c3                   	retq   
    81b9:	0f 1f 80 00 00 00 00 	nopl   0x0(%rax)
    81c0:	53                   	push   %rbx
    81c1:	48 89 fb             	mov    %rdi,%rbx
    81c4:	e8 38 58 00 00       	callq  da01 <get_thread_data>
    81c9:	48 3b 58 10          	cmp    0x10(%rax),%rbx
    81cd:	0f 96 c2             	setbe  %dl
    81d0:	48 3b 58 18          	cmp    0x18(%rax),%rbx
    81d4:	5b                   	pop    %rbx
    81d5:	0f 93 c0             	setae  %al
    81d8:	21 d0                	and    %edx,%eax
    81da:	c3                   	retq   
    81db:	0f 1f 44 00 00       	nopl   0x0(%rax,%rax,1)

00000000000081e0 <is_utility_thread>:
    81e0:	48 83 ec 08          	sub    $0x8,%rsp
    81e4:	e8 18 58 00 00       	callq  da01 <get_thread_data>
    81e9:	31 d2                	xor    %edx,%edx
    81eb:	48 85 c0             	test   %rax,%rax
    81ee:	74 07                	je     81f7 <is_utility_thread+0x17>
    81f0:	48 8b 50 30          	mov    0x30(%rax),%rdx
    81f4:	83 e2 01             	and    $0x1,%edx
    81f7:	89 d0                	mov    %edx,%eax
    81f9:	48 83 c4 08          	add    $0x8,%rsp
    81fd:	c3                   	retq   
    81fe:	66 90                	xchg   %ax,%ax

0000000000008200 <get_max_tcs_num>:
    8200:	48 8d 05 b9 5e 00 00 	lea    0x5eb9(%rip),%rax        # e0c0 <g_global_data>
    8207:	48 8b 40 40          	mov    0x40(%rax),%rax
    820b:	c3                   	retq   
    820c:	0f 1f 40 00          	nopl   0x0(%rax)

0000000000008210 <internal_handle_exception>:
    8210:	41 56                	push   %r14
    8212:	41 55                	push   %r13
    8214:	41 54                	push   %r12
    8216:	55                   	push   %rbp
    8217:	48 89 fd             	mov    %rdi,%rbp
    821a:	53                   	push   %rbx
    821b:	e8 e1 57 00 00       	callq  da01 <get_thread_data>
    8220:	49 89 c4             	mov    %rax,%r12
    8223:	48 8b 40 60          	mov    0x60(%rax),%rax
    8227:	48 85 c0             	test   %rax,%rax
    822a:	79 0e                	jns    823a <internal_handle_exception+0x2a>
    822c:	49 c7 44 24 60 ff ff 	movq   $0xffffffffffffffff,0x60(%r12)
    8233:	ff ff 
    8235:	e8 f6 5a 00 00       	callq  dd30 <abort>
    823a:	48 83 c0 01          	add    $0x1,%rax
    823e:	48 8d 3d 9b 9e 00 00 	lea    0x9e9b(%rip),%rdi        # 120e0 <_ZL14g_handler_lock>
    8245:	49 89 44 24 60       	mov    %rax,0x60(%r12)
    824a:	e8 61 4b 00 00       	callq  cdb0 <sgx_spin_lock>
    824f:	48 8b 05 92 9e 00 00 	mov    0x9e92(%rip),%rax        # 120e8 <_ZL12g_first_node>
    8256:	48 85 c0             	test   %rax,%rax
    8259:	0f 84 e7 00 00 00    	je     8346 <internal_handle_exception+0x136>
    825f:	31 db                	xor    %ebx,%ebx
    8261:	0f 1f 80 00 00 00 00 	nopl   0x0(%rax)
    8268:	48 8b 40 08          	mov    0x8(%rax),%rax
    826c:	48 83 c3 08          	add    $0x8,%rbx
    8270:	48 85 c0             	test   %rax,%rax
    8273:	75 f3                	jne    8268 <internal_handle_exception+0x58>
    8275:	48 85 db             	test   %rbx,%rbx
    8278:	0f 84 c8 00 00 00    	je     8346 <internal_handle_exception+0x136>
    827e:	48 89 df             	mov    %rbx,%rdi
    8281:	e8 0a 1a 00 00       	callq  9c90 <dlmalloc>
    8286:	48 85 c0             	test   %rax,%rax
    8289:	49 89 c5             	mov    %rax,%r13
    828c:	0f 84 d8 00 00 00    	je     836a <internal_handle_exception+0x15a>
    8292:	48 8b 05 4f 9e 00 00 	mov    0x9e4f(%rip),%rax        # 120e8 <_ZL12g_first_node>
    8299:	48 85 c0             	test   %rax,%rax
    829c:	74 1e                	je     82bc <internal_handle_exception+0xac>
    829e:	4c 89 ea             	mov    %r13,%rdx
    82a1:	0f 1f 80 00 00 00 00 	nopl   0x0(%rax)
    82a8:	48 8b 08             	mov    (%rax),%rcx
    82ab:	48 8b 40 08          	mov    0x8(%rax),%rax
    82af:	48 83 c2 08          	add    $0x8,%rdx
    82b3:	48 89 4a f8          	mov    %rcx,-0x8(%rdx)
    82b7:	48 85 c0             	test   %rax,%rax
    82ba:	75 ec                	jne    82a8 <internal_handle_exception+0x98>
    82bc:	48 8d 3d 1d 9e 00 00 	lea    0x9e1d(%rip),%rdi        # 120e0 <_ZL14g_handler_lock>
    82c3:	e8 48 4b 00 00       	callq  ce10 <sgx_spin_unlock>
    82c8:	48 85 db             	test   %rbx,%rbx
    82cb:	74 55                	je     8322 <internal_handle_exception+0x112>
    82cd:	4d 89 ee             	mov    %r13,%r14
    82d0:	eb 10                	jmp    82e2 <internal_handle_exception+0xd2>
    82d2:	66 0f 1f 44 00 00    	nopw   0x0(%rax,%rax,1)
    82d8:	49 83 c6 08          	add    $0x8,%r14
    82dc:	48 83 eb 08          	sub    $0x8,%rbx
    82e0:	74 40                	je     8322 <internal_handle_exception+0x112>
    82e2:	49 8b 06             	mov    (%r14),%rax
    82e5:	48 33 05 ec 9d 00 00 	xor    0x9dec(%rip),%rax        # 120d8 <_ZL12g_veh_cookie>
    82ec:	48 89 ef             	mov    %rbp,%rdi
    82ef:	ff d0                	callq  *%rax
    82f1:	83 f8 ff             	cmp    $0xffffffff,%eax
    82f4:	75 e2                	jne    82d8 <internal_handle_exception+0xc8>
    82f6:	4c 89 ef             	mov    %r13,%rdi
    82f9:	e8 b2 33 00 00       	callq  b6b0 <dlfree>
    82fe:	48 8b 7d 20          	mov    0x20(%rbp),%rdi
    8302:	e8 a9 fe ff ff       	callq  81b0 <is_valid_sp>
    8307:	84 c0                	test   %al,%al
    8309:	0f 84 1d ff ff ff    	je     822c <internal_handle_exception+0x1c>
    830f:	49 83 6c 24 60 01    	subq   $0x1,0x60(%r12)
    8315:	48 89 ef             	mov    %rbp,%rdi
    8318:	e8 22 5a 00 00       	callq  dd3f <continue_execution>
    831d:	e9 0a ff ff ff       	jmpq   822c <internal_handle_exception+0x1c>
    8322:	4c 89 ef             	mov    %r13,%rdi
    8325:	e8 86 33 00 00       	callq  b6b0 <dlfree>
    832a:	48 8b 7d 20          	mov    0x20(%rbp),%rdi
    832e:	e8 7d fe ff ff       	callq  81b0 <is_valid_sp>
    8333:	84 c0                	test   %al,%al
    8335:	0f 84 f1 fe ff ff    	je     822c <internal_handle_exception+0x1c>
    833b:	49 c7 44 24 60 ff ff 	movq   $0xffffffffffffffff,0x60(%r12)
    8342:	ff ff 
    8344:	eb cf                	jmp    8315 <internal_handle_exception+0x105>
    8346:	48 8d 3d 93 9d 00 00 	lea    0x9d93(%rip),%rdi        # 120e0 <_ZL14g_handler_lock>
    834d:	31 db                	xor    %ebx,%ebx
    834f:	e8 bc 4a 00 00       	callq  ce10 <sgx_spin_unlock>
    8354:	49 c7 44 24 60 ff ff 	movq   $0xffffffffffffffff,0x60(%r12)
    835b:	ff ff 
    835d:	48 89 ef             	mov    %rbp,%rdi
    8360:	e8 da 59 00 00       	callq  dd3f <continue_execution>
    8365:	e9 14 ff ff ff       	jmpq   827e <internal_handle_exception+0x6e>
    836a:	48 8d 3d 6f 9d 00 00 	lea    0x9d6f(%rip),%rdi        # 120e0 <_ZL14g_handler_lock>
    8371:	e8 9a 4a 00 00       	callq  ce10 <sgx_spin_unlock>
    8376:	e9 b1 fe ff ff       	jmpq   822c <internal_handle_exception+0x1c>
    837b:	0f 1f 44 00 00       	nopl   0x0(%rax,%rax,1)

0000000000008380 <sgx_register_exception_handler>:
    8380:	41 54                	push   %r12
    8382:	55                   	push   %rbp
    8383:	41 89 fc             	mov    %edi,%r12d
    8386:	53                   	push   %rbx
    8387:	48 89 f5             	mov    %rsi,%rbp
    838a:	48 83 ec 10          	sub    $0x10,%rsp
    838e:	64 48 8b 04 25 28 00 	mov    %fs:0x28,%rax
    8395:	00 00 
    8397:	48 89 44 24 08       	mov    %rax,0x8(%rsp)
    839c:	31 c0                	xor    %eax,%eax
    839e:	48 83 3d 32 9d 00 00 	cmpq   $0x0,0x9d32(%rip)        # 120d8 <_ZL12g_veh_cookie>
    83a5:	00 
    83a6:	0f 84 ac 00 00 00    	je     8458 <sgx_register_exception_handler+0xd8>
    83ac:	31 f6                	xor    %esi,%esi
    83ae:	48 89 ef             	mov    %rbp,%rdi
    83b1:	e8 da de ff ff       	callq  6290 <sgx_is_within_enclave>
    83b6:	85 c0                	test   %eax,%eax
    83b8:	0f 84 c2 00 00 00    	je     8480 <sgx_register_exception_handler+0x100>
    83be:	bf 10 00 00 00       	mov    $0x10,%edi
    83c3:	e8 c8 18 00 00       	callq  9c90 <dlmalloc>
    83c8:	48 85 c0             	test   %rax,%rax
    83cb:	48 89 c3             	mov    %rax,%rbx
    83ce:	0f 84 ac 00 00 00    	je     8480 <sgx_register_exception_handler+0x100>
    83d4:	48 33 2d fd 9c 00 00 	xor    0x9cfd(%rip),%rbp        # 120d8 <_ZL12g_veh_cookie>
    83db:	48 8d 3d fe 9c 00 00 	lea    0x9cfe(%rip),%rdi        # 120e0 <_ZL14g_handler_lock>
    83e2:	48 89 28             	mov    %rbp,(%rax)
    83e5:	e8 c6 49 00 00       	callq  cdb0 <sgx_spin_lock>
    83ea:	48 8b 05 f7 9c 00 00 	mov    0x9cf7(%rip),%rax        # 120e8 <_ZL12g_first_node>
    83f1:	48 85 c0             	test   %rax,%rax
    83f4:	74 05                	je     83fb <sgx_register_exception_handler+0x7b>
    83f6:	45 85 e4             	test   %r12d,%r12d
    83f9:	74 40                	je     843b <sgx_register_exception_handler+0xbb>
    83fb:	48 89 43 08          	mov    %rax,0x8(%rbx)
    83ff:	48 89 1d e2 9c 00 00 	mov    %rbx,0x9ce2(%rip)        # 120e8 <_ZL12g_first_node>
    8406:	48 8d 3d d3 9c 00 00 	lea    0x9cd3(%rip),%rdi        # 120e0 <_ZL14g_handler_lock>
    840d:	e8 fe 49 00 00       	callq  ce10 <sgx_spin_unlock>
    8412:	48 8b 4c 24 08       	mov    0x8(%rsp),%rcx
    8417:	64 48 33 0c 25 28 00 	xor    %fs:0x28,%rcx
    841e:	00 00 
    8420:	48 89 d8             	mov    %rbx,%rax
    8423:	0f 85 91 00 00 00    	jne    84ba <sgx_register_exception_handler+0x13a>
    8429:	48 83 c4 10          	add    $0x10,%rsp
    842d:	5b                   	pop    %rbx
    842e:	5d                   	pop    %rbp
    842f:	41 5c                	pop    %r12
    8431:	c3                   	retq   
    8432:	66 0f 1f 44 00 00    	nopw   0x0(%rax,%rax,1)
    8438:	48 89 d0             	mov    %rdx,%rax
    843b:	48 8b 50 08          	mov    0x8(%rax),%rdx
    843f:	48 85 d2             	test   %rdx,%rdx
    8442:	75 f4                	jne    8438 <sgx_register_exception_handler+0xb8>
    8444:	48 c7 43 08 00 00 00 	movq   $0x0,0x8(%rbx)
    844b:	00 
    844c:	48 89 58 08          	mov    %rbx,0x8(%rax)
    8450:	eb b4                	jmp    8406 <sgx_register_exception_handler+0x86>
    8452:	66 0f 1f 44 00 00    	nopw   0x0(%rax,%rax,1)
    8458:	48 c7 04 24 00 00 00 	movq   $0x0,(%rsp)
    845f:	00 
    8460:	48 89 e3             	mov    %rsp,%rbx
    8463:	eb 0a                	jmp    846f <sgx_register_exception_handler+0xef>
    8465:	0f 1f 00             	nopl   (%rax)
    8468:	48 83 3c 24 00       	cmpq   $0x0,(%rsp)
    846d:	75 19                	jne    8488 <sgx_register_exception_handler+0x108>
    846f:	be 08 00 00 00       	mov    $0x8,%esi
    8474:	48 89 df             	mov    %rbx,%rdi
    8477:	e8 f4 df ff ff       	callq  6470 <sgx_read_rand>
    847c:	85 c0                	test   %eax,%eax
    847e:	74 e8                	je     8468 <sgx_register_exception_handler+0xe8>
    8480:	31 db                	xor    %ebx,%ebx
    8482:	eb 8e                	jmp    8412 <sgx_register_exception_handler+0x92>
    8484:	0f 1f 40 00          	nopl   0x0(%rax)
    8488:	48 8d 3d 51 9c 00 00 	lea    0x9c51(%rip),%rdi        # 120e0 <_ZL14g_handler_lock>
    848f:	e8 1c 49 00 00       	callq  cdb0 <sgx_spin_lock>
    8494:	48 83 3d 3c 9c 00 00 	cmpq   $0x0,0x9c3c(%rip)        # 120d8 <_ZL12g_veh_cookie>
    849b:	00 
    849c:	75 0b                	jne    84a9 <sgx_register_exception_handler+0x129>
    849e:	48 8b 04 24          	mov    (%rsp),%rax
    84a2:	48 89 05 2f 9c 00 00 	mov    %rax,0x9c2f(%rip)        # 120d8 <_ZL12g_veh_cookie>
    84a9:	48 8d 3d 30 9c 00 00 	lea    0x9c30(%rip),%rdi        # 120e0 <_ZL14g_handler_lock>
    84b0:	e8 5b 49 00 00       	callq  ce10 <sgx_spin_unlock>
    84b5:	e9 f2 fe ff ff       	jmpq   83ac <sgx_register_exception_handler+0x2c>
    84ba:	e8 51 0f 00 00       	callq  9410 <__stack_chk_fail>
    84bf:	90                   	nop

00000000000084c0 <sgx_unregister_exception_handler>:
    84c0:	31 c0                	xor    %eax,%eax
    84c2:	48 85 ff             	test   %rdi,%rdi
    84c5:	74 51                	je     8518 <sgx_unregister_exception_handler+0x58>
    84c7:	53                   	push   %rbx
    84c8:	48 89 fb             	mov    %rdi,%rbx
    84cb:	48 8d 3d 0e 9c 00 00 	lea    0x9c0e(%rip),%rdi        # 120e0 <_ZL14g_handler_lock>
    84d2:	e8 d9 48 00 00       	callq  cdb0 <sgx_spin_lock>
    84d7:	48 8b 15 0a 9c 00 00 	mov    0x9c0a(%rip),%rdx        # 120e8 <_ZL12g_first_node>
    84de:	48 85 d2             	test   %rdx,%rdx
    84e1:	74 1e                	je     8501 <sgx_unregister_exception_handler+0x41>
    84e3:	48 39 da             	cmp    %rbx,%rdx
    84e6:	75 10                	jne    84f8 <sgx_unregister_exception_handler+0x38>
    84e8:	eb 5e                	jmp    8548 <sgx_unregister_exception_handler+0x88>
    84ea:	66 0f 1f 44 00 00    	nopw   0x0(%rax,%rax,1)
    84f0:	48 39 d8             	cmp    %rbx,%rax
    84f3:	74 2b                	je     8520 <sgx_unregister_exception_handler+0x60>
    84f5:	48 89 c2             	mov    %rax,%rdx
    84f8:	48 8b 42 08          	mov    0x8(%rdx),%rax
    84fc:	48 85 c0             	test   %rax,%rax
    84ff:	75 ef                	jne    84f0 <sgx_unregister_exception_handler+0x30>
    8501:	48 8d 3d d8 9b 00 00 	lea    0x9bd8(%rip),%rdi        # 120e0 <_ZL14g_handler_lock>
    8508:	e8 03 49 00 00       	callq  ce10 <sgx_spin_unlock>
    850d:	31 c0                	xor    %eax,%eax
    850f:	5b                   	pop    %rbx
    8510:	c3                   	retq   
    8511:	0f 1f 80 00 00 00 00 	nopl   0x0(%rax)
    8518:	f3 c3                	repz retq 
    851a:	66 0f 1f 44 00 00    	nopw   0x0(%rax,%rax,1)
    8520:	48 8b 43 08          	mov    0x8(%rbx),%rax
    8524:	48 8d 3d b5 9b 00 00 	lea    0x9bb5(%rip),%rdi        # 120e0 <_ZL14g_handler_lock>
    852b:	48 89 42 08          	mov    %rax,0x8(%rdx)
    852f:	e8 dc 48 00 00       	callq  ce10 <sgx_spin_unlock>
    8534:	48 89 df             	mov    %rbx,%rdi
    8537:	e8 74 31 00 00       	callq  b6b0 <dlfree>
    853c:	b8 01 00 00 00       	mov    $0x1,%eax
    8541:	5b                   	pop    %rbx
    8542:	c3                   	retq   
    8543:	0f 1f 44 00 00       	nopl   0x0(%rax,%rax,1)
    8548:	48 8b 43 08          	mov    0x8(%rbx),%rax
    854c:	48 8d 3d 8d 9b 00 00 	lea    0x9b8d(%rip),%rdi        # 120e0 <_ZL14g_handler_lock>
    8553:	48 89 05 8e 9b 00 00 	mov    %rax,0x9b8e(%rip)        # 120e8 <_ZL12g_first_node>
    855a:	e8 b1 48 00 00       	callq  ce10 <sgx_spin_unlock>
    855f:	eb d3                	jmp    8534 <sgx_unregister_exception_handler+0x74>
    8561:	66 2e 0f 1f 84 00 00 	nopw   %cs:0x0(%rax,%rax,1)
    8568:	00 00 00 
    856b:	0f 1f 44 00 00       	nopl   0x0(%rax,%rax,1)

0000000000008570 <trts_handle_exception>:
    8570:	41 55                	push   %r13
    8572:	41 54                	push   %r12
    8574:	55                   	push   %rbp
    8575:	53                   	push   %rbx
    8576:	48 89 fb             	mov    %rdi,%rbx
    8579:	48 83 ec 08          	sub    $0x8,%rsp
    857d:	e8 7f 54 00 00       	callq  da01 <get_thread_data>
    8582:	48 85 c0             	test   %rax,%rax
    8585:	74 51                	je     85d8 <trts_handle_exception+0x68>
    8587:	48 85 db             	test   %rbx,%rbx
    858a:	74 4c                	je     85d8 <trts_handle_exception+0x68>
    858c:	48 89 df             	mov    %rbx,%rdi
    858f:	48 89 c5             	mov    %rax,%rbp
    8592:	e8 39 e0 ff ff       	callq  65d0 <check_static_stack_canary>
    8597:	85 c0                	test   %eax,%eax
    8599:	75 3d                	jne    85d8 <trts_handle_exception+0x68>
    859b:	e8 2e 54 00 00       	callq  d9ce <get_enclave_state>
    85a0:	83 f8 02             	cmp    $0x2,%eax
    85a3:	75 33                	jne    85d8 <trts_handle_exception+0x68>
    85a5:	48 83 7d 60 ff       	cmpq   $0xffffffffffffffff,0x60(%rbp)
    85aa:	74 2c                	je     85d8 <trts_handle_exception+0x68>
    85ac:	48 8b 45 10          	mov    0x10(%rbp),%rax
    85b0:	48 05 b0 02 01 00    	add    $0x102b0,%rax
    85b6:	48 39 c3             	cmp    %rax,%rbx
    85b9:	75 1d                	jne    85d8 <trts_handle_exception+0x68>
    85bb:	4c 8b 65 20          	mov    0x20(%rbp),%r12
    85bf:	4c 89 e0             	mov    %r12,%rax
    85c2:	48 25 00 f0 ff ff    	and    $0xfffffffffffff000,%rax
    85c8:	48 2d 00 10 00 00    	sub    $0x1000,%rax
    85ce:	48 39 c3             	cmp    %rax,%rbx
    85d1:	74 25                	je     85f8 <trts_handle_exception+0x88>
    85d3:	0f 1f 44 00 00       	nopl   0x0(%rax,%rax,1)
    85d8:	48 8d 05 c1 9a 00 00 	lea    0x9ac1(%rip),%rax        # 120a0 <g_enclave_state>
    85df:	c7 00 03 00 00 00    	movl   $0x3,(%rax)
    85e5:	b8 06 10 00 00       	mov    $0x1006,%eax
    85ea:	48 83 c4 08          	add    $0x8,%rsp
    85ee:	5b                   	pop    %rbx
    85ef:	5d                   	pop    %rbp
    85f0:	41 5c                	pop    %r12
    85f2:	41 5d                	pop    %r13
    85f4:	c3                   	retq   
    85f5:	0f 1f 00             	nopl   (%rax)
    85f8:	49 8b 5c 24 20       	mov    0x20(%r12),%rbx
    85fd:	31 f6                	xor    %esi,%esi
    85ff:	48 89 df             	mov    %rbx,%rdi
    8602:	e8 69 fb ff ff       	callq  8170 <is_stack_addr>
    8607:	84 c0                	test   %al,%al
    8609:	0f 84 81 00 00 00    	je     8690 <trts_handle_exception+0x120>
    860f:	48 81 eb 18 01 00 00 	sub    $0x118,%rbx
    8616:	be 18 01 00 00       	mov    $0x118,%esi
    861b:	48 83 e3 f0          	and    $0xfffffffffffffff0,%rbx
    861f:	48 89 df             	mov    %rbx,%rdi
    8622:	e8 49 fb ff ff       	callq  8170 <is_stack_addr>
    8627:	84 c0                	test   %al,%al
    8629:	74 65                	je     8690 <trts_handle_exception+0x120>
    862b:	4c 8d 6b f8          	lea    -0x8(%rbx),%r13
    862f:	be 08 00 00 00       	mov    $0x8,%esi
    8634:	4c 89 ef             	mov    %r13,%rdi
    8637:	e8 34 fb ff ff       	callq  8170 <is_stack_addr>
    863c:	84 c0                	test   %al,%al
    863e:	74 50                	je     8690 <trts_handle_exception+0x120>
    8640:	48 8b 85 98 00 00 00 	mov    0x98(%rbp),%rax
    8647:	4c 39 e8             	cmp    %r13,%rax
    864a:	76 5b                	jbe    86a7 <trts_handle_exception+0x137>
    864c:	48 8d 98 ff 0f 00 00 	lea    0xfff(%rax),%rbx
    8653:	4c 29 eb             	sub    %r13,%rbx
    8656:	48 81 e3 00 f0 ff ff 	and    $0xfffffffffffff000,%rbx
    865d:	48 39 d8             	cmp    %rbx,%rax
    8660:	76 2e                	jbe    8690 <trts_handle_exception+0x120>
    8662:	48 29 d8             	sub    %rbx,%rax
    8665:	48 3b 45 18          	cmp    0x18(%rbp),%rax
    8669:	48 89 c7             	mov    %rax,%rdi
    866c:	72 22                	jb     8690 <trts_handle_exception+0x120>
    866e:	48 89 de             	mov    %rbx,%rsi
    8671:	48 c1 ee 0c          	shr    $0xc,%rsi
    8675:	48 85 f6             	test   %rsi,%rsi
    8678:	74 16                	je     8690 <trts_handle_exception+0x120>
    867a:	e8 61 e7 ff ff       	callq  6de0 <apply_pages_within_exception>
    867f:	85 c0                	test   %eax,%eax
    8681:	75 0d                	jne    8690 <trts_handle_exception+0x120>
    8683:	48 29 9d 98 00 00 00 	sub    %rbx,0x98(%rbp)
    868a:	e9 5b ff ff ff       	jmpq   85ea <trts_handle_exception+0x7a>
    868f:	90                   	nop
    8690:	48 8d 05 09 9a 00 00 	lea    0x9a09(%rip),%rax        # 120a0 <g_enclave_state>
    8697:	c7 00 03 00 00 00    	movl   $0x3,(%rax)
    869d:	b8 09 10 00 00       	mov    $0x1009,%eax
    86a2:	e9 43 ff ff ff       	jmpq   85ea <trts_handle_exception+0x7a>
    86a7:	49 8b 84 24 88 00 00 	mov    0x88(%r12),%rax
    86ae:	00 
    86af:	48 3b 05 22 99 00 00 	cmp    0x9922(%rip),%rax        # 11fd8 <_GLOBAL_OFFSET_TABLE_+0x28>
    86b6:	0f 84 05 01 00 00    	je     87c1 <trts_handle_exception+0x251>
    86bc:	41 80 bc 24 a3 00 00 	cmpb   $0x0,0xa3(%r12)
    86c3:	00 00 
    86c5:	0f 89 0d ff ff ff    	jns    85d8 <trts_handle_exception+0x68>
    86cb:	41 0f b6 94 24 a0 00 	movzbl 0xa0(%r12),%edx
    86d2:	00 00 
    86d4:	48 8d 0d 35 fb ff ff 	lea    -0x4cb(%rip),%rcx        # 8210 <internal_handle_exception>
    86db:	89 93 90 00 00 00    	mov    %edx,0x90(%rbx)
    86e1:	41 0f b6 94 24 a1 00 	movzbl 0xa1(%r12),%edx
    86e8:	00 00 
    86ea:	83 e2 07             	and    $0x7,%edx
    86ed:	89 93 94 00 00 00    	mov    %edx,0x94(%rbx)
    86f3:	49 8b 14 24          	mov    (%r12),%rdx
    86f7:	48 89 13             	mov    %rdx,(%rbx)
    86fa:	49 8b 54 24 08       	mov    0x8(%r12),%rdx
    86ff:	48 89 53 08          	mov    %rdx,0x8(%rbx)
    8703:	49 8b 54 24 10       	mov    0x10(%r12),%rdx
    8708:	48 89 53 10          	mov    %rdx,0x10(%rbx)
    870c:	49 8b 54 24 18       	mov    0x18(%r12),%rdx
    8711:	48 89 53 18          	mov    %rdx,0x18(%rbx)
    8715:	49 8b 54 24 20       	mov    0x20(%r12),%rdx
    871a:	48 89 53 20          	mov    %rdx,0x20(%rbx)
    871e:	49 8b 54 24 28       	mov    0x28(%r12),%rdx
    8723:	48 89 53 28          	mov    %rdx,0x28(%rbx)
    8727:	49 8b 54 24 30       	mov    0x30(%r12),%rdx
    872c:	48 89 53 30          	mov    %rdx,0x30(%rbx)
    8730:	49 8b 54 24 38       	mov    0x38(%r12),%rdx
    8735:	48 89 53 38          	mov    %rdx,0x38(%rbx)
    8739:	49 8b 94 24 80 00 00 	mov    0x80(%r12),%rdx
    8740:	00 
    8741:	48 89 83 88 00 00 00 	mov    %rax,0x88(%rbx)
    8748:	48 89 93 80 00 00 00 	mov    %rdx,0x80(%rbx)
    874f:	49 8b 54 24 40       	mov    0x40(%r12),%rdx
    8754:	48 89 53 40          	mov    %rdx,0x40(%rbx)
    8758:	49 8b 54 24 48       	mov    0x48(%r12),%rdx
    875d:	48 89 53 48          	mov    %rdx,0x48(%rbx)
    8761:	49 8b 54 24 50       	mov    0x50(%r12),%rdx
    8766:	48 89 53 50          	mov    %rdx,0x50(%rbx)
    876a:	49 8b 54 24 58       	mov    0x58(%r12),%rdx
    876f:	48 89 53 58          	mov    %rdx,0x58(%rbx)
    8773:	49 8b 54 24 60       	mov    0x60(%r12),%rdx
    8778:	48 89 53 60          	mov    %rdx,0x60(%rbx)
    877c:	49 8b 54 24 68       	mov    0x68(%r12),%rdx
    8781:	48 89 53 68          	mov    %rdx,0x68(%rbx)
    8785:	49 8b 54 24 70       	mov    0x70(%r12),%rdx
    878a:	48 89 53 70          	mov    %rdx,0x70(%rbx)
    878e:	49 8b 54 24 78       	mov    0x78(%r12),%rdx
    8793:	48 89 53 78          	mov    %rdx,0x78(%rbx)
    8797:	49 89 8c 24 88 00 00 	mov    %rcx,0x88(%r12)
    879e:	00 
    879f:	4d 89 6c 24 20       	mov    %r13,0x20(%r12)
    87a4:	49 89 1c 24          	mov    %rbx,(%r12)
    87a8:	49 89 5c 24 38       	mov    %rbx,0x38(%r12)
    87ad:	48 89 43 f8          	mov    %rax,-0x8(%rbx)
    87b1:	31 c0                	xor    %eax,%eax
    87b3:	41 80 a4 24 a3 00 00 	andb   $0x7f,0xa3(%r12)
    87ba:	00 7f 
    87bc:	e9 29 fe ff ff       	jmpq   85ea <trts_handle_exception+0x7a>
    87c1:	49 83 3c 24 00       	cmpq   $0x0,(%r12)
    87c6:	0f 85 f0 fe ff ff    	jne    86bc <trts_handle_exception+0x14c>
    87cc:	48 83 c0 03          	add    $0x3,%rax
    87d0:	49 83 8c 24 80 00 00 	orq    $0x1,0x80(%r12)
    87d7:	00 01 
    87d9:	49 89 84 24 88 00 00 	mov    %rax,0x88(%r12)
    87e0:	00 
    87e1:	31 c0                	xor    %eax,%eax
    87e3:	e9 02 fe ff ff       	jmpq   85ea <trts_handle_exception+0x7a>
    87e8:	0f 1f 84 00 00 00 00 	nopl   0x0(%rax,%rax,1)
    87ef:	00 

00000000000087f0 <get_xfeature_state>:
    87f0:	48 83 ec 08          	sub    $0x8,%rsp
    87f4:	e8 97 4b 00 00       	callq  d390 <sgx_self_report>
    87f9:	48 8b 40 38          	mov    0x38(%rax),%rax
    87fd:	31 d2                	xor    %edx,%edx
    87ff:	48 83 f8 03          	cmp    $0x3,%rax
    8803:	0f 95 c2             	setne  %dl
    8806:	89 15 98 98 00 00    	mov    %edx,0x9898(%rip)        # 120a4 <g_xsave_enabled>
    880c:	48 83 c4 08          	add    $0x8,%rsp
    8810:	c3                   	retq   
    8811:	66 2e 0f 1f 84 00 00 	nopw   %cs:0x0(%rax,%rax,1)
    8818:	00 00 00 
    881b:	0f 1f 44 00 00       	nopl   0x0(%rax,%rax,1)

0000000000008820 <do_relocs>:
    8820:	48 01 fe             	add    %rdi,%rsi
    8823:	48 01 fa             	add    %rdi,%rdx
    8826:	48 85 c9             	test   %rcx,%rcx
    8829:	0f 84 42 02 00 00    	je     8a71 <do_relocs+0x251>
    882f:	55                   	push   %rbp
    8830:	4c 8d 15 d1 57 00 00 	lea    0x57d1(%rip),%r10        # e008 <g_dyn_entry_table+0x8>
    8837:	53                   	push   %rbx
    8838:	45 31 c9             	xor    %r9d,%r9d
    883b:	0f 1f 44 00 00       	nopl   0x0(%rax,%rax,1)
    8840:	4c 8b 46 08          	mov    0x8(%rsi),%r8
    8844:	4c 8b 1e             	mov    (%rsi),%r11
    8847:	44 89 c0             	mov    %r8d,%eax
    884a:	49 01 fb             	add    %rdi,%r11
    884d:	48 83 f8 12          	cmp    $0x12,%rax
    8851:	0f 87 cb 00 00 00    	ja     8922 <do_relocs+0x102>
    8857:	49 63 04 82          	movslq (%r10,%rax,4),%rax
    885b:	4c 01 d0             	add    %r10,%rax
    885e:	ff e0                	jmpq   *%rax
    8860:	48 8b 58 28          	mov    0x28(%rax),%rbx
    8864:	48 8b 40 30          	mov    0x30(%rax),%rax
    8868:	48 83 f8 01          	cmp    $0x1,%rax
    886c:	76 0b                	jbe    8879 <do_relocs+0x59>
    886e:	48 8d 5c 03 ff       	lea    -0x1(%rbx,%rax,1),%rbx
    8873:	48 f7 d8             	neg    %rax
    8876:	48 21 c3             	and    %rax,%rbx
    8879:	48 85 db             	test   %rbx,%rbx
    887c:	0f 84 a0 00 00 00    	je     8922 <do_relocs+0x102>
    8882:	48 8b 46 10          	mov    0x10(%rsi),%rax
    8886:	49 03 40 08          	add    0x8(%r8),%rax
    888a:	48 29 d8             	sub    %rbx,%rax
    888d:	49 89 03             	mov    %rax,(%r11)
    8890:	49 83 c1 01          	add    $0x1,%r9
    8894:	48 83 c6 18          	add    $0x18,%rsi
    8898:	4c 39 c9             	cmp    %r9,%rcx
    889b:	75 a3                	jne    8840 <do_relocs+0x20>
    889d:	31 c0                	xor    %eax,%eax
    889f:	5b                   	pop    %rbx
    88a0:	5d                   	pop    %rbp
    88a1:	c3                   	retq   
    88a2:	66 0f 1f 44 00 00    	nopw   0x0(%rax,%rax,1)
    88a8:	49 c1 e8 20          	shr    $0x20,%r8
    88ac:	4b 8d 04 40          	lea    (%r8,%r8,2),%rax
    88b0:	4c 8d 04 c2          	lea    (%rdx,%rax,8),%r8
    88b4:	41 0f b6 40 04       	movzbl 0x4(%r8),%eax
    88b9:	c0 e8 04             	shr    $0x4,%al
    88bc:	3c 02                	cmp    $0x2,%al
    88be:	0f 84 44 01 00 00    	je     8a08 <do_relocs+0x1e8>
    88c4:	4d 85 c0             	test   %r8,%r8
    88c7:	74 c7                	je     8890 <do_relocs+0x70>
    88c9:	81 3f 7f 45 4c 46    	cmpl   $0x464c457f,(%rdi)
    88cf:	75 51                	jne    8922 <do_relocs+0x102>
    88d1:	66 83 7f 10 03       	cmpw   $0x3,0x10(%rdi)
    88d6:	75 4a                	jne    8922 <do_relocs+0x102>
    88d8:	48 8b 5f 20          	mov    0x20(%rdi),%rbx
    88dc:	48 01 fb             	add    %rdi,%rbx
    88df:	48 85 db             	test   %rbx,%rbx
    88e2:	48 89 d8             	mov    %rbx,%rax
    88e5:	74 3b                	je     8922 <do_relocs+0x102>
    88e7:	0f b7 6f 38          	movzwl 0x38(%rdi),%ebp
    88eb:	85 ed                	test   %ebp,%ebp
    88ed:	74 33                	je     8922 <do_relocs+0x102>
    88ef:	83 3b 07             	cmpl   $0x7,(%rbx)
    88f2:	0f 84 68 ff ff ff    	je     8860 <do_relocs+0x40>
    88f8:	83 ed 01             	sub    $0x1,%ebp
    88fb:	48 8d 1c ed 00 00 00 	lea    0x0(,%rbp,8),%rbx
    8902:	00 
    8903:	48 29 eb             	sub    %rbp,%rbx
    8906:	48 8d 5c d8 38       	lea    0x38(%rax,%rbx,8),%rbx
    890b:	eb 0c                	jmp    8919 <do_relocs+0xf9>
    890d:	0f 1f 00             	nopl   (%rax)
    8910:	83 38 07             	cmpl   $0x7,(%rax)
    8913:	0f 84 47 ff ff ff    	je     8860 <do_relocs+0x40>
    8919:	48 83 c0 38          	add    $0x38,%rax
    891d:	48 39 c3             	cmp    %rax,%rbx
    8920:	75 ee                	jne    8910 <do_relocs+0xf0>
    8922:	b8 ff ff ff ff       	mov    $0xffffffff,%eax
    8927:	5b                   	pop    %rbx
    8928:	5d                   	pop    %rbp
    8929:	c3                   	retq   
    892a:	66 0f 1f 44 00 00    	nopw   0x0(%rax,%rax,1)
    8930:	49 c1 e8 20          	shr    $0x20,%r8
    8934:	4b 8d 04 40          	lea    (%r8,%r8,2),%rax
    8938:	4c 8d 04 c2          	lea    (%rdx,%rax,8),%r8
    893c:	41 0f b6 40 04       	movzbl 0x4(%r8),%eax
    8941:	c0 e8 04             	shr    $0x4,%al
    8944:	3c 02                	cmp    $0x2,%al
    8946:	0f 84 04 01 00 00    	je     8a50 <do_relocs+0x230>
    894c:	4d 85 c0             	test   %r8,%r8
    894f:	0f 84 3b ff ff ff    	je     8890 <do_relocs+0x70>
    8955:	48 8b 46 10          	mov    0x10(%rsi),%rax
    8959:	49 03 40 08          	add    0x8(%r8),%rax
    895d:	49 83 c1 01          	add    $0x1,%r9
    8961:	48 83 c6 18          	add    $0x18,%rsi
    8965:	4c 39 c9             	cmp    %r9,%rcx
    8968:	49 89 03             	mov    %rax,(%r11)
    896b:	0f 85 cf fe ff ff    	jne    8840 <do_relocs+0x20>
    8971:	e9 27 ff ff ff       	jmpq   889d <do_relocs+0x7d>
    8976:	66 2e 0f 1f 84 00 00 	nopw   %cs:0x0(%rax,%rax,1)
    897d:	00 00 00 
    8980:	49 83 c1 01          	add    $0x1,%r9
    8984:	48 83 c6 18          	add    $0x18,%rsi
    8988:	49 c7 03 01 00 00 00 	movq   $0x1,(%r11)
    898f:	4c 39 c9             	cmp    %r9,%rcx
    8992:	0f 85 a8 fe ff ff    	jne    8840 <do_relocs+0x20>
    8998:	e9 00 ff ff ff       	jmpq   889d <do_relocs+0x7d>
    899d:	0f 1f 00             	nopl   (%rax)
    89a0:	48 8b 46 10          	mov    0x10(%rsi),%rax
    89a4:	49 83 c1 01          	add    $0x1,%r9
    89a8:	48 83 c6 18          	add    $0x18,%rsi
    89ac:	48 01 f8             	add    %rdi,%rax
    89af:	4c 39 c9             	cmp    %r9,%rcx
    89b2:	49 89 03             	mov    %rax,(%r11)
    89b5:	0f 85 85 fe ff ff    	jne    8840 <do_relocs+0x20>
    89bb:	e9 dd fe ff ff       	jmpq   889d <do_relocs+0x7d>
    89c0:	49 c1 e8 20          	shr    $0x20,%r8
    89c4:	4b 8d 04 40          	lea    (%r8,%r8,2),%rax
    89c8:	4c 8d 04 c2          	lea    (%rdx,%rax,8),%r8
    89cc:	41 0f b6 40 04       	movzbl 0x4(%r8),%eax
    89d1:	c0 e8 04             	shr    $0x4,%al
    89d4:	3c 02                	cmp    $0x2,%al
    89d6:	74 58                	je     8a30 <do_relocs+0x210>
    89d8:	4d 85 c0             	test   %r8,%r8
    89db:	0f 84 af fe ff ff    	je     8890 <do_relocs+0x70>
    89e1:	48 8b 46 10          	mov    0x10(%rsi),%rax
    89e5:	49 83 c1 01          	add    $0x1,%r9
    89e9:	48 83 c6 18          	add    $0x18,%rsi
    89ed:	48 01 f8             	add    %rdi,%rax
    89f0:	49 03 40 08          	add    0x8(%r8),%rax
    89f4:	4c 39 c9             	cmp    %r9,%rcx
    89f7:	49 89 03             	mov    %rax,(%r11)
    89fa:	0f 85 40 fe ff ff    	jne    8840 <do_relocs+0x20>
    8a00:	e9 98 fe ff ff       	jmpq   889d <do_relocs+0x7d>
    8a05:	0f 1f 00             	nopl   (%rax)
    8a08:	49 83 78 08 00       	cmpq   $0x0,0x8(%r8)
    8a0d:	0f 85 b1 fe ff ff    	jne    88c4 <do_relocs+0xa4>
    8a13:	49 83 c1 01          	add    $0x1,%r9
    8a17:	48 83 c6 18          	add    $0x18,%rsi
    8a1b:	4c 39 c9             	cmp    %r9,%rcx
    8a1e:	0f 85 1c fe ff ff    	jne    8840 <do_relocs+0x20>
    8a24:	e9 74 fe ff ff       	jmpq   889d <do_relocs+0x7d>
    8a29:	0f 1f 80 00 00 00 00 	nopl   0x0(%rax)
    8a30:	49 83 78 08 00       	cmpq   $0x0,0x8(%r8)
    8a35:	75 a1                	jne    89d8 <do_relocs+0x1b8>
    8a37:	49 83 c1 01          	add    $0x1,%r9
    8a3b:	48 83 c6 18          	add    $0x18,%rsi
    8a3f:	4c 39 c9             	cmp    %r9,%rcx
    8a42:	0f 85 f8 fd ff ff    	jne    8840 <do_relocs+0x20>
    8a48:	e9 50 fe ff ff       	jmpq   889d <do_relocs+0x7d>
    8a4d:	0f 1f 00             	nopl   (%rax)
    8a50:	49 83 78 08 00       	cmpq   $0x0,0x8(%r8)
    8a55:	0f 85 f1 fe ff ff    	jne    894c <do_relocs+0x12c>
    8a5b:	49 83 c1 01          	add    $0x1,%r9
    8a5f:	48 83 c6 18          	add    $0x18,%rsi
    8a63:	4c 39 c9             	cmp    %r9,%rcx
    8a66:	0f 85 d4 fd ff ff    	jne    8840 <do_relocs+0x20>
    8a6c:	e9 2c fe ff ff       	jmpq   889d <do_relocs+0x7d>
    8a71:	31 c0                	xor    %eax,%eax
    8a73:	c3                   	retq   
    8a74:	66 2e 0f 1f 84 00 00 	nopw   %cs:0x0(%rax,%rax,1)
    8a7b:	00 00 00 
    8a7e:	66 90                	xchg   %ax,%ax

0000000000008a80 <relocate_enclave>:
    8a80:	48 85 ff             	test   %rdi,%rdi
    8a83:	0f 84 c0 01 00 00    	je     8c49 <relocate_enclave+0x1c9>
    8a89:	81 3f 7f 45 4c 46    	cmpl   $0x464c457f,(%rdi)
    8a8f:	0f 85 b4 01 00 00    	jne    8c49 <relocate_enclave+0x1c9>
    8a95:	66 83 7f 10 03       	cmpw   $0x3,0x10(%rdi)
    8a9a:	0f 85 a9 01 00 00    	jne    8c49 <relocate_enclave+0x1c9>
    8aa0:	41 57                	push   %r15
    8aa2:	41 56                	push   %r14
    8aa4:	41 55                	push   %r13
    8aa6:	41 54                	push   %r12
    8aa8:	55                   	push   %rbp
    8aa9:	53                   	push   %rbx
    8aaa:	48 89 fb             	mov    %rdi,%rbx
    8aad:	48 83 ec 10          	sub    $0x10,%rsp
    8ab1:	48 03 5f 20          	add    0x20(%rdi),%rbx
    8ab5:	0f 84 ff 00 00 00    	je     8bba <relocate_enclave+0x13a>
    8abb:	31 ed                	xor    %ebp,%ebp
    8abd:	66 83 7f 38 00       	cmpw   $0x0,0x38(%rdi)
    8ac2:	49 89 fd             	mov    %rdi,%r13
    8ac5:	4c 8d 25 88 55 00 00 	lea    0x5588(%rip),%r12        # e054 <g_dyn_entry_table+0x54>
    8acc:	75 1e                	jne    8aec <relocate_enclave+0x6c>
    8ace:	e9 65 01 00 00       	jmpq   8c38 <relocate_enclave+0x1b8>
    8ad3:	0f 1f 44 00 00       	nopl   0x0(%rax,%rax,1)
    8ad8:	41 0f b7 45 38       	movzwl 0x38(%r13),%eax
    8add:	83 c5 01             	add    $0x1,%ebp
    8ae0:	48 83 c3 38          	add    $0x38,%rbx
    8ae4:	39 e8                	cmp    %ebp,%eax
    8ae6:	0f 86 4c 01 00 00    	jbe    8c38 <relocate_enclave+0x1b8>
    8aec:	83 3b 02             	cmpl   $0x2,(%rbx)
    8aef:	75 e7                	jne    8ad8 <relocate_enclave+0x58>
    8af1:	48 8b 53 20          	mov    0x20(%rbx),%rdx
    8af5:	48 8b 43 18          	mov    0x18(%rbx),%rax
    8af9:	48 c1 ea 04          	shr    $0x4,%rdx
    8afd:	4c 01 e8             	add    %r13,%rax
    8b00:	48 85 d2             	test   %rdx,%rdx
    8b03:	49 89 c0             	mov    %rax,%r8
    8b06:	74 d0                	je     8ad8 <relocate_enclave+0x58>
    8b08:	4c 8b 08             	mov    (%rax),%r9
    8b0b:	4d 85 c9             	test   %r9,%r9
    8b0e:	74 c8                	je     8ad8 <relocate_enclave+0x58>
    8b10:	48 c1 e2 04          	shl    $0x4,%rdx
    8b14:	45 31 ff             	xor    %r15d,%r15d
    8b17:	45 31 f6             	xor    %r14d,%r14d
    8b1a:	48 01 c2             	add    %rax,%rdx
    8b1d:	45 31 d2             	xor    %r10d,%r10d
    8b20:	31 c0                	xor    %eax,%eax
    8b22:	31 f6                	xor    %esi,%esi
    8b24:	45 31 db             	xor    %r11d,%r11d
    8b27:	66 0f 1f 84 00 00 00 	nopw   0x0(%rax,%rax,1)
    8b2e:	00 00 
    8b30:	49 83 f9 17          	cmp    $0x17,%r9
    8b34:	77 12                	ja     8b48 <relocate_enclave+0xc8>
    8b36:	4b 63 3c 8c          	movslq (%r12,%r9,4),%rdi
    8b3a:	4c 01 e7             	add    %r12,%rdi
    8b3d:	ff e7                	jmpq   *%rdi
    8b3f:	90                   	nop
    8b40:	4d 8b 50 08          	mov    0x8(%r8),%r10
    8b44:	0f 1f 40 00          	nopl   0x0(%rax)
    8b48:	49 83 c0 10          	add    $0x10,%r8
    8b4c:	49 39 d0             	cmp    %rdx,%r8
    8b4f:	74 08                	je     8b59 <relocate_enclave+0xd9>
    8b51:	4d 8b 08             	mov    (%r8),%r9
    8b54:	4d 85 c9             	test   %r9,%r9
    8b57:	75 d7                	jne    8b30 <relocate_enclave+0xb0>
    8b59:	48 85 f6             	test   %rsi,%rsi
    8b5c:	0f 84 be 00 00 00    	je     8c20 <relocate_enclave+0x1a0>
    8b62:	4d 85 f6             	test   %r14,%r14
    8b65:	4c 89 14 24          	mov    %r10,(%rsp)
    8b69:	74 4f                	je     8bba <relocate_enclave+0x13a>
    8b6b:	31 d2                	xor    %edx,%edx
    8b6d:	4c 89 ef             	mov    %r13,%rdi
    8b70:	4c 89 5c 24 08       	mov    %r11,0x8(%rsp)
    8b75:	49 f7 f6             	div    %r14
    8b78:	4c 89 da             	mov    %r11,%rdx
    8b7b:	48 89 c1             	mov    %rax,%rcx
    8b7e:	e8 9d fc ff ff       	callq  8820 <do_relocs>
    8b83:	85 c0                	test   %eax,%eax
    8b85:	4c 8b 5c 24 08       	mov    0x8(%rsp),%r11
    8b8a:	4c 8b 14 24          	mov    (%rsp),%r10
    8b8e:	75 2a                	jne    8bba <relocate_enclave+0x13a>
    8b90:	4d 85 d2             	test   %r10,%r10
    8b93:	0f 84 3f ff ff ff    	je     8ad8 <relocate_enclave+0x58>
    8b99:	31 d2                	xor    %edx,%edx
    8b9b:	4c 89 f8             	mov    %r15,%rax
    8b9e:	4c 89 d6             	mov    %r10,%rsi
    8ba1:	49 f7 f6             	div    %r14
    8ba4:	4c 89 ef             	mov    %r13,%rdi
    8ba7:	4c 89 da             	mov    %r11,%rdx
    8baa:	48 89 c1             	mov    %rax,%rcx
    8bad:	e8 6e fc ff ff       	callq  8820 <do_relocs>
    8bb2:	85 c0                	test   %eax,%eax
    8bb4:	0f 84 1e ff ff ff    	je     8ad8 <relocate_enclave+0x58>
    8bba:	48 83 c4 10          	add    $0x10,%rsp
    8bbe:	b8 ff ff ff ff       	mov    $0xffffffff,%eax
    8bc3:	5b                   	pop    %rbx
    8bc4:	5d                   	pop    %rbp
    8bc5:	41 5c                	pop    %r12
    8bc7:	41 5d                	pop    %r13
    8bc9:	41 5e                	pop    %r14
    8bcb:	41 5f                	pop    %r15
    8bcd:	c3                   	retq   
    8bce:	66 90                	xchg   %ax,%ax
    8bd0:	4d 8b 58 08          	mov    0x8(%r8),%r11
    8bd4:	e9 6f ff ff ff       	jmpq   8b48 <relocate_enclave+0xc8>
    8bd9:	0f 1f 80 00 00 00 00 	nopl   0x0(%rax)
    8be0:	4d 8b 78 08          	mov    0x8(%r8),%r15
    8be4:	e9 5f ff ff ff       	jmpq   8b48 <relocate_enclave+0xc8>
    8be9:	0f 1f 80 00 00 00 00 	nopl   0x0(%rax)
    8bf0:	49 8b 40 08          	mov    0x8(%r8),%rax
    8bf4:	e9 4f ff ff ff       	jmpq   8b48 <relocate_enclave+0xc8>
    8bf9:	0f 1f 80 00 00 00 00 	nopl   0x0(%rax)
    8c00:	49 8b 70 08          	mov    0x8(%r8),%rsi
    8c04:	e9 3f ff ff ff       	jmpq   8b48 <relocate_enclave+0xc8>
    8c09:	0f 1f 80 00 00 00 00 	nopl   0x0(%rax)
    8c10:	4d 8b 70 08          	mov    0x8(%r8),%r14
    8c14:	e9 2f ff ff ff       	jmpq   8b48 <relocate_enclave+0xc8>
    8c19:	0f 1f 80 00 00 00 00 	nopl   0x0(%rax)
    8c20:	4d 85 d2             	test   %r10,%r10
    8c23:	0f 84 af fe ff ff    	je     8ad8 <relocate_enclave+0x58>
    8c29:	4d 85 f6             	test   %r14,%r14
    8c2c:	0f 85 67 ff ff ff    	jne    8b99 <relocate_enclave+0x119>
    8c32:	eb 86                	jmp    8bba <relocate_enclave+0x13a>
    8c34:	0f 1f 40 00          	nopl   0x0(%rax)
    8c38:	48 83 c4 10          	add    $0x10,%rsp
    8c3c:	31 c0                	xor    %eax,%eax
    8c3e:	5b                   	pop    %rbx
    8c3f:	5d                   	pop    %rbp
    8c40:	41 5c                	pop    %r12
    8c42:	41 5d                	pop    %r13
    8c44:	41 5e                	pop    %r14
    8c46:	41 5f                	pop    %r15
    8c48:	c3                   	retq   
    8c49:	b8 ff ff ff ff       	mov    $0xffffffff,%eax
    8c4e:	c3                   	retq   
    8c4f:	90                   	nop

0000000000008c50 <elf_tls_info>:
    8c50:	48 85 ff             	test   %rdi,%rdi
    8c53:	b8 ff ff ff ff       	mov    $0xffffffff,%eax
    8c58:	74 08                	je     8c62 <elf_tls_info+0x12>
    8c5a:	81 3f 7f 45 4c 46    	cmpl   $0x464c457f,(%rdi)
    8c60:	74 06                	je     8c68 <elf_tls_info+0x18>
    8c62:	f3 c3                	repz retq 
    8c64:	0f 1f 40 00          	nopl   0x0(%rax)
    8c68:	66 83 7f 10 03       	cmpw   $0x3,0x10(%rdi)
    8c6d:	75 f3                	jne    8c62 <elf_tls_info+0x12>
    8c6f:	48 8b 47 20          	mov    0x20(%rdi),%rax
    8c73:	48 01 f8             	add    %rdi,%rax
    8c76:	48 85 f6             	test   %rsi,%rsi
    8c79:	41 0f 94 c0          	sete   %r8b
    8c7d:	48 85 d2             	test   %rdx,%rdx
    8c80:	0f 94 c1             	sete   %cl
    8c83:	41 08 c8             	or     %cl,%r8b
    8c86:	75 61                	jne    8ce9 <elf_tls_info+0x99>
    8c88:	48 85 c0             	test   %rax,%rax
    8c8b:	74 5c                	je     8ce9 <elf_tls_info+0x99>
    8c8d:	0f b7 4f 38          	movzwl 0x38(%rdi),%ecx
    8c91:	48 c7 06 00 00 00 00 	movq   $0x0,(%rsi)
    8c98:	48 c7 02 00 00 00 00 	movq   $0x0,(%rdx)
    8c9f:	85 c9                	test   %ecx,%ecx
    8ca1:	74 2b                	je     8cce <elf_tls_info+0x7e>
    8ca3:	83 38 07             	cmpl   $0x7,(%rax)
    8ca6:	74 30                	je     8cd8 <elf_tls_info+0x88>
    8ca8:	44 8d 41 ff          	lea    -0x1(%rcx),%r8d
    8cac:	4a 8d 0c c5 00 00 00 	lea    0x0(,%r8,8),%rcx
    8cb3:	00 
    8cb4:	4c 29 c1             	sub    %r8,%rcx
    8cb7:	48 8d 4c c8 38       	lea    0x38(%rax,%rcx,8),%rcx
    8cbc:	eb 07                	jmp    8cc5 <elf_tls_info+0x75>
    8cbe:	66 90                	xchg   %ax,%ax
    8cc0:	83 38 07             	cmpl   $0x7,(%rax)
    8cc3:	74 13                	je     8cd8 <elf_tls_info+0x88>
    8cc5:	48 83 c0 38          	add    $0x38,%rax
    8cc9:	48 39 c8             	cmp    %rcx,%rax
    8ccc:	75 f2                	jne    8cc0 <elf_tls_info+0x70>
    8cce:	31 c0                	xor    %eax,%eax
    8cd0:	c3                   	retq   
    8cd1:	0f 1f 80 00 00 00 00 	nopl   0x0(%rax)
    8cd8:	48 03 78 10          	add    0x10(%rax),%rdi
    8cdc:	48 89 3e             	mov    %rdi,(%rsi)
    8cdf:	48 8b 40 20          	mov    0x20(%rax),%rax
    8ce3:	48 89 02             	mov    %rax,(%rdx)
    8ce6:	31 c0                	xor    %eax,%eax
    8ce8:	c3                   	retq   
    8ce9:	b8 ff ff ff ff       	mov    $0xffffffff,%eax
    8cee:	c3                   	retq   
    8cef:	90                   	nop

0000000000008cf0 <elf_get_init_array>:
    8cf0:	48 85 ff             	test   %rdi,%rdi
    8cf3:	b8 ff ff ff ff       	mov    $0xffffffff,%eax
    8cf8:	74 08                	je     8d02 <elf_get_init_array+0x12>
    8cfa:	81 3f 7f 45 4c 46    	cmpl   $0x464c457f,(%rdi)
    8d00:	74 06                	je     8d08 <elf_get_init_array+0x18>
    8d02:	f3 c3                	repz retq 
    8d04:	0f 1f 40 00          	nopl   0x0(%rax)
    8d08:	66 83 7f 10 03       	cmpw   $0x3,0x10(%rdi)
    8d0d:	75 f3                	jne    8d02 <elf_get_init_array+0x12>
    8d0f:	48 8b 4f 20          	mov    0x20(%rdi),%rcx
    8d13:	48 01 f9             	add    %rdi,%rcx
    8d16:	48 85 f6             	test   %rsi,%rsi
    8d19:	41 0f 94 c0          	sete   %r8b
    8d1d:	48 85 d2             	test   %rdx,%rdx
    8d20:	0f 94 c0             	sete   %al
    8d23:	41 08 c0             	or     %al,%r8b
    8d26:	0f 85 97 00 00 00    	jne    8dc3 <elf_get_init_array+0xd3>
    8d2c:	48 85 c9             	test   %rcx,%rcx
    8d2f:	0f 84 8e 00 00 00    	je     8dc3 <elf_get_init_array+0xd3>
    8d35:	0f b7 47 38          	movzwl 0x38(%rdi),%eax
    8d39:	48 c7 06 00 00 00 00 	movq   $0x0,(%rsi)
    8d40:	48 c7 02 00 00 00 00 	movq   $0x0,(%rdx)
    8d47:	85 c0                	test   %eax,%eax
    8d49:	74 75                	je     8dc0 <elf_get_init_array+0xd0>
    8d4b:	44 8d 40 ff          	lea    -0x1(%rax),%r8d
    8d4f:	4a 8d 04 c5 00 00 00 	lea    0x0(,%r8,8),%rax
    8d56:	00 
    8d57:	4c 29 c0             	sub    %r8,%rax
    8d5a:	4c 8d 54 c1 38       	lea    0x38(%rcx,%rax,8),%r10
    8d5f:	eb 10                	jmp    8d71 <elf_get_init_array+0x81>
    8d61:	0f 1f 80 00 00 00 00 	nopl   0x0(%rax)
    8d68:	48 83 c1 38          	add    $0x38,%rcx
    8d6c:	4c 39 d1             	cmp    %r10,%rcx
    8d6f:	74 4f                	je     8dc0 <elf_get_init_array+0xd0>
    8d71:	83 39 02             	cmpl   $0x2,(%rcx)
    8d74:	75 f2                	jne    8d68 <elf_get_init_array+0x78>
    8d76:	4c 8b 49 20          	mov    0x20(%rcx),%r9
    8d7a:	48 8b 41 18          	mov    0x18(%rcx),%rax
    8d7e:	49 c1 e9 04          	shr    $0x4,%r9
    8d82:	48 01 f8             	add    %rdi,%rax
    8d85:	4d 85 c9             	test   %r9,%r9
    8d88:	74 de                	je     8d68 <elf_get_init_array+0x78>
    8d8a:	49 c1 e1 04          	shl    $0x4,%r9
    8d8e:	49 01 c1             	add    %rax,%r9
    8d91:	eb 1b                	jmp    8dae <elf_get_init_array+0xbe>
    8d93:	0f 1f 44 00 00       	nopl   0x0(%rax,%rax,1)
    8d98:	49 83 f8 1b          	cmp    $0x1b,%r8
    8d9c:	75 07                	jne    8da5 <elf_get_init_array+0xb5>
    8d9e:	4c 8b 40 08          	mov    0x8(%rax),%r8
    8da2:	4c 89 02             	mov    %r8,(%rdx)
    8da5:	48 83 c0 10          	add    $0x10,%rax
    8da9:	49 39 c1             	cmp    %rax,%r9
    8dac:	74 ba                	je     8d68 <elf_get_init_array+0x78>
    8dae:	4c 8b 00             	mov    (%rax),%r8
    8db1:	49 83 f8 19          	cmp    $0x19,%r8
    8db5:	75 e1                	jne    8d98 <elf_get_init_array+0xa8>
    8db7:	4c 8b 40 08          	mov    0x8(%rax),%r8
    8dbb:	4c 89 06             	mov    %r8,(%rsi)
    8dbe:	eb e5                	jmp    8da5 <elf_get_init_array+0xb5>
    8dc0:	31 c0                	xor    %eax,%eax
    8dc2:	c3                   	retq   
    8dc3:	b8 ff ff ff ff       	mov    $0xffffffff,%eax
    8dc8:	c3                   	retq   
    8dc9:	0f 1f 80 00 00 00 00 	nopl   0x0(%rax)

0000000000008dd0 <elf_get_uninit_array>:
    8dd0:	48 85 ff             	test   %rdi,%rdi
    8dd3:	b8 ff ff ff ff       	mov    $0xffffffff,%eax
    8dd8:	74 08                	je     8de2 <elf_get_uninit_array+0x12>
    8dda:	81 3f 7f 45 4c 46    	cmpl   $0x464c457f,(%rdi)
    8de0:	74 06                	je     8de8 <elf_get_uninit_array+0x18>
    8de2:	f3 c3                	repz retq 
    8de4:	0f 1f 40 00          	nopl   0x0(%rax)
